
FRA262STUIII.elf:     file format elf32-littlearm

Sections:
Idx Name          Size      VMA       LMA       File off  Algn
  0 .isr_vector   00000198  08000000  08000000  00010000  2**0
                  CONTENTS, ALLOC, LOAD, READONLY, DATA
  1 .text         00007438  08000198  08000198  00010198  2**3
                  CONTENTS, ALLOC, LOAD, READONLY, CODE
  2 .rodata       00000020  080075d0  080075d0  000175d0  2**2
                  CONTENTS, ALLOC, LOAD, READONLY, DATA
  3 .ARM.extab    00000000  080075f0  080075f0  00020028  2**0
                  CONTENTS
  4 .ARM          00000008  080075f0  080075f0  000175f0  2**2
                  CONTENTS, ALLOC, LOAD, READONLY, DATA
  5 .preinit_array 00000000  080075f8  080075f8  00020028  2**0
                  CONTENTS, ALLOC, LOAD, DATA
  6 .init_array   00000004  080075f8  080075f8  000175f8  2**2
                  CONTENTS, ALLOC, LOAD, DATA
  7 .fini_array   00000004  080075fc  080075fc  000175fc  2**2
                  CONTENTS, ALLOC, LOAD, DATA
  8 .data         00000028  20000000  08007600  00020000  2**2
                  CONTENTS, ALLOC, LOAD, DATA
  9 .bss          000002f4  20000028  08007628  00020028  2**3
                  ALLOC
 10 ._user_heap_stack 00000604  2000031c  08007628  0002031c  2**0
                  ALLOC
 11 .ARM.attributes 00000030  00000000  00000000  00020028  2**0
                  CONTENTS, READONLY
 12 .debug_info   0001094f  00000000  00000000  00020058  2**0
                  CONTENTS, READONLY, DEBUGGING, OCTETS
 13 .debug_abbrev 00001dfc  00000000  00000000  000309a7  2**0
                  CONTENTS, READONLY, DEBUGGING, OCTETS
 14 .debug_aranges 00000f10  00000000  00000000  000327a8  2**3
                  CONTENTS, READONLY, DEBUGGING, OCTETS
 15 .debug_ranges 00000e90  00000000  00000000  000336b8  2**3
                  CONTENTS, READONLY, DEBUGGING, OCTETS
 16 .debug_macro  00015dca  00000000  00000000  00034548  2**0
                  CONTENTS, READONLY, DEBUGGING, OCTETS
 17 .debug_line   00011483  00000000  00000000  0004a312  2**0
                  CONTENTS, READONLY, DEBUGGING, OCTETS
 18 .debug_str    0008cb54  00000000  00000000  0005b795  2**0
                  CONTENTS, READONLY, DEBUGGING, OCTETS
 19 .comment      00000053  00000000  00000000  000e82e9  2**0
                  CONTENTS, READONLY
 20 .debug_frame  00004228  00000000  00000000  000e833c  2**2
                  CONTENTS, READONLY, DEBUGGING, OCTETS

Disassembly of section .text:

08000198 <__do_global_dtors_aux>:
 8000198:	b510      	push	{r4, lr}
 800019a:	4c05      	ldr	r4, [pc, #20]	; (80001b0 <__do_global_dtors_aux+0x18>)
 800019c:	7823      	ldrb	r3, [r4, #0]
 800019e:	b933      	cbnz	r3, 80001ae <__do_global_dtors_aux+0x16>
 80001a0:	4b04      	ldr	r3, [pc, #16]	; (80001b4 <__do_global_dtors_aux+0x1c>)
 80001a2:	b113      	cbz	r3, 80001aa <__do_global_dtors_aux+0x12>
 80001a4:	4804      	ldr	r0, [pc, #16]	; (80001b8 <__do_global_dtors_aux+0x20>)
 80001a6:	f3af 8000 	nop.w
 80001aa:	2301      	movs	r3, #1
 80001ac:	7023      	strb	r3, [r4, #0]
 80001ae:	bd10      	pop	{r4, pc}
 80001b0:	20000028 	.word	0x20000028
 80001b4:	00000000 	.word	0x00000000
 80001b8:	080075b8 	.word	0x080075b8

080001bc <frame_dummy>:
 80001bc:	b508      	push	{r3, lr}
 80001be:	4b03      	ldr	r3, [pc, #12]	; (80001cc <frame_dummy+0x10>)
 80001c0:	b11b      	cbz	r3, 80001ca <frame_dummy+0xe>
 80001c2:	4903      	ldr	r1, [pc, #12]	; (80001d0 <frame_dummy+0x14>)
 80001c4:	4803      	ldr	r0, [pc, #12]	; (80001d4 <frame_dummy+0x18>)
 80001c6:	f3af 8000 	nop.w
 80001ca:	bd08      	pop	{r3, pc}
 80001cc:	00000000 	.word	0x00000000
 80001d0:	2000002c 	.word	0x2000002c
 80001d4:	080075b8 	.word	0x080075b8

080001d8 <__aeabi_drsub>:
 80001d8:	f081 4100 	eor.w	r1, r1, #2147483648	; 0x80000000
 80001dc:	e002      	b.n	80001e4 <__adddf3>
 80001de:	bf00      	nop

080001e0 <__aeabi_dsub>:
 80001e0:	f083 4300 	eor.w	r3, r3, #2147483648	; 0x80000000

080001e4 <__adddf3>:
 80001e4:	b530      	push	{r4, r5, lr}
 80001e6:	ea4f 0441 	mov.w	r4, r1, lsl #1
 80001ea:	ea4f 0543 	mov.w	r5, r3, lsl #1
 80001ee:	ea94 0f05 	teq	r4, r5
 80001f2:	bf08      	it	eq
 80001f4:	ea90 0f02 	teqeq	r0, r2
 80001f8:	bf1f      	itttt	ne
 80001fa:	ea54 0c00 	orrsne.w	ip, r4, r0
 80001fe:	ea55 0c02 	orrsne.w	ip, r5, r2
 8000202:	ea7f 5c64 	mvnsne.w	ip, r4, asr #21
 8000206:	ea7f 5c65 	mvnsne.w	ip, r5, asr #21
 800020a:	f000 80e2 	beq.w	80003d2 <__adddf3+0x1ee>
 800020e:	ea4f 5454 	mov.w	r4, r4, lsr #21
 8000212:	ebd4 5555 	rsbs	r5, r4, r5, lsr #21
 8000216:	bfb8      	it	lt
 8000218:	426d      	neglt	r5, r5
 800021a:	dd0c      	ble.n	8000236 <__adddf3+0x52>
 800021c:	442c      	add	r4, r5
 800021e:	ea80 0202 	eor.w	r2, r0, r2
 8000222:	ea81 0303 	eor.w	r3, r1, r3
 8000226:	ea82 0000 	eor.w	r0, r2, r0
 800022a:	ea83 0101 	eor.w	r1, r3, r1
 800022e:	ea80 0202 	eor.w	r2, r0, r2
 8000232:	ea81 0303 	eor.w	r3, r1, r3
 8000236:	2d36      	cmp	r5, #54	; 0x36
 8000238:	bf88      	it	hi
 800023a:	bd30      	pophi	{r4, r5, pc}
 800023c:	f011 4f00 	tst.w	r1, #2147483648	; 0x80000000
 8000240:	ea4f 3101 	mov.w	r1, r1, lsl #12
 8000244:	f44f 1c80 	mov.w	ip, #1048576	; 0x100000
 8000248:	ea4c 3111 	orr.w	r1, ip, r1, lsr #12
 800024c:	d002      	beq.n	8000254 <__adddf3+0x70>
 800024e:	4240      	negs	r0, r0
 8000250:	eb61 0141 	sbc.w	r1, r1, r1, lsl #1
 8000254:	f013 4f00 	tst.w	r3, #2147483648	; 0x80000000
 8000258:	ea4f 3303 	mov.w	r3, r3, lsl #12
 800025c:	ea4c 3313 	orr.w	r3, ip, r3, lsr #12
 8000260:	d002      	beq.n	8000268 <__adddf3+0x84>
 8000262:	4252      	negs	r2, r2
 8000264:	eb63 0343 	sbc.w	r3, r3, r3, lsl #1
 8000268:	ea94 0f05 	teq	r4, r5
 800026c:	f000 80a7 	beq.w	80003be <__adddf3+0x1da>
 8000270:	f1a4 0401 	sub.w	r4, r4, #1
 8000274:	f1d5 0e20 	rsbs	lr, r5, #32
 8000278:	db0d      	blt.n	8000296 <__adddf3+0xb2>
 800027a:	fa02 fc0e 	lsl.w	ip, r2, lr
 800027e:	fa22 f205 	lsr.w	r2, r2, r5
 8000282:	1880      	adds	r0, r0, r2
 8000284:	f141 0100 	adc.w	r1, r1, #0
 8000288:	fa03 f20e 	lsl.w	r2, r3, lr
 800028c:	1880      	adds	r0, r0, r2
 800028e:	fa43 f305 	asr.w	r3, r3, r5
 8000292:	4159      	adcs	r1, r3
 8000294:	e00e      	b.n	80002b4 <__adddf3+0xd0>
 8000296:	f1a5 0520 	sub.w	r5, r5, #32
 800029a:	f10e 0e20 	add.w	lr, lr, #32
 800029e:	2a01      	cmp	r2, #1
 80002a0:	fa03 fc0e 	lsl.w	ip, r3, lr
 80002a4:	bf28      	it	cs
 80002a6:	f04c 0c02 	orrcs.w	ip, ip, #2
 80002aa:	fa43 f305 	asr.w	r3, r3, r5
 80002ae:	18c0      	adds	r0, r0, r3
 80002b0:	eb51 71e3 	adcs.w	r1, r1, r3, asr #31
 80002b4:	f001 4500 	and.w	r5, r1, #2147483648	; 0x80000000
 80002b8:	d507      	bpl.n	80002ca <__adddf3+0xe6>
 80002ba:	f04f 0e00 	mov.w	lr, #0
 80002be:	f1dc 0c00 	rsbs	ip, ip, #0
 80002c2:	eb7e 0000 	sbcs.w	r0, lr, r0
 80002c6:	eb6e 0101 	sbc.w	r1, lr, r1
 80002ca:	f5b1 1f80 	cmp.w	r1, #1048576	; 0x100000
 80002ce:	d31b      	bcc.n	8000308 <__adddf3+0x124>
 80002d0:	f5b1 1f00 	cmp.w	r1, #2097152	; 0x200000
 80002d4:	d30c      	bcc.n	80002f0 <__adddf3+0x10c>
 80002d6:	0849      	lsrs	r1, r1, #1
 80002d8:	ea5f 0030 	movs.w	r0, r0, rrx
 80002dc:	ea4f 0c3c 	mov.w	ip, ip, rrx
 80002e0:	f104 0401 	add.w	r4, r4, #1
 80002e4:	ea4f 5244 	mov.w	r2, r4, lsl #21
 80002e8:	f512 0f80 	cmn.w	r2, #4194304	; 0x400000
 80002ec:	f080 809a 	bcs.w	8000424 <__adddf3+0x240>
 80002f0:	f1bc 4f00 	cmp.w	ip, #2147483648	; 0x80000000
 80002f4:	bf08      	it	eq
 80002f6:	ea5f 0c50 	movseq.w	ip, r0, lsr #1
 80002fa:	f150 0000 	adcs.w	r0, r0, #0
 80002fe:	eb41 5104 	adc.w	r1, r1, r4, lsl #20
 8000302:	ea41 0105 	orr.w	r1, r1, r5
 8000306:	bd30      	pop	{r4, r5, pc}
 8000308:	ea5f 0c4c 	movs.w	ip, ip, lsl #1
 800030c:	4140      	adcs	r0, r0
 800030e:	eb41 0101 	adc.w	r1, r1, r1
 8000312:	3c01      	subs	r4, #1
 8000314:	bf28      	it	cs
 8000316:	f5b1 1f80 	cmpcs.w	r1, #1048576	; 0x100000
 800031a:	d2e9      	bcs.n	80002f0 <__adddf3+0x10c>
 800031c:	f091 0f00 	teq	r1, #0
 8000320:	bf04      	itt	eq
 8000322:	4601      	moveq	r1, r0
 8000324:	2000      	moveq	r0, #0
 8000326:	fab1 f381 	clz	r3, r1
 800032a:	bf08      	it	eq
 800032c:	3320      	addeq	r3, #32
 800032e:	f1a3 030b 	sub.w	r3, r3, #11
 8000332:	f1b3 0220 	subs.w	r2, r3, #32
 8000336:	da0c      	bge.n	8000352 <__adddf3+0x16e>
 8000338:	320c      	adds	r2, #12
 800033a:	dd08      	ble.n	800034e <__adddf3+0x16a>
 800033c:	f102 0c14 	add.w	ip, r2, #20
 8000340:	f1c2 020c 	rsb	r2, r2, #12
 8000344:	fa01 f00c 	lsl.w	r0, r1, ip
 8000348:	fa21 f102 	lsr.w	r1, r1, r2
 800034c:	e00c      	b.n	8000368 <__adddf3+0x184>
 800034e:	f102 0214 	add.w	r2, r2, #20
 8000352:	bfd8      	it	le
 8000354:	f1c2 0c20 	rsble	ip, r2, #32
 8000358:	fa01 f102 	lsl.w	r1, r1, r2
 800035c:	fa20 fc0c 	lsr.w	ip, r0, ip
 8000360:	bfdc      	itt	le
 8000362:	ea41 010c 	orrle.w	r1, r1, ip
 8000366:	4090      	lslle	r0, r2
 8000368:	1ae4      	subs	r4, r4, r3
 800036a:	bfa2      	ittt	ge
 800036c:	eb01 5104 	addge.w	r1, r1, r4, lsl #20
 8000370:	4329      	orrge	r1, r5
 8000372:	bd30      	popge	{r4, r5, pc}
 8000374:	ea6f 0404 	mvn.w	r4, r4
 8000378:	3c1f      	subs	r4, #31
 800037a:	da1c      	bge.n	80003b6 <__adddf3+0x1d2>
 800037c:	340c      	adds	r4, #12
 800037e:	dc0e      	bgt.n	800039e <__adddf3+0x1ba>
 8000380:	f104 0414 	add.w	r4, r4, #20
 8000384:	f1c4 0220 	rsb	r2, r4, #32
 8000388:	fa20 f004 	lsr.w	r0, r0, r4
 800038c:	fa01 f302 	lsl.w	r3, r1, r2
 8000390:	ea40 0003 	orr.w	r0, r0, r3
 8000394:	fa21 f304 	lsr.w	r3, r1, r4
 8000398:	ea45 0103 	orr.w	r1, r5, r3
 800039c:	bd30      	pop	{r4, r5, pc}
 800039e:	f1c4 040c 	rsb	r4, r4, #12
 80003a2:	f1c4 0220 	rsb	r2, r4, #32
 80003a6:	fa20 f002 	lsr.w	r0, r0, r2
 80003aa:	fa01 f304 	lsl.w	r3, r1, r4
 80003ae:	ea40 0003 	orr.w	r0, r0, r3
 80003b2:	4629      	mov	r1, r5
 80003b4:	bd30      	pop	{r4, r5, pc}
 80003b6:	fa21 f004 	lsr.w	r0, r1, r4
 80003ba:	4629      	mov	r1, r5
 80003bc:	bd30      	pop	{r4, r5, pc}
 80003be:	f094 0f00 	teq	r4, #0
 80003c2:	f483 1380 	eor.w	r3, r3, #1048576	; 0x100000
 80003c6:	bf06      	itte	eq
 80003c8:	f481 1180 	eoreq.w	r1, r1, #1048576	; 0x100000
 80003cc:	3401      	addeq	r4, #1
 80003ce:	3d01      	subne	r5, #1
 80003d0:	e74e      	b.n	8000270 <__adddf3+0x8c>
 80003d2:	ea7f 5c64 	mvns.w	ip, r4, asr #21
 80003d6:	bf18      	it	ne
 80003d8:	ea7f 5c65 	mvnsne.w	ip, r5, asr #21
 80003dc:	d029      	beq.n	8000432 <__adddf3+0x24e>
 80003de:	ea94 0f05 	teq	r4, r5
 80003e2:	bf08      	it	eq
 80003e4:	ea90 0f02 	teqeq	r0, r2
 80003e8:	d005      	beq.n	80003f6 <__adddf3+0x212>
 80003ea:	ea54 0c00 	orrs.w	ip, r4, r0
 80003ee:	bf04      	itt	eq
 80003f0:	4619      	moveq	r1, r3
 80003f2:	4610      	moveq	r0, r2
 80003f4:	bd30      	pop	{r4, r5, pc}
 80003f6:	ea91 0f03 	teq	r1, r3
 80003fa:	bf1e      	ittt	ne
 80003fc:	2100      	movne	r1, #0
 80003fe:	2000      	movne	r0, #0
 8000400:	bd30      	popne	{r4, r5, pc}
 8000402:	ea5f 5c54 	movs.w	ip, r4, lsr #21
 8000406:	d105      	bne.n	8000414 <__adddf3+0x230>
 8000408:	0040      	lsls	r0, r0, #1
 800040a:	4149      	adcs	r1, r1
 800040c:	bf28      	it	cs
 800040e:	f041 4100 	orrcs.w	r1, r1, #2147483648	; 0x80000000
 8000412:	bd30      	pop	{r4, r5, pc}
 8000414:	f514 0480 	adds.w	r4, r4, #4194304	; 0x400000
 8000418:	bf3c      	itt	cc
 800041a:	f501 1180 	addcc.w	r1, r1, #1048576	; 0x100000
 800041e:	bd30      	popcc	{r4, r5, pc}
 8000420:	f001 4500 	and.w	r5, r1, #2147483648	; 0x80000000
 8000424:	f045 41fe 	orr.w	r1, r5, #2130706432	; 0x7f000000
 8000428:	f441 0170 	orr.w	r1, r1, #15728640	; 0xf00000
 800042c:	f04f 0000 	mov.w	r0, #0
 8000430:	bd30      	pop	{r4, r5, pc}
 8000432:	ea7f 5c64 	mvns.w	ip, r4, asr #21
 8000436:	bf1a      	itte	ne
 8000438:	4619      	movne	r1, r3
 800043a:	4610      	movne	r0, r2
 800043c:	ea7f 5c65 	mvnseq.w	ip, r5, asr #21
 8000440:	bf1c      	itt	ne
 8000442:	460b      	movne	r3, r1
 8000444:	4602      	movne	r2, r0
 8000446:	ea50 3401 	orrs.w	r4, r0, r1, lsl #12
 800044a:	bf06      	itte	eq
 800044c:	ea52 3503 	orrseq.w	r5, r2, r3, lsl #12
 8000450:	ea91 0f03 	teqeq	r1, r3
 8000454:	f441 2100 	orrne.w	r1, r1, #524288	; 0x80000
 8000458:	bd30      	pop	{r4, r5, pc}
 800045a:	bf00      	nop

0800045c <__aeabi_ui2d>:
 800045c:	f090 0f00 	teq	r0, #0
 8000460:	bf04      	itt	eq
 8000462:	2100      	moveq	r1, #0
 8000464:	4770      	bxeq	lr
 8000466:	b530      	push	{r4, r5, lr}
 8000468:	f44f 6480 	mov.w	r4, #1024	; 0x400
 800046c:	f104 0432 	add.w	r4, r4, #50	; 0x32
 8000470:	f04f 0500 	mov.w	r5, #0
 8000474:	f04f 0100 	mov.w	r1, #0
 8000478:	e750      	b.n	800031c <__adddf3+0x138>
 800047a:	bf00      	nop

0800047c <__aeabi_i2d>:
 800047c:	f090 0f00 	teq	r0, #0
 8000480:	bf04      	itt	eq
 8000482:	2100      	moveq	r1, #0
 8000484:	4770      	bxeq	lr
 8000486:	b530      	push	{r4, r5, lr}
 8000488:	f44f 6480 	mov.w	r4, #1024	; 0x400
 800048c:	f104 0432 	add.w	r4, r4, #50	; 0x32
 8000490:	f010 4500 	ands.w	r5, r0, #2147483648	; 0x80000000
 8000494:	bf48      	it	mi
 8000496:	4240      	negmi	r0, r0
 8000498:	f04f 0100 	mov.w	r1, #0
 800049c:	e73e      	b.n	800031c <__adddf3+0x138>
 800049e:	bf00      	nop

080004a0 <__aeabi_f2d>:
 80004a0:	0042      	lsls	r2, r0, #1
 80004a2:	ea4f 01e2 	mov.w	r1, r2, asr #3
 80004a6:	ea4f 0131 	mov.w	r1, r1, rrx
 80004aa:	ea4f 7002 	mov.w	r0, r2, lsl #28
 80004ae:	bf1f      	itttt	ne
 80004b0:	f012 437f 	andsne.w	r3, r2, #4278190080	; 0xff000000
 80004b4:	f093 4f7f 	teqne	r3, #4278190080	; 0xff000000
 80004b8:	f081 5160 	eorne.w	r1, r1, #939524096	; 0x38000000
 80004bc:	4770      	bxne	lr
 80004be:	f032 427f 	bics.w	r2, r2, #4278190080	; 0xff000000
 80004c2:	bf08      	it	eq
 80004c4:	4770      	bxeq	lr
 80004c6:	f093 4f7f 	teq	r3, #4278190080	; 0xff000000
 80004ca:	bf04      	itt	eq
 80004cc:	f441 2100 	orreq.w	r1, r1, #524288	; 0x80000
 80004d0:	4770      	bxeq	lr
 80004d2:	b530      	push	{r4, r5, lr}
 80004d4:	f44f 7460 	mov.w	r4, #896	; 0x380
 80004d8:	f001 4500 	and.w	r5, r1, #2147483648	; 0x80000000
 80004dc:	f021 4100 	bic.w	r1, r1, #2147483648	; 0x80000000
 80004e0:	e71c      	b.n	800031c <__adddf3+0x138>
 80004e2:	bf00      	nop

080004e4 <__aeabi_ul2d>:
 80004e4:	ea50 0201 	orrs.w	r2, r0, r1
 80004e8:	bf08      	it	eq
 80004ea:	4770      	bxeq	lr
 80004ec:	b530      	push	{r4, r5, lr}
 80004ee:	f04f 0500 	mov.w	r5, #0
 80004f2:	e00a      	b.n	800050a <__aeabi_l2d+0x16>

080004f4 <__aeabi_l2d>:
 80004f4:	ea50 0201 	orrs.w	r2, r0, r1
 80004f8:	bf08      	it	eq
 80004fa:	4770      	bxeq	lr
 80004fc:	b530      	push	{r4, r5, lr}
 80004fe:	f011 4500 	ands.w	r5, r1, #2147483648	; 0x80000000
 8000502:	d502      	bpl.n	800050a <__aeabi_l2d+0x16>
 8000504:	4240      	negs	r0, r0
 8000506:	eb61 0141 	sbc.w	r1, r1, r1, lsl #1
 800050a:	f44f 6480 	mov.w	r4, #1024	; 0x400
 800050e:	f104 0432 	add.w	r4, r4, #50	; 0x32
 8000512:	ea5f 5c91 	movs.w	ip, r1, lsr #22
 8000516:	f43f aed8 	beq.w	80002ca <__adddf3+0xe6>
 800051a:	f04f 0203 	mov.w	r2, #3
 800051e:	ea5f 0cdc 	movs.w	ip, ip, lsr #3
 8000522:	bf18      	it	ne
 8000524:	3203      	addne	r2, #3
 8000526:	ea5f 0cdc 	movs.w	ip, ip, lsr #3
 800052a:	bf18      	it	ne
 800052c:	3203      	addne	r2, #3
 800052e:	eb02 02dc 	add.w	r2, r2, ip, lsr #3
 8000532:	f1c2 0320 	rsb	r3, r2, #32
 8000536:	fa00 fc03 	lsl.w	ip, r0, r3
 800053a:	fa20 f002 	lsr.w	r0, r0, r2
 800053e:	fa01 fe03 	lsl.w	lr, r1, r3
 8000542:	ea40 000e 	orr.w	r0, r0, lr
 8000546:	fa21 f102 	lsr.w	r1, r1, r2
 800054a:	4414      	add	r4, r2
 800054c:	e6bd      	b.n	80002ca <__adddf3+0xe6>
 800054e:	bf00      	nop

08000550 <__aeabi_dmul>:
 8000550:	b570      	push	{r4, r5, r6, lr}
 8000552:	f04f 0cff 	mov.w	ip, #255	; 0xff
 8000556:	f44c 6ce0 	orr.w	ip, ip, #1792	; 0x700
 800055a:	ea1c 5411 	ands.w	r4, ip, r1, lsr #20
 800055e:	bf1d      	ittte	ne
 8000560:	ea1c 5513 	andsne.w	r5, ip, r3, lsr #20
 8000564:	ea94 0f0c 	teqne	r4, ip
 8000568:	ea95 0f0c 	teqne	r5, ip
 800056c:	f000 f8de 	bleq	800072c <__aeabi_dmul+0x1dc>
 8000570:	442c      	add	r4, r5
 8000572:	ea81 0603 	eor.w	r6, r1, r3
 8000576:	ea21 514c 	bic.w	r1, r1, ip, lsl #21
 800057a:	ea23 534c 	bic.w	r3, r3, ip, lsl #21
 800057e:	ea50 3501 	orrs.w	r5, r0, r1, lsl #12
 8000582:	bf18      	it	ne
 8000584:	ea52 3503 	orrsne.w	r5, r2, r3, lsl #12
 8000588:	f441 1180 	orr.w	r1, r1, #1048576	; 0x100000
 800058c:	f443 1380 	orr.w	r3, r3, #1048576	; 0x100000
 8000590:	d038      	beq.n	8000604 <__aeabi_dmul+0xb4>
 8000592:	fba0 ce02 	umull	ip, lr, r0, r2
 8000596:	f04f 0500 	mov.w	r5, #0
 800059a:	fbe1 e502 	umlal	lr, r5, r1, r2
 800059e:	f006 4200 	and.w	r2, r6, #2147483648	; 0x80000000
 80005a2:	fbe0 e503 	umlal	lr, r5, r0, r3
 80005a6:	f04f 0600 	mov.w	r6, #0
 80005aa:	fbe1 5603 	umlal	r5, r6, r1, r3
 80005ae:	f09c 0f00 	teq	ip, #0
 80005b2:	bf18      	it	ne
 80005b4:	f04e 0e01 	orrne.w	lr, lr, #1
 80005b8:	f1a4 04ff 	sub.w	r4, r4, #255	; 0xff
 80005bc:	f5b6 7f00 	cmp.w	r6, #512	; 0x200
 80005c0:	f564 7440 	sbc.w	r4, r4, #768	; 0x300
 80005c4:	d204      	bcs.n	80005d0 <__aeabi_dmul+0x80>
 80005c6:	ea5f 0e4e 	movs.w	lr, lr, lsl #1
 80005ca:	416d      	adcs	r5, r5
 80005cc:	eb46 0606 	adc.w	r6, r6, r6
 80005d0:	ea42 21c6 	orr.w	r1, r2, r6, lsl #11
 80005d4:	ea41 5155 	orr.w	r1, r1, r5, lsr #21
 80005d8:	ea4f 20c5 	mov.w	r0, r5, lsl #11
 80005dc:	ea40 505e 	orr.w	r0, r0, lr, lsr #21
 80005e0:	ea4f 2ece 	mov.w	lr, lr, lsl #11
 80005e4:	f1b4 0cfd 	subs.w	ip, r4, #253	; 0xfd
 80005e8:	bf88      	it	hi
 80005ea:	f5bc 6fe0 	cmphi.w	ip, #1792	; 0x700
 80005ee:	d81e      	bhi.n	800062e <__aeabi_dmul+0xde>
 80005f0:	f1be 4f00 	cmp.w	lr, #2147483648	; 0x80000000
 80005f4:	bf08      	it	eq
 80005f6:	ea5f 0e50 	movseq.w	lr, r0, lsr #1
 80005fa:	f150 0000 	adcs.w	r0, r0, #0
 80005fe:	eb41 5104 	adc.w	r1, r1, r4, lsl #20
 8000602:	bd70      	pop	{r4, r5, r6, pc}
 8000604:	f006 4600 	and.w	r6, r6, #2147483648	; 0x80000000
 8000608:	ea46 0101 	orr.w	r1, r6, r1
 800060c:	ea40 0002 	orr.w	r0, r0, r2
 8000610:	ea81 0103 	eor.w	r1, r1, r3
 8000614:	ebb4 045c 	subs.w	r4, r4, ip, lsr #1
 8000618:	bfc2      	ittt	gt
 800061a:	ebd4 050c 	rsbsgt	r5, r4, ip
 800061e:	ea41 5104 	orrgt.w	r1, r1, r4, lsl #20
 8000622:	bd70      	popgt	{r4, r5, r6, pc}
 8000624:	f441 1180 	orr.w	r1, r1, #1048576	; 0x100000
 8000628:	f04f 0e00 	mov.w	lr, #0
 800062c:	3c01      	subs	r4, #1
 800062e:	f300 80ab 	bgt.w	8000788 <__aeabi_dmul+0x238>
 8000632:	f114 0f36 	cmn.w	r4, #54	; 0x36
 8000636:	bfde      	ittt	le
 8000638:	2000      	movle	r0, #0
 800063a:	f001 4100 	andle.w	r1, r1, #2147483648	; 0x80000000
 800063e:	bd70      	pople	{r4, r5, r6, pc}
 8000640:	f1c4 0400 	rsb	r4, r4, #0
 8000644:	3c20      	subs	r4, #32
 8000646:	da35      	bge.n	80006b4 <__aeabi_dmul+0x164>
 8000648:	340c      	adds	r4, #12
 800064a:	dc1b      	bgt.n	8000684 <__aeabi_dmul+0x134>
 800064c:	f104 0414 	add.w	r4, r4, #20
 8000650:	f1c4 0520 	rsb	r5, r4, #32
 8000654:	fa00 f305 	lsl.w	r3, r0, r5
 8000658:	fa20 f004 	lsr.w	r0, r0, r4
 800065c:	fa01 f205 	lsl.w	r2, r1, r5
 8000660:	ea40 0002 	orr.w	r0, r0, r2
 8000664:	f001 4200 	and.w	r2, r1, #2147483648	; 0x80000000
 8000668:	f021 4100 	bic.w	r1, r1, #2147483648	; 0x80000000
 800066c:	eb10 70d3 	adds.w	r0, r0, r3, lsr #31
 8000670:	fa21 f604 	lsr.w	r6, r1, r4
 8000674:	eb42 0106 	adc.w	r1, r2, r6
 8000678:	ea5e 0e43 	orrs.w	lr, lr, r3, lsl #1
 800067c:	bf08      	it	eq
 800067e:	ea20 70d3 	biceq.w	r0, r0, r3, lsr #31
 8000682:	bd70      	pop	{r4, r5, r6, pc}
 8000684:	f1c4 040c 	rsb	r4, r4, #12
 8000688:	f1c4 0520 	rsb	r5, r4, #32
 800068c:	fa00 f304 	lsl.w	r3, r0, r4
 8000690:	fa20 f005 	lsr.w	r0, r0, r5
 8000694:	fa01 f204 	lsl.w	r2, r1, r4
 8000698:	ea40 0002 	orr.w	r0, r0, r2
 800069c:	f001 4100 	and.w	r1, r1, #2147483648	; 0x80000000
 80006a0:	eb10 70d3 	adds.w	r0, r0, r3, lsr #31
 80006a4:	f141 0100 	adc.w	r1, r1, #0
 80006a8:	ea5e 0e43 	orrs.w	lr, lr, r3, lsl #1
 80006ac:	bf08      	it	eq
 80006ae:	ea20 70d3 	biceq.w	r0, r0, r3, lsr #31
 80006b2:	bd70      	pop	{r4, r5, r6, pc}
 80006b4:	f1c4 0520 	rsb	r5, r4, #32
 80006b8:	fa00 f205 	lsl.w	r2, r0, r5
 80006bc:	ea4e 0e02 	orr.w	lr, lr, r2
 80006c0:	fa20 f304 	lsr.w	r3, r0, r4
 80006c4:	fa01 f205 	lsl.w	r2, r1, r5
 80006c8:	ea43 0302 	orr.w	r3, r3, r2
 80006cc:	fa21 f004 	lsr.w	r0, r1, r4
 80006d0:	f001 4100 	and.w	r1, r1, #2147483648	; 0x80000000
 80006d4:	fa21 f204 	lsr.w	r2, r1, r4
 80006d8:	ea20 0002 	bic.w	r0, r0, r2
 80006dc:	eb00 70d3 	add.w	r0, r0, r3, lsr #31
 80006e0:	ea5e 0e43 	orrs.w	lr, lr, r3, lsl #1
 80006e4:	bf08      	it	eq
 80006e6:	ea20 70d3 	biceq.w	r0, r0, r3, lsr #31
 80006ea:	bd70      	pop	{r4, r5, r6, pc}
 80006ec:	f094 0f00 	teq	r4, #0
 80006f0:	d10f      	bne.n	8000712 <__aeabi_dmul+0x1c2>
 80006f2:	f001 4600 	and.w	r6, r1, #2147483648	; 0x80000000
 80006f6:	0040      	lsls	r0, r0, #1
 80006f8:	eb41 0101 	adc.w	r1, r1, r1
 80006fc:	f411 1f80 	tst.w	r1, #1048576	; 0x100000
 8000700:	bf08      	it	eq
 8000702:	3c01      	subeq	r4, #1
 8000704:	d0f7      	beq.n	80006f6 <__aeabi_dmul+0x1a6>
 8000706:	ea41 0106 	orr.w	r1, r1, r6
 800070a:	f095 0f00 	teq	r5, #0
 800070e:	bf18      	it	ne
 8000710:	4770      	bxne	lr
 8000712:	f003 4600 	and.w	r6, r3, #2147483648	; 0x80000000
 8000716:	0052      	lsls	r2, r2, #1
 8000718:	eb43 0303 	adc.w	r3, r3, r3
 800071c:	f413 1f80 	tst.w	r3, #1048576	; 0x100000
 8000720:	bf08      	it	eq
 8000722:	3d01      	subeq	r5, #1
 8000724:	d0f7      	beq.n	8000716 <__aeabi_dmul+0x1c6>
 8000726:	ea43 0306 	orr.w	r3, r3, r6
 800072a:	4770      	bx	lr
 800072c:	ea94 0f0c 	teq	r4, ip
 8000730:	ea0c 5513 	and.w	r5, ip, r3, lsr #20
 8000734:	bf18      	it	ne
 8000736:	ea95 0f0c 	teqne	r5, ip
 800073a:	d00c      	beq.n	8000756 <__aeabi_dmul+0x206>
 800073c:	ea50 0641 	orrs.w	r6, r0, r1, lsl #1
 8000740:	bf18      	it	ne
 8000742:	ea52 0643 	orrsne.w	r6, r2, r3, lsl #1
 8000746:	d1d1      	bne.n	80006ec <__aeabi_dmul+0x19c>
 8000748:	ea81 0103 	eor.w	r1, r1, r3
 800074c:	f001 4100 	and.w	r1, r1, #2147483648	; 0x80000000
 8000750:	f04f 0000 	mov.w	r0, #0
 8000754:	bd70      	pop	{r4, r5, r6, pc}
 8000756:	ea50 0641 	orrs.w	r6, r0, r1, lsl #1
 800075a:	bf06      	itte	eq
 800075c:	4610      	moveq	r0, r2
 800075e:	4619      	moveq	r1, r3
 8000760:	ea52 0643 	orrsne.w	r6, r2, r3, lsl #1
 8000764:	d019      	beq.n	800079a <__aeabi_dmul+0x24a>
 8000766:	ea94 0f0c 	teq	r4, ip
 800076a:	d102      	bne.n	8000772 <__aeabi_dmul+0x222>
 800076c:	ea50 3601 	orrs.w	r6, r0, r1, lsl #12
 8000770:	d113      	bne.n	800079a <__aeabi_dmul+0x24a>
 8000772:	ea95 0f0c 	teq	r5, ip
 8000776:	d105      	bne.n	8000784 <__aeabi_dmul+0x234>
 8000778:	ea52 3603 	orrs.w	r6, r2, r3, lsl #12
 800077c:	bf1c      	itt	ne
 800077e:	4610      	movne	r0, r2
 8000780:	4619      	movne	r1, r3
 8000782:	d10a      	bne.n	800079a <__aeabi_dmul+0x24a>
 8000784:	ea81 0103 	eor.w	r1, r1, r3
 8000788:	f001 4100 	and.w	r1, r1, #2147483648	; 0x80000000
 800078c:	f041 41fe 	orr.w	r1, r1, #2130706432	; 0x7f000000
 8000790:	f441 0170 	orr.w	r1, r1, #15728640	; 0xf00000
 8000794:	f04f 0000 	mov.w	r0, #0
 8000798:	bd70      	pop	{r4, r5, r6, pc}
 800079a:	f041 41fe 	orr.w	r1, r1, #2130706432	; 0x7f000000
 800079e:	f441 0178 	orr.w	r1, r1, #16252928	; 0xf80000
 80007a2:	bd70      	pop	{r4, r5, r6, pc}

080007a4 <__aeabi_ddiv>:
 80007a4:	b570      	push	{r4, r5, r6, lr}
 80007a6:	f04f 0cff 	mov.w	ip, #255	; 0xff
 80007aa:	f44c 6ce0 	orr.w	ip, ip, #1792	; 0x700
 80007ae:	ea1c 5411 	ands.w	r4, ip, r1, lsr #20
 80007b2:	bf1d      	ittte	ne
 80007b4:	ea1c 5513 	andsne.w	r5, ip, r3, lsr #20
 80007b8:	ea94 0f0c 	teqne	r4, ip
 80007bc:	ea95 0f0c 	teqne	r5, ip
 80007c0:	f000 f8a7 	bleq	8000912 <__aeabi_ddiv+0x16e>
 80007c4:	eba4 0405 	sub.w	r4, r4, r5
 80007c8:	ea81 0e03 	eor.w	lr, r1, r3
 80007cc:	ea52 3503 	orrs.w	r5, r2, r3, lsl #12
 80007d0:	ea4f 3101 	mov.w	r1, r1, lsl #12
 80007d4:	f000 8088 	beq.w	80008e8 <__aeabi_ddiv+0x144>
 80007d8:	ea4f 3303 	mov.w	r3, r3, lsl #12
 80007dc:	f04f 5580 	mov.w	r5, #268435456	; 0x10000000
 80007e0:	ea45 1313 	orr.w	r3, r5, r3, lsr #4
 80007e4:	ea43 6312 	orr.w	r3, r3, r2, lsr #24
 80007e8:	ea4f 2202 	mov.w	r2, r2, lsl #8
 80007ec:	ea45 1511 	orr.w	r5, r5, r1, lsr #4
 80007f0:	ea45 6510 	orr.w	r5, r5, r0, lsr #24
 80007f4:	ea4f 2600 	mov.w	r6, r0, lsl #8
 80007f8:	f00e 4100 	and.w	r1, lr, #2147483648	; 0x80000000
 80007fc:	429d      	cmp	r5, r3
 80007fe:	bf08      	it	eq
 8000800:	4296      	cmpeq	r6, r2
 8000802:	f144 04fd 	adc.w	r4, r4, #253	; 0xfd
 8000806:	f504 7440 	add.w	r4, r4, #768	; 0x300
 800080a:	d202      	bcs.n	8000812 <__aeabi_ddiv+0x6e>
 800080c:	085b      	lsrs	r3, r3, #1
 800080e:	ea4f 0232 	mov.w	r2, r2, rrx
 8000812:	1ab6      	subs	r6, r6, r2
 8000814:	eb65 0503 	sbc.w	r5, r5, r3
 8000818:	085b      	lsrs	r3, r3, #1
 800081a:	ea4f 0232 	mov.w	r2, r2, rrx
 800081e:	f44f 1080 	mov.w	r0, #1048576	; 0x100000
 8000822:	f44f 2c00 	mov.w	ip, #524288	; 0x80000
 8000826:	ebb6 0e02 	subs.w	lr, r6, r2
 800082a:	eb75 0e03 	sbcs.w	lr, r5, r3
 800082e:	bf22      	ittt	cs
 8000830:	1ab6      	subcs	r6, r6, r2
 8000832:	4675      	movcs	r5, lr
 8000834:	ea40 000c 	orrcs.w	r0, r0, ip
 8000838:	085b      	lsrs	r3, r3, #1
 800083a:	ea4f 0232 	mov.w	r2, r2, rrx
 800083e:	ebb6 0e02 	subs.w	lr, r6, r2
 8000842:	eb75 0e03 	sbcs.w	lr, r5, r3
 8000846:	bf22      	ittt	cs
 8000848:	1ab6      	subcs	r6, r6, r2
 800084a:	4675      	movcs	r5, lr
 800084c:	ea40 005c 	orrcs.w	r0, r0, ip, lsr #1
 8000850:	085b      	lsrs	r3, r3, #1
 8000852:	ea4f 0232 	mov.w	r2, r2, rrx
 8000856:	ebb6 0e02 	subs.w	lr, r6, r2
 800085a:	eb75 0e03 	sbcs.w	lr, r5, r3
 800085e:	bf22      	ittt	cs
 8000860:	1ab6      	subcs	r6, r6, r2
 8000862:	4675      	movcs	r5, lr
 8000864:	ea40 009c 	orrcs.w	r0, r0, ip, lsr #2
 8000868:	085b      	lsrs	r3, r3, #1
 800086a:	ea4f 0232 	mov.w	r2, r2, rrx
 800086e:	ebb6 0e02 	subs.w	lr, r6, r2
 8000872:	eb75 0e03 	sbcs.w	lr, r5, r3
 8000876:	bf22      	ittt	cs
 8000878:	1ab6      	subcs	r6, r6, r2
 800087a:	4675      	movcs	r5, lr
 800087c:	ea40 00dc 	orrcs.w	r0, r0, ip, lsr #3
 8000880:	ea55 0e06 	orrs.w	lr, r5, r6
 8000884:	d018      	beq.n	80008b8 <__aeabi_ddiv+0x114>
 8000886:	ea4f 1505 	mov.w	r5, r5, lsl #4
 800088a:	ea45 7516 	orr.w	r5, r5, r6, lsr #28
 800088e:	ea4f 1606 	mov.w	r6, r6, lsl #4
 8000892:	ea4f 03c3 	mov.w	r3, r3, lsl #3
 8000896:	ea43 7352 	orr.w	r3, r3, r2, lsr #29
 800089a:	ea4f 02c2 	mov.w	r2, r2, lsl #3
 800089e:	ea5f 1c1c 	movs.w	ip, ip, lsr #4
 80008a2:	d1c0      	bne.n	8000826 <__aeabi_ddiv+0x82>
 80008a4:	f411 1f80 	tst.w	r1, #1048576	; 0x100000
 80008a8:	d10b      	bne.n	80008c2 <__aeabi_ddiv+0x11e>
 80008aa:	ea41 0100 	orr.w	r1, r1, r0
 80008ae:	f04f 0000 	mov.w	r0, #0
 80008b2:	f04f 4c00 	mov.w	ip, #2147483648	; 0x80000000
 80008b6:	e7b6      	b.n	8000826 <__aeabi_ddiv+0x82>
 80008b8:	f411 1f80 	tst.w	r1, #1048576	; 0x100000
 80008bc:	bf04      	itt	eq
 80008be:	4301      	orreq	r1, r0
 80008c0:	2000      	moveq	r0, #0
 80008c2:	f1b4 0cfd 	subs.w	ip, r4, #253	; 0xfd
 80008c6:	bf88      	it	hi
 80008c8:	f5bc 6fe0 	cmphi.w	ip, #1792	; 0x700
 80008cc:	f63f aeaf 	bhi.w	800062e <__aeabi_dmul+0xde>
 80008d0:	ebb5 0c03 	subs.w	ip, r5, r3
 80008d4:	bf04      	itt	eq
 80008d6:	ebb6 0c02 	subseq.w	ip, r6, r2
 80008da:	ea5f 0c50 	movseq.w	ip, r0, lsr #1
 80008de:	f150 0000 	adcs.w	r0, r0, #0
 80008e2:	eb41 5104 	adc.w	r1, r1, r4, lsl #20
 80008e6:	bd70      	pop	{r4, r5, r6, pc}
 80008e8:	f00e 4e00 	and.w	lr, lr, #2147483648	; 0x80000000
 80008ec:	ea4e 3111 	orr.w	r1, lr, r1, lsr #12
 80008f0:	eb14 045c 	adds.w	r4, r4, ip, lsr #1
 80008f4:	bfc2      	ittt	gt
 80008f6:	ebd4 050c 	rsbsgt	r5, r4, ip
 80008fa:	ea41 5104 	orrgt.w	r1, r1, r4, lsl #20
 80008fe:	bd70      	popgt	{r4, r5, r6, pc}
 8000900:	f441 1180 	orr.w	r1, r1, #1048576	; 0x100000
 8000904:	f04f 0e00 	mov.w	lr, #0
 8000908:	3c01      	subs	r4, #1
 800090a:	e690      	b.n	800062e <__aeabi_dmul+0xde>
 800090c:	ea45 0e06 	orr.w	lr, r5, r6
 8000910:	e68d      	b.n	800062e <__aeabi_dmul+0xde>
 8000912:	ea0c 5513 	and.w	r5, ip, r3, lsr #20
 8000916:	ea94 0f0c 	teq	r4, ip
 800091a:	bf08      	it	eq
 800091c:	ea95 0f0c 	teqeq	r5, ip
 8000920:	f43f af3b 	beq.w	800079a <__aeabi_dmul+0x24a>
 8000924:	ea94 0f0c 	teq	r4, ip
 8000928:	d10a      	bne.n	8000940 <__aeabi_ddiv+0x19c>
 800092a:	ea50 3401 	orrs.w	r4, r0, r1, lsl #12
 800092e:	f47f af34 	bne.w	800079a <__aeabi_dmul+0x24a>
 8000932:	ea95 0f0c 	teq	r5, ip
 8000936:	f47f af25 	bne.w	8000784 <__aeabi_dmul+0x234>
 800093a:	4610      	mov	r0, r2
 800093c:	4619      	mov	r1, r3
 800093e:	e72c      	b.n	800079a <__aeabi_dmul+0x24a>
 8000940:	ea95 0f0c 	teq	r5, ip
 8000944:	d106      	bne.n	8000954 <__aeabi_ddiv+0x1b0>
 8000946:	ea52 3503 	orrs.w	r5, r2, r3, lsl #12
 800094a:	f43f aefd 	beq.w	8000748 <__aeabi_dmul+0x1f8>
 800094e:	4610      	mov	r0, r2
 8000950:	4619      	mov	r1, r3
 8000952:	e722      	b.n	800079a <__aeabi_dmul+0x24a>
 8000954:	ea50 0641 	orrs.w	r6, r0, r1, lsl #1
 8000958:	bf18      	it	ne
 800095a:	ea52 0643 	orrsne.w	r6, r2, r3, lsl #1
 800095e:	f47f aec5 	bne.w	80006ec <__aeabi_dmul+0x19c>
 8000962:	ea50 0441 	orrs.w	r4, r0, r1, lsl #1
 8000966:	f47f af0d 	bne.w	8000784 <__aeabi_dmul+0x234>
 800096a:	ea52 0543 	orrs.w	r5, r2, r3, lsl #1
 800096e:	f47f aeeb 	bne.w	8000748 <__aeabi_dmul+0x1f8>
 8000972:	e712      	b.n	800079a <__aeabi_dmul+0x24a>

08000974 <__aeabi_d2f>:
 8000974:	ea4f 0241 	mov.w	r2, r1, lsl #1
 8000978:	f1b2 43e0 	subs.w	r3, r2, #1879048192	; 0x70000000
 800097c:	bf24      	itt	cs
 800097e:	f5b3 1c00 	subscs.w	ip, r3, #2097152	; 0x200000
 8000982:	f1dc 5cfe 	rsbscs	ip, ip, #532676608	; 0x1fc00000
 8000986:	d90d      	bls.n	80009a4 <__aeabi_d2f+0x30>
 8000988:	f001 4c00 	and.w	ip, r1, #2147483648	; 0x80000000
 800098c:	ea4f 02c0 	mov.w	r2, r0, lsl #3
 8000990:	ea4c 7050 	orr.w	r0, ip, r0, lsr #29
 8000994:	f1b2 4f00 	cmp.w	r2, #2147483648	; 0x80000000
 8000998:	eb40 0083 	adc.w	r0, r0, r3, lsl #2
 800099c:	bf08      	it	eq
 800099e:	f020 0001 	biceq.w	r0, r0, #1
 80009a2:	4770      	bx	lr
 80009a4:	f011 4f80 	tst.w	r1, #1073741824	; 0x40000000
 80009a8:	d121      	bne.n	80009ee <__aeabi_d2f+0x7a>
 80009aa:	f113 7238 	adds.w	r2, r3, #48234496	; 0x2e00000
 80009ae:	bfbc      	itt	lt
 80009b0:	f001 4000 	andlt.w	r0, r1, #2147483648	; 0x80000000
 80009b4:	4770      	bxlt	lr
 80009b6:	f441 1180 	orr.w	r1, r1, #1048576	; 0x100000
 80009ba:	ea4f 5252 	mov.w	r2, r2, lsr #21
 80009be:	f1c2 0218 	rsb	r2, r2, #24
 80009c2:	f1c2 0c20 	rsb	ip, r2, #32
 80009c6:	fa10 f30c 	lsls.w	r3, r0, ip
 80009ca:	fa20 f002 	lsr.w	r0, r0, r2
 80009ce:	bf18      	it	ne
 80009d0:	f040 0001 	orrne.w	r0, r0, #1
 80009d4:	ea4f 23c1 	mov.w	r3, r1, lsl #11
 80009d8:	ea4f 23d3 	mov.w	r3, r3, lsr #11
 80009dc:	fa03 fc0c 	lsl.w	ip, r3, ip
 80009e0:	ea40 000c 	orr.w	r0, r0, ip
 80009e4:	fa23 f302 	lsr.w	r3, r3, r2
 80009e8:	ea4f 0343 	mov.w	r3, r3, lsl #1
 80009ec:	e7cc      	b.n	8000988 <__aeabi_d2f+0x14>
 80009ee:	ea7f 5362 	mvns.w	r3, r2, asr #21
 80009f2:	d107      	bne.n	8000a04 <__aeabi_d2f+0x90>
 80009f4:	ea50 3301 	orrs.w	r3, r0, r1, lsl #12
 80009f8:	bf1e      	ittt	ne
 80009fa:	f04f 40fe 	movne.w	r0, #2130706432	; 0x7f000000
 80009fe:	f440 0040 	orrne.w	r0, r0, #12582912	; 0xc00000
 8000a02:	4770      	bxne	lr
 8000a04:	f001 4000 	and.w	r0, r1, #2147483648	; 0x80000000
 8000a08:	f040 40fe 	orr.w	r0, r0, #2130706432	; 0x7f000000
 8000a0c:	f440 0000 	orr.w	r0, r0, #8388608	; 0x800000
 8000a10:	4770      	bx	lr
 8000a12:	bf00      	nop

08000a14 <__aeabi_uldivmod>:
 8000a14:	b953      	cbnz	r3, 8000a2c <__aeabi_uldivmod+0x18>
 8000a16:	b94a      	cbnz	r2, 8000a2c <__aeabi_uldivmod+0x18>
 8000a18:	2900      	cmp	r1, #0
 8000a1a:	bf08      	it	eq
 8000a1c:	2800      	cmpeq	r0, #0
 8000a1e:	bf1c      	itt	ne
 8000a20:	f04f 31ff 	movne.w	r1, #4294967295
 8000a24:	f04f 30ff 	movne.w	r0, #4294967295
 8000a28:	f000 b96e 	b.w	8000d08 <__aeabi_idiv0>
 8000a2c:	f1ad 0c08 	sub.w	ip, sp, #8
 8000a30:	e96d ce04 	strd	ip, lr, [sp, #-16]!
 8000a34:	f000 f806 	bl	8000a44 <__udivmoddi4>
 8000a38:	f8dd e004 	ldr.w	lr, [sp, #4]
 8000a3c:	e9dd 2302 	ldrd	r2, r3, [sp, #8]
 8000a40:	b004      	add	sp, #16
 8000a42:	4770      	bx	lr

08000a44 <__udivmoddi4>:
 8000a44:	e92d 47f0 	stmdb	sp!, {r4, r5, r6, r7, r8, r9, sl, lr}
 8000a48:	9d08      	ldr	r5, [sp, #32]
 8000a4a:	4604      	mov	r4, r0
 8000a4c:	468c      	mov	ip, r1
 8000a4e:	2b00      	cmp	r3, #0
 8000a50:	f040 8083 	bne.w	8000b5a <__udivmoddi4+0x116>
 8000a54:	428a      	cmp	r2, r1
 8000a56:	4617      	mov	r7, r2
 8000a58:	d947      	bls.n	8000aea <__udivmoddi4+0xa6>
 8000a5a:	fab2 f282 	clz	r2, r2
 8000a5e:	b142      	cbz	r2, 8000a72 <__udivmoddi4+0x2e>
 8000a60:	f1c2 0020 	rsb	r0, r2, #32
 8000a64:	fa24 f000 	lsr.w	r0, r4, r0
 8000a68:	4091      	lsls	r1, r2
 8000a6a:	4097      	lsls	r7, r2
 8000a6c:	ea40 0c01 	orr.w	ip, r0, r1
 8000a70:	4094      	lsls	r4, r2
 8000a72:	ea4f 4817 	mov.w	r8, r7, lsr #16
 8000a76:	0c23      	lsrs	r3, r4, #16
 8000a78:	fbbc f6f8 	udiv	r6, ip, r8
 8000a7c:	fa1f fe87 	uxth.w	lr, r7
 8000a80:	fb08 c116 	mls	r1, r8, r6, ip
 8000a84:	ea43 4301 	orr.w	r3, r3, r1, lsl #16
 8000a88:	fb06 f10e 	mul.w	r1, r6, lr
 8000a8c:	4299      	cmp	r1, r3
 8000a8e:	d909      	bls.n	8000aa4 <__udivmoddi4+0x60>
 8000a90:	18fb      	adds	r3, r7, r3
 8000a92:	f106 30ff 	add.w	r0, r6, #4294967295
 8000a96:	f080 8119 	bcs.w	8000ccc <__udivmoddi4+0x288>
 8000a9a:	4299      	cmp	r1, r3
 8000a9c:	f240 8116 	bls.w	8000ccc <__udivmoddi4+0x288>
 8000aa0:	3e02      	subs	r6, #2
 8000aa2:	443b      	add	r3, r7
 8000aa4:	1a5b      	subs	r3, r3, r1
 8000aa6:	b2a4      	uxth	r4, r4
 8000aa8:	fbb3 f0f8 	udiv	r0, r3, r8
 8000aac:	fb08 3310 	mls	r3, r8, r0, r3
 8000ab0:	ea44 4403 	orr.w	r4, r4, r3, lsl #16
 8000ab4:	fb00 fe0e 	mul.w	lr, r0, lr
 8000ab8:	45a6      	cmp	lr, r4
 8000aba:	d909      	bls.n	8000ad0 <__udivmoddi4+0x8c>
 8000abc:	193c      	adds	r4, r7, r4
 8000abe:	f100 33ff 	add.w	r3, r0, #4294967295
 8000ac2:	f080 8105 	bcs.w	8000cd0 <__udivmoddi4+0x28c>
 8000ac6:	45a6      	cmp	lr, r4
 8000ac8:	f240 8102 	bls.w	8000cd0 <__udivmoddi4+0x28c>
 8000acc:	3802      	subs	r0, #2
 8000ace:	443c      	add	r4, r7
 8000ad0:	ea40 4006 	orr.w	r0, r0, r6, lsl #16
 8000ad4:	eba4 040e 	sub.w	r4, r4, lr
 8000ad8:	2600      	movs	r6, #0
 8000ada:	b11d      	cbz	r5, 8000ae4 <__udivmoddi4+0xa0>
 8000adc:	40d4      	lsrs	r4, r2
 8000ade:	2300      	movs	r3, #0
 8000ae0:	e9c5 4300 	strd	r4, r3, [r5]
 8000ae4:	4631      	mov	r1, r6
 8000ae6:	e8bd 87f0 	ldmia.w	sp!, {r4, r5, r6, r7, r8, r9, sl, pc}
 8000aea:	b902      	cbnz	r2, 8000aee <__udivmoddi4+0xaa>
 8000aec:	deff      	udf	#255	; 0xff
 8000aee:	fab2 f282 	clz	r2, r2
 8000af2:	2a00      	cmp	r2, #0
 8000af4:	d150      	bne.n	8000b98 <__udivmoddi4+0x154>
 8000af6:	1bcb      	subs	r3, r1, r7
 8000af8:	ea4f 4e17 	mov.w	lr, r7, lsr #16
 8000afc:	fa1f f887 	uxth.w	r8, r7
 8000b00:	2601      	movs	r6, #1
 8000b02:	fbb3 fcfe 	udiv	ip, r3, lr
 8000b06:	0c21      	lsrs	r1, r4, #16
 8000b08:	fb0e 331c 	mls	r3, lr, ip, r3
 8000b0c:	ea41 4103 	orr.w	r1, r1, r3, lsl #16
 8000b10:	fb08 f30c 	mul.w	r3, r8, ip
 8000b14:	428b      	cmp	r3, r1
 8000b16:	d907      	bls.n	8000b28 <__udivmoddi4+0xe4>
 8000b18:	1879      	adds	r1, r7, r1
 8000b1a:	f10c 30ff 	add.w	r0, ip, #4294967295
 8000b1e:	d202      	bcs.n	8000b26 <__udivmoddi4+0xe2>
 8000b20:	428b      	cmp	r3, r1
 8000b22:	f200 80e9 	bhi.w	8000cf8 <__udivmoddi4+0x2b4>
 8000b26:	4684      	mov	ip, r0
 8000b28:	1ac9      	subs	r1, r1, r3
 8000b2a:	b2a3      	uxth	r3, r4
 8000b2c:	fbb1 f0fe 	udiv	r0, r1, lr
 8000b30:	fb0e 1110 	mls	r1, lr, r0, r1
 8000b34:	ea43 4401 	orr.w	r4, r3, r1, lsl #16
 8000b38:	fb08 f800 	mul.w	r8, r8, r0
 8000b3c:	45a0      	cmp	r8, r4
 8000b3e:	d907      	bls.n	8000b50 <__udivmoddi4+0x10c>
 8000b40:	193c      	adds	r4, r7, r4
 8000b42:	f100 33ff 	add.w	r3, r0, #4294967295
 8000b46:	d202      	bcs.n	8000b4e <__udivmoddi4+0x10a>
 8000b48:	45a0      	cmp	r8, r4
 8000b4a:	f200 80d9 	bhi.w	8000d00 <__udivmoddi4+0x2bc>
 8000b4e:	4618      	mov	r0, r3
 8000b50:	eba4 0408 	sub.w	r4, r4, r8
 8000b54:	ea40 400c 	orr.w	r0, r0, ip, lsl #16
 8000b58:	e7bf      	b.n	8000ada <__udivmoddi4+0x96>
 8000b5a:	428b      	cmp	r3, r1
 8000b5c:	d909      	bls.n	8000b72 <__udivmoddi4+0x12e>
 8000b5e:	2d00      	cmp	r5, #0
 8000b60:	f000 80b1 	beq.w	8000cc6 <__udivmoddi4+0x282>
 8000b64:	2600      	movs	r6, #0
 8000b66:	e9c5 0100 	strd	r0, r1, [r5]
 8000b6a:	4630      	mov	r0, r6
 8000b6c:	4631      	mov	r1, r6
 8000b6e:	e8bd 87f0 	ldmia.w	sp!, {r4, r5, r6, r7, r8, r9, sl, pc}
 8000b72:	fab3 f683 	clz	r6, r3
 8000b76:	2e00      	cmp	r6, #0
 8000b78:	d14a      	bne.n	8000c10 <__udivmoddi4+0x1cc>
 8000b7a:	428b      	cmp	r3, r1
 8000b7c:	d302      	bcc.n	8000b84 <__udivmoddi4+0x140>
 8000b7e:	4282      	cmp	r2, r0
 8000b80:	f200 80b8 	bhi.w	8000cf4 <__udivmoddi4+0x2b0>
 8000b84:	1a84      	subs	r4, r0, r2
 8000b86:	eb61 0103 	sbc.w	r1, r1, r3
 8000b8a:	2001      	movs	r0, #1
 8000b8c:	468c      	mov	ip, r1
 8000b8e:	2d00      	cmp	r5, #0
 8000b90:	d0a8      	beq.n	8000ae4 <__udivmoddi4+0xa0>
 8000b92:	e9c5 4c00 	strd	r4, ip, [r5]
 8000b96:	e7a5      	b.n	8000ae4 <__udivmoddi4+0xa0>
 8000b98:	f1c2 0320 	rsb	r3, r2, #32
 8000b9c:	fa20 f603 	lsr.w	r6, r0, r3
 8000ba0:	4097      	lsls	r7, r2
 8000ba2:	fa01 f002 	lsl.w	r0, r1, r2
 8000ba6:	ea4f 4e17 	mov.w	lr, r7, lsr #16
 8000baa:	40d9      	lsrs	r1, r3
 8000bac:	4330      	orrs	r0, r6
 8000bae:	0c03      	lsrs	r3, r0, #16
 8000bb0:	fbb1 f6fe 	udiv	r6, r1, lr
 8000bb4:	fa1f f887 	uxth.w	r8, r7
 8000bb8:	fb0e 1116 	mls	r1, lr, r6, r1
 8000bbc:	ea43 4301 	orr.w	r3, r3, r1, lsl #16
 8000bc0:	fb06 f108 	mul.w	r1, r6, r8
 8000bc4:	4299      	cmp	r1, r3
 8000bc6:	fa04 f402 	lsl.w	r4, r4, r2
 8000bca:	d909      	bls.n	8000be0 <__udivmoddi4+0x19c>
 8000bcc:	18fb      	adds	r3, r7, r3
 8000bce:	f106 3cff 	add.w	ip, r6, #4294967295
 8000bd2:	f080 808d 	bcs.w	8000cf0 <__udivmoddi4+0x2ac>
 8000bd6:	4299      	cmp	r1, r3
 8000bd8:	f240 808a 	bls.w	8000cf0 <__udivmoddi4+0x2ac>
 8000bdc:	3e02      	subs	r6, #2
 8000bde:	443b      	add	r3, r7
 8000be0:	1a5b      	subs	r3, r3, r1
 8000be2:	b281      	uxth	r1, r0
 8000be4:	fbb3 f0fe 	udiv	r0, r3, lr
 8000be8:	fb0e 3310 	mls	r3, lr, r0, r3
 8000bec:	ea41 4103 	orr.w	r1, r1, r3, lsl #16
 8000bf0:	fb00 f308 	mul.w	r3, r0, r8
 8000bf4:	428b      	cmp	r3, r1
 8000bf6:	d907      	bls.n	8000c08 <__udivmoddi4+0x1c4>
 8000bf8:	1879      	adds	r1, r7, r1
 8000bfa:	f100 3cff 	add.w	ip, r0, #4294967295
 8000bfe:	d273      	bcs.n	8000ce8 <__udivmoddi4+0x2a4>
 8000c00:	428b      	cmp	r3, r1
 8000c02:	d971      	bls.n	8000ce8 <__udivmoddi4+0x2a4>
 8000c04:	3802      	subs	r0, #2
 8000c06:	4439      	add	r1, r7
 8000c08:	1acb      	subs	r3, r1, r3
 8000c0a:	ea40 4606 	orr.w	r6, r0, r6, lsl #16
 8000c0e:	e778      	b.n	8000b02 <__udivmoddi4+0xbe>
 8000c10:	f1c6 0c20 	rsb	ip, r6, #32
 8000c14:	fa03 f406 	lsl.w	r4, r3, r6
 8000c18:	fa22 f30c 	lsr.w	r3, r2, ip
 8000c1c:	431c      	orrs	r4, r3
 8000c1e:	fa20 f70c 	lsr.w	r7, r0, ip
 8000c22:	fa01 f306 	lsl.w	r3, r1, r6
 8000c26:	ea4f 4e14 	mov.w	lr, r4, lsr #16
 8000c2a:	fa21 f10c 	lsr.w	r1, r1, ip
 8000c2e:	431f      	orrs	r7, r3
 8000c30:	0c3b      	lsrs	r3, r7, #16
 8000c32:	fbb1 f9fe 	udiv	r9, r1, lr
 8000c36:	fa1f f884 	uxth.w	r8, r4
 8000c3a:	fb0e 1119 	mls	r1, lr, r9, r1
 8000c3e:	ea43 4101 	orr.w	r1, r3, r1, lsl #16
 8000c42:	fb09 fa08 	mul.w	sl, r9, r8
 8000c46:	458a      	cmp	sl, r1
 8000c48:	fa02 f206 	lsl.w	r2, r2, r6
 8000c4c:	fa00 f306 	lsl.w	r3, r0, r6
 8000c50:	d908      	bls.n	8000c64 <__udivmoddi4+0x220>
 8000c52:	1861      	adds	r1, r4, r1
 8000c54:	f109 30ff 	add.w	r0, r9, #4294967295
 8000c58:	d248      	bcs.n	8000cec <__udivmoddi4+0x2a8>
 8000c5a:	458a      	cmp	sl, r1
 8000c5c:	d946      	bls.n	8000cec <__udivmoddi4+0x2a8>
 8000c5e:	f1a9 0902 	sub.w	r9, r9, #2
 8000c62:	4421      	add	r1, r4
 8000c64:	eba1 010a 	sub.w	r1, r1, sl
 8000c68:	b2bf      	uxth	r7, r7
 8000c6a:	fbb1 f0fe 	udiv	r0, r1, lr
 8000c6e:	fb0e 1110 	mls	r1, lr, r0, r1
 8000c72:	ea47 4701 	orr.w	r7, r7, r1, lsl #16
 8000c76:	fb00 f808 	mul.w	r8, r0, r8
 8000c7a:	45b8      	cmp	r8, r7
 8000c7c:	d907      	bls.n	8000c8e <__udivmoddi4+0x24a>
 8000c7e:	19e7      	adds	r7, r4, r7
 8000c80:	f100 31ff 	add.w	r1, r0, #4294967295
 8000c84:	d22e      	bcs.n	8000ce4 <__udivmoddi4+0x2a0>
 8000c86:	45b8      	cmp	r8, r7
 8000c88:	d92c      	bls.n	8000ce4 <__udivmoddi4+0x2a0>
 8000c8a:	3802      	subs	r0, #2
 8000c8c:	4427      	add	r7, r4
 8000c8e:	ea40 4009 	orr.w	r0, r0, r9, lsl #16
 8000c92:	eba7 0708 	sub.w	r7, r7, r8
 8000c96:	fba0 8902 	umull	r8, r9, r0, r2
 8000c9a:	454f      	cmp	r7, r9
 8000c9c:	46c6      	mov	lr, r8
 8000c9e:	4649      	mov	r1, r9
 8000ca0:	d31a      	bcc.n	8000cd8 <__udivmoddi4+0x294>
 8000ca2:	d017      	beq.n	8000cd4 <__udivmoddi4+0x290>
 8000ca4:	b15d      	cbz	r5, 8000cbe <__udivmoddi4+0x27a>
 8000ca6:	ebb3 020e 	subs.w	r2, r3, lr
 8000caa:	eb67 0701 	sbc.w	r7, r7, r1
 8000cae:	fa07 fc0c 	lsl.w	ip, r7, ip
 8000cb2:	40f2      	lsrs	r2, r6
 8000cb4:	ea4c 0202 	orr.w	r2, ip, r2
 8000cb8:	40f7      	lsrs	r7, r6
 8000cba:	e9c5 2700 	strd	r2, r7, [r5]
 8000cbe:	2600      	movs	r6, #0
 8000cc0:	4631      	mov	r1, r6
 8000cc2:	e8bd 87f0 	ldmia.w	sp!, {r4, r5, r6, r7, r8, r9, sl, pc}
 8000cc6:	462e      	mov	r6, r5
 8000cc8:	4628      	mov	r0, r5
 8000cca:	e70b      	b.n	8000ae4 <__udivmoddi4+0xa0>
 8000ccc:	4606      	mov	r6, r0
 8000cce:	e6e9      	b.n	8000aa4 <__udivmoddi4+0x60>
 8000cd0:	4618      	mov	r0, r3
 8000cd2:	e6fd      	b.n	8000ad0 <__udivmoddi4+0x8c>
 8000cd4:	4543      	cmp	r3, r8
 8000cd6:	d2e5      	bcs.n	8000ca4 <__udivmoddi4+0x260>
 8000cd8:	ebb8 0e02 	subs.w	lr, r8, r2
 8000cdc:	eb69 0104 	sbc.w	r1, r9, r4
 8000ce0:	3801      	subs	r0, #1
 8000ce2:	e7df      	b.n	8000ca4 <__udivmoddi4+0x260>
 8000ce4:	4608      	mov	r0, r1
 8000ce6:	e7d2      	b.n	8000c8e <__udivmoddi4+0x24a>
 8000ce8:	4660      	mov	r0, ip
 8000cea:	e78d      	b.n	8000c08 <__udivmoddi4+0x1c4>
 8000cec:	4681      	mov	r9, r0
 8000cee:	e7b9      	b.n	8000c64 <__udivmoddi4+0x220>
 8000cf0:	4666      	mov	r6, ip
 8000cf2:	e775      	b.n	8000be0 <__udivmoddi4+0x19c>
 8000cf4:	4630      	mov	r0, r6
 8000cf6:	e74a      	b.n	8000b8e <__udivmoddi4+0x14a>
 8000cf8:	f1ac 0c02 	sub.w	ip, ip, #2
 8000cfc:	4439      	add	r1, r7
 8000cfe:	e713      	b.n	8000b28 <__udivmoddi4+0xe4>
 8000d00:	3802      	subs	r0, #2
 8000d02:	443c      	add	r4, r7
 8000d04:	e724      	b.n	8000b50 <__udivmoddi4+0x10c>
 8000d06:	bf00      	nop

08000d08 <__aeabi_idiv0>:
 8000d08:	4770      	bx	lr
 8000d0a:	bf00      	nop

08000d0c <main>:
/**
  * @brief  The application entry point.
  * @retval int
  */
int main(void)
{
 8000d0c:	e92d 43b0 	stmdb	sp!, {r4, r5, r7, r8, r9, lr}
 8000d10:	af00      	add	r7, sp, #0
  /* USER CODE END 1 */

  /* MCU Configuration--------------------------------------------------------*/

  /* Reset of all peripherals, Initializes the Flash interface and the Systick. */
  HAL_Init();
 8000d12:	f000 fe9d 	bl	8001a50 <HAL_Init>
  /* USER CODE BEGIN Init */

  /* USER CODE END Init */

  /* Configure the system clock */
  SystemClock_Config();
 8000d16:	f000 f87b 	bl	8000e10 <SystemClock_Config>
  /* USER CODE BEGIN SysInit */

  /* USER CODE END SysInit */

  /* Initialize all configured peripherals */
  MX_GPIO_Init();
 8000d1a:	f000 fa63 	bl	80011e4 <MX_GPIO_Init>
  MX_USART2_UART_Init();
 8000d1e:	f000 fa17 	bl	8001150 <MX_USART2_UART_Init>
  MX_TIM2_Init();
 8000d22:	f000 f90b 	bl	8000f3c <MX_TIM2_Init>
  MX_TIM4_Init();
 8000d26:	f000 f979 	bl	800101c <MX_TIM4_Init>
  MX_TIM11_Init();
 8000d2a:	f000 f9ed 	bl	8001108 <MX_TIM11_Init>
  MX_DMA_Init();
 8000d2e:	f000 fa39 	bl	80011a4 <MX_DMA_Init>
  MX_I2C1_Init();
 8000d32:	f000 f8d5 	bl	8000ee0 <MX_I2C1_Init>
  /* USER CODE BEGIN 2 */
  	HAL_TIM_Base_Start_IT(&htim11); // micro timer
 8000d36:	482c      	ldr	r0, [pc, #176]	; (8000de8 <main+0xdc>)
 8000d38:	f004 ff1e 	bl	8005b78 <HAL_TIM_Base_Start_IT>
    HAL_TIM_Base_Start(&htim2); // Speed
 8000d3c:	482b      	ldr	r0, [pc, #172]	; (8000dec <main+0xe0>)
 8000d3e:	f004 fec1 	bl	8005ac4 <HAL_TIM_Base_Start>
    HAL_TIM_IC_Start_DMA(&htim2, TIM_CHANNEL_1, (uint32_t*) &capturedata,
 8000d42:	2310      	movs	r3, #16
 8000d44:	4a2a      	ldr	r2, [pc, #168]	; (8000df0 <main+0xe4>)
 8000d46:	2100      	movs	r1, #0
 8000d48:	4828      	ldr	r0, [pc, #160]	; (8000dec <main+0xe0>)
 8000d4a:	f005 f8db 	bl	8005f04 <HAL_TIM_IC_Start_DMA>
    			CAPTURENUM);

    //PWM Test
    HAL_TIM_Base_Start(&htim4);
 8000d4e:	4829      	ldr	r0, [pc, #164]	; (8000df4 <main+0xe8>)
 8000d50:	f004 feb8 	bl	8005ac4 <HAL_TIM_Base_Start>
    HAL_TIM_PWM_Start(&htim4, TIM_CHANNEL_1);
 8000d54:	2100      	movs	r1, #0
 8000d56:	4827      	ldr	r0, [pc, #156]	; (8000df4 <main+0xe8>)
 8000d58:	f004 ffca 	bl	8005cf0 <HAL_TIM_PWM_Start>

    //MCP23017 setting init
    HAL_Delay(100);
 8000d5c:	2064      	movs	r0, #100	; 0x64
 8000d5e:	f000 fee9 	bl	8001b34 <HAL_Delay>
    IOExpenderInit();
 8000d62:	f000 fb95 	bl	8001490 <IOExpenderInit>
	  	  //HAL_GPIO_WritePin(GPIOB, GPIO_PIN_5, INHCLK); //


	  	 // time = micros();
	  	  //if(time-timeStampSR > 3)      // don't use 1
	  	  if (micros()-timeStampSR > 3000)      // don't use 1
 8000d66:	f000 fc27 	bl	80015b8 <micros>
 8000d6a:	4b23      	ldr	r3, [pc, #140]	; (8000df8 <main+0xec>)
 8000d6c:	681b      	ldr	r3, [r3, #0]
 8000d6e:	461a      	mov	r2, r3
 8000d70:	f04f 0300 	mov.w	r3, #0
 8000d74:	1a84      	subs	r4, r0, r2
 8000d76:	eb61 0503 	sbc.w	r5, r1, r3
 8000d7a:	f640 32b8 	movw	r2, #3000	; 0xbb8
 8000d7e:	f04f 0300 	mov.w	r3, #0
 8000d82:	42ab      	cmp	r3, r5
 8000d84:	bf08      	it	eq
 8000d86:	42a2      	cmpeq	r2, r4
 8000d88:	d208      	bcs.n	8000d9c <main+0x90>
	  	          {
	  	              timeStampSR = micros();           //set new time stamp
 8000d8a:	f000 fc15 	bl	80015b8 <micros>
 8000d8e:	4602      	mov	r2, r0
 8000d90:	460b      	mov	r3, r1
 8000d92:	4b19      	ldr	r3, [pc, #100]	; (8000df8 <main+0xec>)
 8000d94:	601a      	str	r2, [r3, #0]
	  	              //ParraRegisDriveAbsENC(encResbit);   // 166 x 595 Driver
	  	              //if(PRState == LATCHING){
	  	              //	BinPos = GraytoBinario(GrayCBit, encResbit);}
	  	              flag_absenc = 1;
 8000d96:	4b19      	ldr	r3, [pc, #100]	; (8000dfc <main+0xf0>)
 8000d98:	2201      	movs	r2, #1
 8000d9a:	701a      	strb	r2, [r3, #0]
	  	          }

	  	  AbsEncI2CRead(&RawEnBitA,&RawEnBitB);
 8000d9c:	4918      	ldr	r1, [pc, #96]	; (8000e00 <main+0xf4>)
 8000d9e:	4819      	ldr	r0, [pc, #100]	; (8000e04 <main+0xf8>)
 8000da0:	f000 fb8c 	bl	80014bc <AbsEncI2CRead>
	  	  encoderSpeedReaderCycle();
 8000da4:	f000 fb00 	bl	80013a8 <encoderSpeedReaderCycle>

	  	  ///////////////////// 2KHz change PWM PB6////////////////////
	  	  if(micros() - TimeLoopPWM > 500){
 8000da8:	f000 fc06 	bl	80015b8 <micros>
 8000dac:	4b16      	ldr	r3, [pc, #88]	; (8000e08 <main+0xfc>)
 8000dae:	681b      	ldr	r3, [r3, #0]
 8000db0:	461a      	mov	r2, r3
 8000db2:	f04f 0300 	mov.w	r3, #0
 8000db6:	ebb0 0802 	subs.w	r8, r0, r2
 8000dba:	eb61 0903 	sbc.w	r9, r1, r3
 8000dbe:	f44f 72fa 	mov.w	r2, #500	; 0x1f4
 8000dc2:	f04f 0300 	mov.w	r3, #0
 8000dc6:	454b      	cmp	r3, r9
 8000dc8:	bf08      	it	eq
 8000dca:	4542      	cmpeq	r2, r8
 8000dcc:	d2cb      	bcs.n	8000d66 <main+0x5a>
	  	  		  TimeLoopPWM = micros(); // stamp
 8000dce:	f000 fbf3 	bl	80015b8 <micros>
 8000dd2:	4602      	mov	r2, r0
 8000dd4:	460b      	mov	r3, r1
 8000dd6:	4b0c      	ldr	r3, [pc, #48]	; (8000e08 <main+0xfc>)
 8000dd8:	601a      	str	r2, [r3, #0]
	  	  		  __HAL_TIM_SET_COMPARE(&htim4, TIM_CHANNEL_1, PWMOut);
 8000dda:	4b0c      	ldr	r3, [pc, #48]	; (8000e0c <main+0x100>)
 8000ddc:	881a      	ldrh	r2, [r3, #0]
 8000dde:	4b05      	ldr	r3, [pc, #20]	; (8000df4 <main+0xe8>)
 8000de0:	681b      	ldr	r3, [r3, #0]
 8000de2:	635a      	str	r2, [r3, #52]	; 0x34
	  	  if (micros()-timeStampSR > 3000)      // don't use 1
 8000de4:	e7bf      	b.n	8000d66 <main+0x5a>
 8000de6:	bf00      	nop
 8000de8:	2000023c 	.word	0x2000023c
 8000dec:	20000288 	.word	0x20000288
 8000df0:	20000054 	.word	0x20000054
 8000df4:	20000188 	.word	0x20000188
 8000df8:	20000044 	.word	0x20000044
 8000dfc:	20000052 	.word	0x20000052
 8000e00:	20000049 	.word	0x20000049
 8000e04:	20000048 	.word	0x20000048
 8000e08:	20000118 	.word	0x20000118
 8000e0c:	20000000 	.word	0x20000000

08000e10 <SystemClock_Config>:
/**
  * @brief System Clock Configuration
  * @retval None
  */
void SystemClock_Config(void)
{
 8000e10:	b580      	push	{r7, lr}
 8000e12:	b094      	sub	sp, #80	; 0x50
 8000e14:	af00      	add	r7, sp, #0
  RCC_OscInitTypeDef RCC_OscInitStruct = {0};
 8000e16:	f107 0320 	add.w	r3, r7, #32
 8000e1a:	2230      	movs	r2, #48	; 0x30
 8000e1c:	2100      	movs	r1, #0
 8000e1e:	4618      	mov	r0, r3
 8000e20:	f006 fbc2 	bl	80075a8 <memset>
  RCC_ClkInitTypeDef RCC_ClkInitStruct = {0};
 8000e24:	f107 030c 	add.w	r3, r7, #12
 8000e28:	2200      	movs	r2, #0
 8000e2a:	601a      	str	r2, [r3, #0]
 8000e2c:	605a      	str	r2, [r3, #4]
 8000e2e:	609a      	str	r2, [r3, #8]
 8000e30:	60da      	str	r2, [r3, #12]
 8000e32:	611a      	str	r2, [r3, #16]

  /** Configure the main internal regulator output voltage
  */
  __HAL_RCC_PWR_CLK_ENABLE();
 8000e34:	2300      	movs	r3, #0
 8000e36:	60bb      	str	r3, [r7, #8]
 8000e38:	4b27      	ldr	r3, [pc, #156]	; (8000ed8 <SystemClock_Config+0xc8>)
 8000e3a:	6c1b      	ldr	r3, [r3, #64]	; 0x40
 8000e3c:	4a26      	ldr	r2, [pc, #152]	; (8000ed8 <SystemClock_Config+0xc8>)
 8000e3e:	f043 5380 	orr.w	r3, r3, #268435456	; 0x10000000
 8000e42:	6413      	str	r3, [r2, #64]	; 0x40
 8000e44:	4b24      	ldr	r3, [pc, #144]	; (8000ed8 <SystemClock_Config+0xc8>)
 8000e46:	6c1b      	ldr	r3, [r3, #64]	; 0x40
 8000e48:	f003 5380 	and.w	r3, r3, #268435456	; 0x10000000
 8000e4c:	60bb      	str	r3, [r7, #8]
 8000e4e:	68bb      	ldr	r3, [r7, #8]
  __HAL_PWR_VOLTAGESCALING_CONFIG(PWR_REGULATOR_VOLTAGE_SCALE1);
 8000e50:	2300      	movs	r3, #0
 8000e52:	607b      	str	r3, [r7, #4]
 8000e54:	4b21      	ldr	r3, [pc, #132]	; (8000edc <SystemClock_Config+0xcc>)
 8000e56:	681b      	ldr	r3, [r3, #0]
 8000e58:	4a20      	ldr	r2, [pc, #128]	; (8000edc <SystemClock_Config+0xcc>)
 8000e5a:	f443 4340 	orr.w	r3, r3, #49152	; 0xc000
 8000e5e:	6013      	str	r3, [r2, #0]
 8000e60:	4b1e      	ldr	r3, [pc, #120]	; (8000edc <SystemClock_Config+0xcc>)
 8000e62:	681b      	ldr	r3, [r3, #0]
 8000e64:	f403 4340 	and.w	r3, r3, #49152	; 0xc000
 8000e68:	607b      	str	r3, [r7, #4]
 8000e6a:	687b      	ldr	r3, [r7, #4]
  /** Initializes the RCC Oscillators according to the specified parameters
  * in the RCC_OscInitTypeDef structure.
  */
  RCC_OscInitStruct.OscillatorType = RCC_OSCILLATORTYPE_HSI;
 8000e6c:	2302      	movs	r3, #2
 8000e6e:	623b      	str	r3, [r7, #32]
  RCC_OscInitStruct.HSIState = RCC_HSI_ON;
 8000e70:	2301      	movs	r3, #1
 8000e72:	62fb      	str	r3, [r7, #44]	; 0x2c
  RCC_OscInitStruct.HSICalibrationValue = RCC_HSICALIBRATION_DEFAULT;
 8000e74:	2310      	movs	r3, #16
 8000e76:	633b      	str	r3, [r7, #48]	; 0x30
  RCC_OscInitStruct.PLL.PLLState = RCC_PLL_ON;
 8000e78:	2302      	movs	r3, #2
 8000e7a:	63bb      	str	r3, [r7, #56]	; 0x38
  RCC_OscInitStruct.PLL.PLLSource = RCC_PLLSOURCE_HSI;
 8000e7c:	2300      	movs	r3, #0
 8000e7e:	63fb      	str	r3, [r7, #60]	; 0x3c
  RCC_OscInitStruct.PLL.PLLM = 8;
 8000e80:	2308      	movs	r3, #8
 8000e82:	643b      	str	r3, [r7, #64]	; 0x40
  RCC_OscInitStruct.PLL.PLLN = 100;
 8000e84:	2364      	movs	r3, #100	; 0x64
 8000e86:	647b      	str	r3, [r7, #68]	; 0x44
  RCC_OscInitStruct.PLL.PLLP = RCC_PLLP_DIV2;
 8000e88:	2302      	movs	r3, #2
 8000e8a:	64bb      	str	r3, [r7, #72]	; 0x48
  RCC_OscInitStruct.PLL.PLLQ = 4;
 8000e8c:	2304      	movs	r3, #4
 8000e8e:	64fb      	str	r3, [r7, #76]	; 0x4c
  if (HAL_RCC_OscConfig(&RCC_OscInitStruct) != HAL_OK)
 8000e90:	f107 0320 	add.w	r3, r7, #32
 8000e94:	4618      	mov	r0, r3
 8000e96:	f004 f951 	bl	800513c <HAL_RCC_OscConfig>
 8000e9a:	4603      	mov	r3, r0
 8000e9c:	2b00      	cmp	r3, #0
 8000e9e:	d001      	beq.n	8000ea4 <SystemClock_Config+0x94>
  {
    Error_Handler();
 8000ea0:	f000 fba4 	bl	80015ec <Error_Handler>
  }
  /** Initializes the CPU, AHB and APB buses clocks
  */
  RCC_ClkInitStruct.ClockType = RCC_CLOCKTYPE_HCLK|RCC_CLOCKTYPE_SYSCLK
 8000ea4:	230f      	movs	r3, #15
 8000ea6:	60fb      	str	r3, [r7, #12]
                              |RCC_CLOCKTYPE_PCLK1|RCC_CLOCKTYPE_PCLK2;
  RCC_ClkInitStruct.SYSCLKSource = RCC_SYSCLKSOURCE_PLLCLK;
 8000ea8:	2302      	movs	r3, #2
 8000eaa:	613b      	str	r3, [r7, #16]
  RCC_ClkInitStruct.AHBCLKDivider = RCC_SYSCLK_DIV1;
 8000eac:	2300      	movs	r3, #0
 8000eae:	617b      	str	r3, [r7, #20]
  RCC_ClkInitStruct.APB1CLKDivider = RCC_HCLK_DIV2;
 8000eb0:	f44f 5380 	mov.w	r3, #4096	; 0x1000
 8000eb4:	61bb      	str	r3, [r7, #24]
  RCC_ClkInitStruct.APB2CLKDivider = RCC_HCLK_DIV1;
 8000eb6:	2300      	movs	r3, #0
 8000eb8:	61fb      	str	r3, [r7, #28]

  if (HAL_RCC_ClockConfig(&RCC_ClkInitStruct, FLASH_LATENCY_3) != HAL_OK)
 8000eba:	f107 030c 	add.w	r3, r7, #12
 8000ebe:	2103      	movs	r1, #3
 8000ec0:	4618      	mov	r0, r3
 8000ec2:	f004 fbb3 	bl	800562c <HAL_RCC_ClockConfig>
 8000ec6:	4603      	mov	r3, r0
 8000ec8:	2b00      	cmp	r3, #0
 8000eca:	d001      	beq.n	8000ed0 <SystemClock_Config+0xc0>
  {
    Error_Handler();
 8000ecc:	f000 fb8e 	bl	80015ec <Error_Handler>
  }
}
 8000ed0:	bf00      	nop
 8000ed2:	3750      	adds	r7, #80	; 0x50
 8000ed4:	46bd      	mov	sp, r7
 8000ed6:	bd80      	pop	{r7, pc}
 8000ed8:	40023800 	.word	0x40023800
 8000edc:	40007000 	.word	0x40007000

08000ee0 <MX_I2C1_Init>:
  * @brief I2C1 Initialization Function
  * @param None
  * @retval None
  */
static void MX_I2C1_Init(void)
{
 8000ee0:	b580      	push	{r7, lr}
 8000ee2:	af00      	add	r7, sp, #0
  /* USER CODE END I2C1_Init 0 */

  /* USER CODE BEGIN I2C1_Init 1 */

  /* USER CODE END I2C1_Init 1 */
  hi2c1.Instance = I2C1;
 8000ee4:	4b12      	ldr	r3, [pc, #72]	; (8000f30 <MX_I2C1_Init+0x50>)
 8000ee6:	4a13      	ldr	r2, [pc, #76]	; (8000f34 <MX_I2C1_Init+0x54>)
 8000ee8:	601a      	str	r2, [r3, #0]
  hi2c1.Init.ClockSpeed = 400000;
 8000eea:	4b11      	ldr	r3, [pc, #68]	; (8000f30 <MX_I2C1_Init+0x50>)
 8000eec:	4a12      	ldr	r2, [pc, #72]	; (8000f38 <MX_I2C1_Init+0x58>)
 8000eee:	605a      	str	r2, [r3, #4]
  hi2c1.Init.DutyCycle = I2C_DUTYCYCLE_2;
 8000ef0:	4b0f      	ldr	r3, [pc, #60]	; (8000f30 <MX_I2C1_Init+0x50>)
 8000ef2:	2200      	movs	r2, #0
 8000ef4:	609a      	str	r2, [r3, #8]
  hi2c1.Init.OwnAddress1 = 0;
 8000ef6:	4b0e      	ldr	r3, [pc, #56]	; (8000f30 <MX_I2C1_Init+0x50>)
 8000ef8:	2200      	movs	r2, #0
 8000efa:	60da      	str	r2, [r3, #12]
  hi2c1.Init.AddressingMode = I2C_ADDRESSINGMODE_7BIT;
 8000efc:	4b0c      	ldr	r3, [pc, #48]	; (8000f30 <MX_I2C1_Init+0x50>)
 8000efe:	f44f 4280 	mov.w	r2, #16384	; 0x4000
 8000f02:	611a      	str	r2, [r3, #16]
  hi2c1.Init.DualAddressMode = I2C_DUALADDRESS_DISABLE;
 8000f04:	4b0a      	ldr	r3, [pc, #40]	; (8000f30 <MX_I2C1_Init+0x50>)
 8000f06:	2200      	movs	r2, #0
 8000f08:	615a      	str	r2, [r3, #20]
  hi2c1.Init.OwnAddress2 = 0;
 8000f0a:	4b09      	ldr	r3, [pc, #36]	; (8000f30 <MX_I2C1_Init+0x50>)
 8000f0c:	2200      	movs	r2, #0
 8000f0e:	619a      	str	r2, [r3, #24]
  hi2c1.Init.GeneralCallMode = I2C_GENERALCALL_DISABLE;
 8000f10:	4b07      	ldr	r3, [pc, #28]	; (8000f30 <MX_I2C1_Init+0x50>)
 8000f12:	2200      	movs	r2, #0
 8000f14:	61da      	str	r2, [r3, #28]
  hi2c1.Init.NoStretchMode = I2C_NOSTRETCH_DISABLE;
 8000f16:	4b06      	ldr	r3, [pc, #24]	; (8000f30 <MX_I2C1_Init+0x50>)
 8000f18:	2200      	movs	r2, #0
 8000f1a:	621a      	str	r2, [r3, #32]
  if (HAL_I2C_Init(&hi2c1) != HAL_OK)
 8000f1c:	4804      	ldr	r0, [pc, #16]	; (8000f30 <MX_I2C1_Init+0x50>)
 8000f1e:	f001 fc7d 	bl	800281c <HAL_I2C_Init>
 8000f22:	4603      	mov	r3, r0
 8000f24:	2b00      	cmp	r3, #0
 8000f26:	d001      	beq.n	8000f2c <MX_I2C1_Init+0x4c>
  {
    Error_Handler();
 8000f28:	f000 fb60 	bl	80015ec <Error_Handler>
  }
  /* USER CODE BEGIN I2C1_Init 2 */

  /* USER CODE END I2C1_Init 2 */

}
 8000f2c:	bf00      	nop
 8000f2e:	bd80      	pop	{r7, pc}
 8000f30:	200001d4 	.word	0x200001d4
 8000f34:	40005400 	.word	0x40005400
 8000f38:	00061a80 	.word	0x00061a80

08000f3c <MX_TIM2_Init>:
  * @brief TIM2 Initialization Function
  * @param None
  * @retval None
  */
static void MX_TIM2_Init(void)
{
 8000f3c:	b580      	push	{r7, lr}
 8000f3e:	b08a      	sub	sp, #40	; 0x28
 8000f40:	af00      	add	r7, sp, #0

  /* USER CODE BEGIN TIM2_Init 0 */

  /* USER CODE END TIM2_Init 0 */

  TIM_ClockConfigTypeDef sClockSourceConfig = {0};
 8000f42:	f107 0318 	add.w	r3, r7, #24
 8000f46:	2200      	movs	r2, #0
 8000f48:	601a      	str	r2, [r3, #0]
 8000f4a:	605a      	str	r2, [r3, #4]
 8000f4c:	609a      	str	r2, [r3, #8]
 8000f4e:	60da      	str	r2, [r3, #12]
  TIM_MasterConfigTypeDef sMasterConfig = {0};
 8000f50:	f107 0310 	add.w	r3, r7, #16
 8000f54:	2200      	movs	r2, #0
 8000f56:	601a      	str	r2, [r3, #0]
 8000f58:	605a      	str	r2, [r3, #4]
  TIM_IC_InitTypeDef sConfigIC = {0};
 8000f5a:	463b      	mov	r3, r7
 8000f5c:	2200      	movs	r2, #0
 8000f5e:	601a      	str	r2, [r3, #0]
 8000f60:	605a      	str	r2, [r3, #4]
 8000f62:	609a      	str	r2, [r3, #8]
 8000f64:	60da      	str	r2, [r3, #12]

  /* USER CODE BEGIN TIM2_Init 1 */

  /* USER CODE END TIM2_Init 1 */
  htim2.Instance = TIM2;
 8000f66:	4b2c      	ldr	r3, [pc, #176]	; (8001018 <MX_TIM2_Init+0xdc>)
 8000f68:	f04f 4280 	mov.w	r2, #1073741824	; 0x40000000
 8000f6c:	601a      	str	r2, [r3, #0]
  htim2.Init.Prescaler = 99;
 8000f6e:	4b2a      	ldr	r3, [pc, #168]	; (8001018 <MX_TIM2_Init+0xdc>)
 8000f70:	2263      	movs	r2, #99	; 0x63
 8000f72:	605a      	str	r2, [r3, #4]
  htim2.Init.CounterMode = TIM_COUNTERMODE_UP;
 8000f74:	4b28      	ldr	r3, [pc, #160]	; (8001018 <MX_TIM2_Init+0xdc>)
 8000f76:	2200      	movs	r2, #0
 8000f78:	609a      	str	r2, [r3, #8]
  htim2.Init.Period = 4294967295;
 8000f7a:	4b27      	ldr	r3, [pc, #156]	; (8001018 <MX_TIM2_Init+0xdc>)
 8000f7c:	f04f 32ff 	mov.w	r2, #4294967295
 8000f80:	60da      	str	r2, [r3, #12]
  htim2.Init.ClockDivision = TIM_CLOCKDIVISION_DIV1;
 8000f82:	4b25      	ldr	r3, [pc, #148]	; (8001018 <MX_TIM2_Init+0xdc>)
 8000f84:	2200      	movs	r2, #0
 8000f86:	611a      	str	r2, [r3, #16]
  htim2.Init.AutoReloadPreload = TIM_AUTORELOAD_PRELOAD_DISABLE;
 8000f88:	4b23      	ldr	r3, [pc, #140]	; (8001018 <MX_TIM2_Init+0xdc>)
 8000f8a:	2200      	movs	r2, #0
 8000f8c:	619a      	str	r2, [r3, #24]
  if (HAL_TIM_Base_Init(&htim2) != HAL_OK)
 8000f8e:	4822      	ldr	r0, [pc, #136]	; (8001018 <MX_TIM2_Init+0xdc>)
 8000f90:	f004 fd48 	bl	8005a24 <HAL_TIM_Base_Init>
 8000f94:	4603      	mov	r3, r0
 8000f96:	2b00      	cmp	r3, #0
 8000f98:	d001      	beq.n	8000f9e <MX_TIM2_Init+0x62>
  {
    Error_Handler();
 8000f9a:	f000 fb27 	bl	80015ec <Error_Handler>
  }
  sClockSourceConfig.ClockSource = TIM_CLOCKSOURCE_INTERNAL;
 8000f9e:	f44f 5380 	mov.w	r3, #4096	; 0x1000
 8000fa2:	61bb      	str	r3, [r7, #24]
  if (HAL_TIM_ConfigClockSource(&htim2, &sClockSourceConfig) != HAL_OK)
 8000fa4:	f107 0318 	add.w	r3, r7, #24
 8000fa8:	4619      	mov	r1, r3
 8000faa:	481b      	ldr	r0, [pc, #108]	; (8001018 <MX_TIM2_Init+0xdc>)
 8000fac:	f005 faa4 	bl	80064f8 <HAL_TIM_ConfigClockSource>
 8000fb0:	4603      	mov	r3, r0
 8000fb2:	2b00      	cmp	r3, #0
 8000fb4:	d001      	beq.n	8000fba <MX_TIM2_Init+0x7e>
  {
    Error_Handler();
 8000fb6:	f000 fb19 	bl	80015ec <Error_Handler>
  }
  if (HAL_TIM_IC_Init(&htim2) != HAL_OK)
 8000fba:	4817      	ldr	r0, [pc, #92]	; (8001018 <MX_TIM2_Init+0xdc>)
 8000fbc:	f004 ff48 	bl	8005e50 <HAL_TIM_IC_Init>
 8000fc0:	4603      	mov	r3, r0
 8000fc2:	2b00      	cmp	r3, #0
 8000fc4:	d001      	beq.n	8000fca <MX_TIM2_Init+0x8e>
  {
    Error_Handler();
 8000fc6:	f000 fb11 	bl	80015ec <Error_Handler>
  }
  sMasterConfig.MasterOutputTrigger = TIM_TRGO_RESET;
 8000fca:	2300      	movs	r3, #0
 8000fcc:	613b      	str	r3, [r7, #16]
  sMasterConfig.MasterSlaveMode = TIM_MASTERSLAVEMODE_DISABLE;
 8000fce:	2300      	movs	r3, #0
 8000fd0:	617b      	str	r3, [r7, #20]
  if (HAL_TIMEx_MasterConfigSynchronization(&htim2, &sMasterConfig) != HAL_OK)
 8000fd2:	f107 0310 	add.w	r3, r7, #16
 8000fd6:	4619      	mov	r1, r3
 8000fd8:	480f      	ldr	r0, [pc, #60]	; (8001018 <MX_TIM2_Init+0xdc>)
 8000fda:	f006 f83d 	bl	8007058 <HAL_TIMEx_MasterConfigSynchronization>
 8000fde:	4603      	mov	r3, r0
 8000fe0:	2b00      	cmp	r3, #0
 8000fe2:	d001      	beq.n	8000fe8 <MX_TIM2_Init+0xac>
  {
    Error_Handler();
 8000fe4:	f000 fb02 	bl	80015ec <Error_Handler>
  }
  sConfigIC.ICPolarity = TIM_INPUTCHANNELPOLARITY_RISING;
 8000fe8:	2300      	movs	r3, #0
 8000fea:	603b      	str	r3, [r7, #0]
  sConfigIC.ICSelection = TIM_ICSELECTION_DIRECTTI;
 8000fec:	2301      	movs	r3, #1
 8000fee:	607b      	str	r3, [r7, #4]
  sConfigIC.ICPrescaler = TIM_ICPSC_DIV1;
 8000ff0:	2300      	movs	r3, #0
 8000ff2:	60bb      	str	r3, [r7, #8]
  sConfigIC.ICFilter = 0;
 8000ff4:	2300      	movs	r3, #0
 8000ff6:	60fb      	str	r3, [r7, #12]
  if (HAL_TIM_IC_ConfigChannel(&htim2, &sConfigIC, TIM_CHANNEL_1) != HAL_OK)
 8000ff8:	463b      	mov	r3, r7
 8000ffa:	2200      	movs	r2, #0
 8000ffc:	4619      	mov	r1, r3
 8000ffe:	4806      	ldr	r0, [pc, #24]	; (8001018 <MX_TIM2_Init+0xdc>)
 8001000:	f005 f91c 	bl	800623c <HAL_TIM_IC_ConfigChannel>
 8001004:	4603      	mov	r3, r0
 8001006:	2b00      	cmp	r3, #0
 8001008:	d001      	beq.n	800100e <MX_TIM2_Init+0xd2>
  {
    Error_Handler();
 800100a:	f000 faef 	bl	80015ec <Error_Handler>
  }
  /* USER CODE BEGIN TIM2_Init 2 */

  /* USER CODE END TIM2_Init 2 */

}
 800100e:	bf00      	nop
 8001010:	3728      	adds	r7, #40	; 0x28
 8001012:	46bd      	mov	sp, r7
 8001014:	bd80      	pop	{r7, pc}
 8001016:	bf00      	nop
 8001018:	20000288 	.word	0x20000288

0800101c <MX_TIM4_Init>:
  * @brief TIM4 Initialization Function
  * @param None
  * @retval None
  */
static void MX_TIM4_Init(void)
{
 800101c:	b580      	push	{r7, lr}
 800101e:	b08e      	sub	sp, #56	; 0x38
 8001020:	af00      	add	r7, sp, #0

  /* USER CODE BEGIN TIM4_Init 0 */

  /* USER CODE END TIM4_Init 0 */

  TIM_ClockConfigTypeDef sClockSourceConfig = {0};
 8001022:	f107 0328 	add.w	r3, r7, #40	; 0x28
 8001026:	2200      	movs	r2, #0
 8001028:	601a      	str	r2, [r3, #0]
 800102a:	605a      	str	r2, [r3, #4]
 800102c:	609a      	str	r2, [r3, #8]
 800102e:	60da      	str	r2, [r3, #12]
  TIM_MasterConfigTypeDef sMasterConfig = {0};
 8001030:	f107 0320 	add.w	r3, r7, #32
 8001034:	2200      	movs	r2, #0
 8001036:	601a      	str	r2, [r3, #0]
 8001038:	605a      	str	r2, [r3, #4]
  TIM_OC_InitTypeDef sConfigOC = {0};
 800103a:	1d3b      	adds	r3, r7, #4
 800103c:	2200      	movs	r2, #0
 800103e:	601a      	str	r2, [r3, #0]
 8001040:	605a      	str	r2, [r3, #4]
 8001042:	609a      	str	r2, [r3, #8]
 8001044:	60da      	str	r2, [r3, #12]
 8001046:	611a      	str	r2, [r3, #16]
 8001048:	615a      	str	r2, [r3, #20]
 800104a:	619a      	str	r2, [r3, #24]

  /* USER CODE BEGIN TIM4_Init 1 */

  /* USER CODE END TIM4_Init 1 */
  htim4.Instance = TIM4;
 800104c:	4b2c      	ldr	r3, [pc, #176]	; (8001100 <MX_TIM4_Init+0xe4>)
 800104e:	4a2d      	ldr	r2, [pc, #180]	; (8001104 <MX_TIM4_Init+0xe8>)
 8001050:	601a      	str	r2, [r3, #0]
  htim4.Init.Prescaler = 0;
 8001052:	4b2b      	ldr	r3, [pc, #172]	; (8001100 <MX_TIM4_Init+0xe4>)
 8001054:	2200      	movs	r2, #0
 8001056:	605a      	str	r2, [r3, #4]
  htim4.Init.CounterMode = TIM_COUNTERMODE_UP;
 8001058:	4b29      	ldr	r3, [pc, #164]	; (8001100 <MX_TIM4_Init+0xe4>)
 800105a:	2200      	movs	r2, #0
 800105c:	609a      	str	r2, [r3, #8]
  htim4.Init.Period = 9999;
 800105e:	4b28      	ldr	r3, [pc, #160]	; (8001100 <MX_TIM4_Init+0xe4>)
 8001060:	f242 720f 	movw	r2, #9999	; 0x270f
 8001064:	60da      	str	r2, [r3, #12]
  htim4.Init.ClockDivision = TIM_CLOCKDIVISION_DIV1;
 8001066:	4b26      	ldr	r3, [pc, #152]	; (8001100 <MX_TIM4_Init+0xe4>)
 8001068:	2200      	movs	r2, #0
 800106a:	611a      	str	r2, [r3, #16]
  htim4.Init.AutoReloadPreload = TIM_AUTORELOAD_PRELOAD_DISABLE;
 800106c:	4b24      	ldr	r3, [pc, #144]	; (8001100 <MX_TIM4_Init+0xe4>)
 800106e:	2200      	movs	r2, #0
 8001070:	619a      	str	r2, [r3, #24]
  if (HAL_TIM_Base_Init(&htim4) != HAL_OK)
 8001072:	4823      	ldr	r0, [pc, #140]	; (8001100 <MX_TIM4_Init+0xe4>)
 8001074:	f004 fcd6 	bl	8005a24 <HAL_TIM_Base_Init>
 8001078:	4603      	mov	r3, r0
 800107a:	2b00      	cmp	r3, #0
 800107c:	d001      	beq.n	8001082 <MX_TIM4_Init+0x66>
  {
    Error_Handler();
 800107e:	f000 fab5 	bl	80015ec <Error_Handler>
  }
  sClockSourceConfig.ClockSource = TIM_CLOCKSOURCE_INTERNAL;
 8001082:	f44f 5380 	mov.w	r3, #4096	; 0x1000
 8001086:	62bb      	str	r3, [r7, #40]	; 0x28
  if (HAL_TIM_ConfigClockSource(&htim4, &sClockSourceConfig) != HAL_OK)
 8001088:	f107 0328 	add.w	r3, r7, #40	; 0x28
 800108c:	4619      	mov	r1, r3
 800108e:	481c      	ldr	r0, [pc, #112]	; (8001100 <MX_TIM4_Init+0xe4>)
 8001090:	f005 fa32 	bl	80064f8 <HAL_TIM_ConfigClockSource>
 8001094:	4603      	mov	r3, r0
 8001096:	2b00      	cmp	r3, #0
 8001098:	d001      	beq.n	800109e <MX_TIM4_Init+0x82>
  {
    Error_Handler();
 800109a:	f000 faa7 	bl	80015ec <Error_Handler>
  }
  if (HAL_TIM_PWM_Init(&htim4) != HAL_OK)
 800109e:	4818      	ldr	r0, [pc, #96]	; (8001100 <MX_TIM4_Init+0xe4>)
 80010a0:	f004 fdcc 	bl	8005c3c <HAL_TIM_PWM_Init>
 80010a4:	4603      	mov	r3, r0
 80010a6:	2b00      	cmp	r3, #0
 80010a8:	d001      	beq.n	80010ae <MX_TIM4_Init+0x92>
  {
    Error_Handler();
 80010aa:	f000 fa9f 	bl	80015ec <Error_Handler>
  }
  sMasterConfig.MasterOutputTrigger = TIM_TRGO_RESET;
 80010ae:	2300      	movs	r3, #0
 80010b0:	623b      	str	r3, [r7, #32]
  sMasterConfig.MasterSlaveMode = TIM_MASTERSLAVEMODE_DISABLE;
 80010b2:	2300      	movs	r3, #0
 80010b4:	627b      	str	r3, [r7, #36]	; 0x24
  if (HAL_TIMEx_MasterConfigSynchronization(&htim4, &sMasterConfig) != HAL_OK)
 80010b6:	f107 0320 	add.w	r3, r7, #32
 80010ba:	4619      	mov	r1, r3
 80010bc:	4810      	ldr	r0, [pc, #64]	; (8001100 <MX_TIM4_Init+0xe4>)
 80010be:	f005 ffcb 	bl	8007058 <HAL_TIMEx_MasterConfigSynchronization>
 80010c2:	4603      	mov	r3, r0
 80010c4:	2b00      	cmp	r3, #0
 80010c6:	d001      	beq.n	80010cc <MX_TIM4_Init+0xb0>
  {
    Error_Handler();
 80010c8:	f000 fa90 	bl	80015ec <Error_Handler>
  }
  sConfigOC.OCMode = TIM_OCMODE_PWM1;
 80010cc:	2360      	movs	r3, #96	; 0x60
 80010ce:	607b      	str	r3, [r7, #4]
  sConfigOC.Pulse = 0;
 80010d0:	2300      	movs	r3, #0
 80010d2:	60bb      	str	r3, [r7, #8]
  sConfigOC.OCPolarity = TIM_OCPOLARITY_HIGH;
 80010d4:	2300      	movs	r3, #0
 80010d6:	60fb      	str	r3, [r7, #12]
  sConfigOC.OCFastMode = TIM_OCFAST_DISABLE;
 80010d8:	2300      	movs	r3, #0
 80010da:	617b      	str	r3, [r7, #20]
  if (HAL_TIM_PWM_ConfigChannel(&htim4, &sConfigOC, TIM_CHANNEL_1) != HAL_OK)
 80010dc:	1d3b      	adds	r3, r7, #4
 80010de:	2200      	movs	r2, #0
 80010e0:	4619      	mov	r1, r3
 80010e2:	4807      	ldr	r0, [pc, #28]	; (8001100 <MX_TIM4_Init+0xe4>)
 80010e4:	f005 f946 	bl	8006374 <HAL_TIM_PWM_ConfigChannel>
 80010e8:	4603      	mov	r3, r0
 80010ea:	2b00      	cmp	r3, #0
 80010ec:	d001      	beq.n	80010f2 <MX_TIM4_Init+0xd6>
  {
    Error_Handler();
 80010ee:	f000 fa7d 	bl	80015ec <Error_Handler>
  }
  /* USER CODE BEGIN TIM4_Init 2 */

  /* USER CODE END TIM4_Init 2 */
  HAL_TIM_MspPostInit(&htim4);
 80010f2:	4803      	ldr	r0, [pc, #12]	; (8001100 <MX_TIM4_Init+0xe4>)
 80010f4:	f000 fba6 	bl	8001844 <HAL_TIM_MspPostInit>

}
 80010f8:	bf00      	nop
 80010fa:	3738      	adds	r7, #56	; 0x38
 80010fc:	46bd      	mov	sp, r7
 80010fe:	bd80      	pop	{r7, pc}
 8001100:	20000188 	.word	0x20000188
 8001104:	40000800 	.word	0x40000800

08001108 <MX_TIM11_Init>:
  * @brief TIM11 Initialization Function
  * @param None
  * @retval None
  */
static void MX_TIM11_Init(void)
{
 8001108:	b580      	push	{r7, lr}
 800110a:	af00      	add	r7, sp, #0
  /* USER CODE END TIM11_Init 0 */

  /* USER CODE BEGIN TIM11_Init 1 */

  /* USER CODE END TIM11_Init 1 */
  htim11.Instance = TIM11;
 800110c:	4b0e      	ldr	r3, [pc, #56]	; (8001148 <MX_TIM11_Init+0x40>)
 800110e:	4a0f      	ldr	r2, [pc, #60]	; (800114c <MX_TIM11_Init+0x44>)
 8001110:	601a      	str	r2, [r3, #0]
  htim11.Init.Prescaler = 99;
 8001112:	4b0d      	ldr	r3, [pc, #52]	; (8001148 <MX_TIM11_Init+0x40>)
 8001114:	2263      	movs	r2, #99	; 0x63
 8001116:	605a      	str	r2, [r3, #4]
  htim11.Init.CounterMode = TIM_COUNTERMODE_UP;
 8001118:	4b0b      	ldr	r3, [pc, #44]	; (8001148 <MX_TIM11_Init+0x40>)
 800111a:	2200      	movs	r2, #0
 800111c:	609a      	str	r2, [r3, #8]
  htim11.Init.Period = 65535;
 800111e:	4b0a      	ldr	r3, [pc, #40]	; (8001148 <MX_TIM11_Init+0x40>)
 8001120:	f64f 72ff 	movw	r2, #65535	; 0xffff
 8001124:	60da      	str	r2, [r3, #12]
  htim11.Init.ClockDivision = TIM_CLOCKDIVISION_DIV1;
 8001126:	4b08      	ldr	r3, [pc, #32]	; (8001148 <MX_TIM11_Init+0x40>)
 8001128:	2200      	movs	r2, #0
 800112a:	611a      	str	r2, [r3, #16]
  htim11.Init.AutoReloadPreload = TIM_AUTORELOAD_PRELOAD_DISABLE;
 800112c:	4b06      	ldr	r3, [pc, #24]	; (8001148 <MX_TIM11_Init+0x40>)
 800112e:	2200      	movs	r2, #0
 8001130:	619a      	str	r2, [r3, #24]
  if (HAL_TIM_Base_Init(&htim11) != HAL_OK)
 8001132:	4805      	ldr	r0, [pc, #20]	; (8001148 <MX_TIM11_Init+0x40>)
 8001134:	f004 fc76 	bl	8005a24 <HAL_TIM_Base_Init>
 8001138:	4603      	mov	r3, r0
 800113a:	2b00      	cmp	r3, #0
 800113c:	d001      	beq.n	8001142 <MX_TIM11_Init+0x3a>
  {
    Error_Handler();
 800113e:	f000 fa55 	bl	80015ec <Error_Handler>
  }
  /* USER CODE BEGIN TIM11_Init 2 */

  /* USER CODE END TIM11_Init 2 */

}
 8001142:	bf00      	nop
 8001144:	bd80      	pop	{r7, pc}
 8001146:	bf00      	nop
 8001148:	2000023c 	.word	0x2000023c
 800114c:	40014800 	.word	0x40014800

08001150 <MX_USART2_UART_Init>:
  * @brief USART2 Initialization Function
  * @param None
  * @retval None
  */
static void MX_USART2_UART_Init(void)
{
 8001150:	b580      	push	{r7, lr}
 8001152:	af00      	add	r7, sp, #0
  /* USER CODE END USART2_Init 0 */

  /* USER CODE BEGIN USART2_Init 1 */

  /* USER CODE END USART2_Init 1 */
  huart2.Instance = USART2;
 8001154:	4b11      	ldr	r3, [pc, #68]	; (800119c <MX_USART2_UART_Init+0x4c>)
 8001156:	4a12      	ldr	r2, [pc, #72]	; (80011a0 <MX_USART2_UART_Init+0x50>)
 8001158:	601a      	str	r2, [r3, #0]
  huart2.Init.BaudRate = 115200;
 800115a:	4b10      	ldr	r3, [pc, #64]	; (800119c <MX_USART2_UART_Init+0x4c>)
 800115c:	f44f 32e1 	mov.w	r2, #115200	; 0x1c200
 8001160:	605a      	str	r2, [r3, #4]
  huart2.Init.WordLength = UART_WORDLENGTH_8B;
 8001162:	4b0e      	ldr	r3, [pc, #56]	; (800119c <MX_USART2_UART_Init+0x4c>)
 8001164:	2200      	movs	r2, #0
 8001166:	609a      	str	r2, [r3, #8]
  huart2.Init.StopBits = UART_STOPBITS_1;
 8001168:	4b0c      	ldr	r3, [pc, #48]	; (800119c <MX_USART2_UART_Init+0x4c>)
 800116a:	2200      	movs	r2, #0
 800116c:	60da      	str	r2, [r3, #12]
  huart2.Init.Parity = UART_PARITY_NONE;
 800116e:	4b0b      	ldr	r3, [pc, #44]	; (800119c <MX_USART2_UART_Init+0x4c>)
 8001170:	2200      	movs	r2, #0
 8001172:	611a      	str	r2, [r3, #16]
  huart2.Init.Mode = UART_MODE_TX_RX;
 8001174:	4b09      	ldr	r3, [pc, #36]	; (800119c <MX_USART2_UART_Init+0x4c>)
 8001176:	220c      	movs	r2, #12
 8001178:	615a      	str	r2, [r3, #20]
  huart2.Init.HwFlowCtl = UART_HWCONTROL_NONE;
 800117a:	4b08      	ldr	r3, [pc, #32]	; (800119c <MX_USART2_UART_Init+0x4c>)
 800117c:	2200      	movs	r2, #0
 800117e:	619a      	str	r2, [r3, #24]
  huart2.Init.OverSampling = UART_OVERSAMPLING_16;
 8001180:	4b06      	ldr	r3, [pc, #24]	; (800119c <MX_USART2_UART_Init+0x4c>)
 8001182:	2200      	movs	r2, #0
 8001184:	61da      	str	r2, [r3, #28]
  if (HAL_UART_Init(&huart2) != HAL_OK)
 8001186:	4805      	ldr	r0, [pc, #20]	; (800119c <MX_USART2_UART_Init+0x4c>)
 8001188:	f005 ffd4 	bl	8007134 <HAL_UART_Init>
 800118c:	4603      	mov	r3, r0
 800118e:	2b00      	cmp	r3, #0
 8001190:	d001      	beq.n	8001196 <MX_USART2_UART_Init+0x46>
  {
    Error_Handler();
 8001192:	f000 fa2b 	bl	80015ec <Error_Handler>
  }
  /* USER CODE BEGIN USART2_Init 2 */

  /* USER CODE END USART2_Init 2 */

}
 8001196:	bf00      	nop
 8001198:	bd80      	pop	{r7, pc}
 800119a:	bf00      	nop
 800119c:	200002d0 	.word	0x200002d0
 80011a0:	40004400 	.word	0x40004400

080011a4 <MX_DMA_Init>:

/**
  * Enable DMA controller clock
  */
static void MX_DMA_Init(void)
{
 80011a4:	b580      	push	{r7, lr}
 80011a6:	b082      	sub	sp, #8
 80011a8:	af00      	add	r7, sp, #0

  /* DMA controller clock enable */
  __HAL_RCC_DMA1_CLK_ENABLE();
 80011aa:	2300      	movs	r3, #0
 80011ac:	607b      	str	r3, [r7, #4]
 80011ae:	4b0c      	ldr	r3, [pc, #48]	; (80011e0 <MX_DMA_Init+0x3c>)
 80011b0:	6b1b      	ldr	r3, [r3, #48]	; 0x30
 80011b2:	4a0b      	ldr	r2, [pc, #44]	; (80011e0 <MX_DMA_Init+0x3c>)
 80011b4:	f443 1300 	orr.w	r3, r3, #2097152	; 0x200000
 80011b8:	6313      	str	r3, [r2, #48]	; 0x30
 80011ba:	4b09      	ldr	r3, [pc, #36]	; (80011e0 <MX_DMA_Init+0x3c>)
 80011bc:	6b1b      	ldr	r3, [r3, #48]	; 0x30
 80011be:	f403 1300 	and.w	r3, r3, #2097152	; 0x200000
 80011c2:	607b      	str	r3, [r7, #4]
 80011c4:	687b      	ldr	r3, [r7, #4]

  /* DMA interrupt init */
  /* DMA1_Stream5_IRQn interrupt configuration */
  HAL_NVIC_SetPriority(DMA1_Stream5_IRQn, 0, 0);
 80011c6:	2200      	movs	r2, #0
 80011c8:	2100      	movs	r1, #0
 80011ca:	2010      	movs	r0, #16
 80011cc:	f000 fdb1 	bl	8001d32 <HAL_NVIC_SetPriority>
  HAL_NVIC_EnableIRQ(DMA1_Stream5_IRQn);
 80011d0:	2010      	movs	r0, #16
 80011d2:	f000 fdca 	bl	8001d6a <HAL_NVIC_EnableIRQ>

}
 80011d6:	bf00      	nop
 80011d8:	3708      	adds	r7, #8
 80011da:	46bd      	mov	sp, r7
 80011dc:	bd80      	pop	{r7, pc}
 80011de:	bf00      	nop
 80011e0:	40023800 	.word	0x40023800

080011e4 <MX_GPIO_Init>:
  * @brief GPIO Initialization Function
  * @param None
  * @retval None
  */
static void MX_GPIO_Init(void)
{
 80011e4:	b580      	push	{r7, lr}
 80011e6:	b08a      	sub	sp, #40	; 0x28
 80011e8:	af00      	add	r7, sp, #0
  GPIO_InitTypeDef GPIO_InitStruct = {0};
 80011ea:	f107 0314 	add.w	r3, r7, #20
 80011ee:	2200      	movs	r2, #0
 80011f0:	601a      	str	r2, [r3, #0]
 80011f2:	605a      	str	r2, [r3, #4]
 80011f4:	609a      	str	r2, [r3, #8]
 80011f6:	60da      	str	r2, [r3, #12]
 80011f8:	611a      	str	r2, [r3, #16]

  /* GPIO Ports Clock Enable */
  __HAL_RCC_GPIOC_CLK_ENABLE();
 80011fa:	2300      	movs	r3, #0
 80011fc:	613b      	str	r3, [r7, #16]
 80011fe:	4b45      	ldr	r3, [pc, #276]	; (8001314 <MX_GPIO_Init+0x130>)
 8001200:	6b1b      	ldr	r3, [r3, #48]	; 0x30
 8001202:	4a44      	ldr	r2, [pc, #272]	; (8001314 <MX_GPIO_Init+0x130>)
 8001204:	f043 0304 	orr.w	r3, r3, #4
 8001208:	6313      	str	r3, [r2, #48]	; 0x30
 800120a:	4b42      	ldr	r3, [pc, #264]	; (8001314 <MX_GPIO_Init+0x130>)
 800120c:	6b1b      	ldr	r3, [r3, #48]	; 0x30
 800120e:	f003 0304 	and.w	r3, r3, #4
 8001212:	613b      	str	r3, [r7, #16]
 8001214:	693b      	ldr	r3, [r7, #16]
  __HAL_RCC_GPIOH_CLK_ENABLE();
 8001216:	2300      	movs	r3, #0
 8001218:	60fb      	str	r3, [r7, #12]
 800121a:	4b3e      	ldr	r3, [pc, #248]	; (8001314 <MX_GPIO_Init+0x130>)
 800121c:	6b1b      	ldr	r3, [r3, #48]	; 0x30
 800121e:	4a3d      	ldr	r2, [pc, #244]	; (8001314 <MX_GPIO_Init+0x130>)
 8001220:	f043 0380 	orr.w	r3, r3, #128	; 0x80
 8001224:	6313      	str	r3, [r2, #48]	; 0x30
 8001226:	4b3b      	ldr	r3, [pc, #236]	; (8001314 <MX_GPIO_Init+0x130>)
 8001228:	6b1b      	ldr	r3, [r3, #48]	; 0x30
 800122a:	f003 0380 	and.w	r3, r3, #128	; 0x80
 800122e:	60fb      	str	r3, [r7, #12]
 8001230:	68fb      	ldr	r3, [r7, #12]
  __HAL_RCC_GPIOA_CLK_ENABLE();
 8001232:	2300      	movs	r3, #0
 8001234:	60bb      	str	r3, [r7, #8]
 8001236:	4b37      	ldr	r3, [pc, #220]	; (8001314 <MX_GPIO_Init+0x130>)
 8001238:	6b1b      	ldr	r3, [r3, #48]	; 0x30
 800123a:	4a36      	ldr	r2, [pc, #216]	; (8001314 <MX_GPIO_Init+0x130>)
 800123c:	f043 0301 	orr.w	r3, r3, #1
 8001240:	6313      	str	r3, [r2, #48]	; 0x30
 8001242:	4b34      	ldr	r3, [pc, #208]	; (8001314 <MX_GPIO_Init+0x130>)
 8001244:	6b1b      	ldr	r3, [r3, #48]	; 0x30
 8001246:	f003 0301 	and.w	r3, r3, #1
 800124a:	60bb      	str	r3, [r7, #8]
 800124c:	68bb      	ldr	r3, [r7, #8]
  __HAL_RCC_GPIOB_CLK_ENABLE();
 800124e:	2300      	movs	r3, #0
 8001250:	607b      	str	r3, [r7, #4]
 8001252:	4b30      	ldr	r3, [pc, #192]	; (8001314 <MX_GPIO_Init+0x130>)
 8001254:	6b1b      	ldr	r3, [r3, #48]	; 0x30
 8001256:	4a2f      	ldr	r2, [pc, #188]	; (8001314 <MX_GPIO_Init+0x130>)
 8001258:	f043 0302 	orr.w	r3, r3, #2
 800125c:	6313      	str	r3, [r2, #48]	; 0x30
 800125e:	4b2d      	ldr	r3, [pc, #180]	; (8001314 <MX_GPIO_Init+0x130>)
 8001260:	6b1b      	ldr	r3, [r3, #48]	; 0x30
 8001262:	f003 0302 	and.w	r3, r3, #2
 8001266:	607b      	str	r3, [r7, #4]
 8001268:	687b      	ldr	r3, [r7, #4]

  /*Configure GPIO pin Output Level */
  HAL_GPIO_WritePin(LD2_GPIO_Port, LD2_Pin, GPIO_PIN_RESET);
 800126a:	2200      	movs	r2, #0
 800126c:	2120      	movs	r1, #32
 800126e:	482a      	ldr	r0, [pc, #168]	; (8001318 <MX_GPIO_Init+0x134>)
 8001270:	f001 faba 	bl	80027e8 <HAL_GPIO_WritePin>

  /*Configure GPIO pin Output Level */
  HAL_GPIO_WritePin(GPIOB, En_SHLD_Pin|En_SERCLK_Pin|En_INHCLK_Pin, GPIO_PIN_RESET);
 8001274:	2200      	movs	r2, #0
 8001276:	f44f 4160 	mov.w	r1, #57344	; 0xe000
 800127a:	4828      	ldr	r0, [pc, #160]	; (800131c <MX_GPIO_Init+0x138>)
 800127c:	f001 fab4 	bl	80027e8 <HAL_GPIO_WritePin>

  /*Configure GPIO pin : B1_Pin */
  GPIO_InitStruct.Pin = B1_Pin;
 8001280:	f44f 5300 	mov.w	r3, #8192	; 0x2000
 8001284:	617b      	str	r3, [r7, #20]
  GPIO_InitStruct.Mode = GPIO_MODE_IT_FALLING;
 8001286:	f44f 1304 	mov.w	r3, #2162688	; 0x210000
 800128a:	61bb      	str	r3, [r7, #24]
  GPIO_InitStruct.Pull = GPIO_NOPULL;
 800128c:	2300      	movs	r3, #0
 800128e:	61fb      	str	r3, [r7, #28]
  HAL_GPIO_Init(B1_GPIO_Port, &GPIO_InitStruct);
 8001290:	f107 0314 	add.w	r3, r7, #20
 8001294:	4619      	mov	r1, r3
 8001296:	4822      	ldr	r0, [pc, #136]	; (8001320 <MX_GPIO_Init+0x13c>)
 8001298:	f001 f922 	bl	80024e0 <HAL_GPIO_Init>

  /*Configure GPIO pin : LD2_Pin */
  GPIO_InitStruct.Pin = LD2_Pin;
 800129c:	2320      	movs	r3, #32
 800129e:	617b      	str	r3, [r7, #20]
  GPIO_InitStruct.Mode = GPIO_MODE_OUTPUT_PP;
 80012a0:	2301      	movs	r3, #1
 80012a2:	61bb      	str	r3, [r7, #24]
  GPIO_InitStruct.Pull = GPIO_NOPULL;
 80012a4:	2300      	movs	r3, #0
 80012a6:	61fb      	str	r3, [r7, #28]
  GPIO_InitStruct.Speed = GPIO_SPEED_FREQ_LOW;
 80012a8:	2300      	movs	r3, #0
 80012aa:	623b      	str	r3, [r7, #32]
  HAL_GPIO_Init(LD2_GPIO_Port, &GPIO_InitStruct);
 80012ac:	f107 0314 	add.w	r3, r7, #20
 80012b0:	4619      	mov	r1, r3
 80012b2:	4819      	ldr	r0, [pc, #100]	; (8001318 <MX_GPIO_Init+0x134>)
 80012b4:	f001 f914 	bl	80024e0 <HAL_GPIO_Init>

  /*Configure GPIO pin : En_SERIN_Pin */
  GPIO_InitStruct.Pin = En_SERIN_Pin;
 80012b8:	2302      	movs	r3, #2
 80012ba:	617b      	str	r3, [r7, #20]
  GPIO_InitStruct.Mode = GPIO_MODE_INPUT;
 80012bc:	2300      	movs	r3, #0
 80012be:	61bb      	str	r3, [r7, #24]
  GPIO_InitStruct.Pull = GPIO_NOPULL;
 80012c0:	2300      	movs	r3, #0
 80012c2:	61fb      	str	r3, [r7, #28]
  HAL_GPIO_Init(En_SERIN_GPIO_Port, &GPIO_InitStruct);
 80012c4:	f107 0314 	add.w	r3, r7, #20
 80012c8:	4619      	mov	r1, r3
 80012ca:	4814      	ldr	r0, [pc, #80]	; (800131c <MX_GPIO_Init+0x138>)
 80012cc:	f001 f908 	bl	80024e0 <HAL_GPIO_Init>

  /*Configure GPIO pins : En_SHLD_Pin En_SERCLK_Pin En_INHCLK_Pin */
  GPIO_InitStruct.Pin = En_SHLD_Pin|En_SERCLK_Pin|En_INHCLK_Pin;
 80012d0:	f44f 4360 	mov.w	r3, #57344	; 0xe000
 80012d4:	617b      	str	r3, [r7, #20]
  GPIO_InitStruct.Mode = GPIO_MODE_OUTPUT_PP;
 80012d6:	2301      	movs	r3, #1
 80012d8:	61bb      	str	r3, [r7, #24]
  GPIO_InitStruct.Pull = GPIO_NOPULL;
 80012da:	2300      	movs	r3, #0
 80012dc:	61fb      	str	r3, [r7, #28]
  GPIO_InitStruct.Speed = GPIO_SPEED_FREQ_LOW;
 80012de:	2300      	movs	r3, #0
 80012e0:	623b      	str	r3, [r7, #32]
  HAL_GPIO_Init(GPIOB, &GPIO_InitStruct);
 80012e2:	f107 0314 	add.w	r3, r7, #20
 80012e6:	4619      	mov	r1, r3
 80012e8:	480c      	ldr	r0, [pc, #48]	; (800131c <MX_GPIO_Init+0x138>)
 80012ea:	f001 f8f9 	bl	80024e0 <HAL_GPIO_Init>

  /*Configure GPIO pin : EXTI10_Emer_Pin */
  GPIO_InitStruct.Pin = EXTI10_Emer_Pin;
 80012ee:	f44f 6380 	mov.w	r3, #1024	; 0x400
 80012f2:	617b      	str	r3, [r7, #20]
  GPIO_InitStruct.Mode = GPIO_MODE_IT_RISING_FALLING;
 80012f4:	f44f 1344 	mov.w	r3, #3211264	; 0x310000
 80012f8:	61bb      	str	r3, [r7, #24]
  GPIO_InitStruct.Pull = GPIO_NOPULL;
 80012fa:	2300      	movs	r3, #0
 80012fc:	61fb      	str	r3, [r7, #28]
  HAL_GPIO_Init(EXTI10_Emer_GPIO_Port, &GPIO_InitStruct);
 80012fe:	f107 0314 	add.w	r3, r7, #20
 8001302:	4619      	mov	r1, r3
 8001304:	4806      	ldr	r0, [pc, #24]	; (8001320 <MX_GPIO_Init+0x13c>)
 8001306:	f001 f8eb 	bl	80024e0 <HAL_GPIO_Init>

}
 800130a:	bf00      	nop
 800130c:	3728      	adds	r7, #40	; 0x28
 800130e:	46bd      	mov	sp, r7
 8001310:	bd80      	pop	{r7, pc}
 8001312:	bf00      	nop
 8001314:	40023800 	.word	0x40023800
 8001318:	40020000 	.word	0x40020000
 800131c:	40020400 	.word	0x40020400
 8001320:	40020800 	.word	0x40020800

08001324 <GraytoBinario>:
        break;

        }//end switch
    }//end void prll

uint16_t GraytoBinario(uint16_t grayx,uint8_t numbit){ // numbit=10
 8001324:	b480      	push	{r7}
 8001326:	b087      	sub	sp, #28
 8001328:	af00      	add	r7, sp, #0
 800132a:	4603      	mov	r3, r0
 800132c:	460a      	mov	r2, r1
 800132e:	80fb      	strh	r3, [r7, #6]
 8001330:	4613      	mov	r3, r2
 8001332:	717b      	strb	r3, [r7, #5]
//int qd;
//uint16_t gray = 0b0110110100;// gc 01 1011 0100 = 0b 01 0010 0111
uint16_t binaryout = 0b0;
 8001334:	2300      	movs	r3, #0
 8001336:	82fb      	strh	r3, [r7, #22]

    binaryout = (grayx >> (numbit-1))&0x01;
 8001338:	88fa      	ldrh	r2, [r7, #6]
 800133a:	797b      	ldrb	r3, [r7, #5]
 800133c:	3b01      	subs	r3, #1
 800133e:	fa42 f303 	asr.w	r3, r2, r3
 8001342:	b29b      	uxth	r3, r3
 8001344:	f003 0301 	and.w	r3, r3, #1
 8001348:	82fb      	strh	r3, [r7, #22]
    //std::cout << binaryout << std::endl;

    for (int i = 1; i < numbit ;i++){
 800134a:	2301      	movs	r3, #1
 800134c:	613b      	str	r3, [r7, #16]
 800134e:	e01d      	b.n	800138c <GraytoBinario+0x68>
        /* XOR operation */
        int cp1 = binaryout&0x01 ;//>> (numbit-i)
 8001350:	8afb      	ldrh	r3, [r7, #22]
 8001352:	f003 0301 	and.w	r3, r3, #1
 8001356:	60fb      	str	r3, [r7, #12]
        int cp2 = grayx >> (numbit-(i+1))&0x01; //
 8001358:	88fa      	ldrh	r2, [r7, #6]
 800135a:	7979      	ldrb	r1, [r7, #5]
 800135c:	693b      	ldr	r3, [r7, #16]
 800135e:	3301      	adds	r3, #1
 8001360:	1acb      	subs	r3, r1, r3
 8001362:	fa42 f303 	asr.w	r3, r2, r3
 8001366:	f003 0301 	and.w	r3, r3, #1
 800136a:	60bb      	str	r3, [r7, #8]

        if (cp1 == cp2)
 800136c:	68fa      	ldr	r2, [r7, #12]
 800136e:	68bb      	ldr	r3, [r7, #8]
 8001370:	429a      	cmp	r2, r3
 8001372:	d103      	bne.n	800137c <GraytoBinario+0x58>
            {binaryout = (binaryout << 1) + 0; } //qd = 0;
 8001374:	8afb      	ldrh	r3, [r7, #22]
 8001376:	005b      	lsls	r3, r3, #1
 8001378:	82fb      	strh	r3, [r7, #22]
 800137a:	e004      	b.n	8001386 <GraytoBinario+0x62>
        else
            {binaryout = (binaryout << 1) + 1; } //qd = 1;
 800137c:	8afb      	ldrh	r3, [r7, #22]
 800137e:	005b      	lsls	r3, r3, #1
 8001380:	b29b      	uxth	r3, r3
 8001382:	3301      	adds	r3, #1
 8001384:	82fb      	strh	r3, [r7, #22]
    for (int i = 1; i < numbit ;i++){
 8001386:	693b      	ldr	r3, [r7, #16]
 8001388:	3301      	adds	r3, #1
 800138a:	613b      	str	r3, [r7, #16]
 800138c:	797b      	ldrb	r3, [r7, #5]
 800138e:	693a      	ldr	r2, [r7, #16]
 8001390:	429a      	cmp	r2, r3
 8001392:	dbdd      	blt.n	8001350 <GraytoBinario+0x2c>
        //std::cout << "cp" << i << " " << cp1 << cp2 << " " << qd << "  "<<binaryout << std::endl;
    }
    //BinPos = binaryout;
    return binaryout;
 8001394:	8afb      	ldrh	r3, [r7, #22]
}
 8001396:	4618      	mov	r0, r3
 8001398:	371c      	adds	r7, #28
 800139a:	46bd      	mov	sp, r7
 800139c:	f85d 7b04 	ldr.w	r7, [sp], #4
 80013a0:	4770      	bx	lr
 80013a2:	0000      	movs	r0, r0
 80013a4:	0000      	movs	r0, r0
	...

080013a8 <encoderSpeedReaderCycle>:

void encoderSpeedReaderCycle() {
 80013a8:	b590      	push	{r4, r7, lr}
 80013aa:	b083      	sub	sp, #12
 80013ac:	af00      	add	r7, sp, #0
	//get DMA Position form number of data
	uint32_t CapPos =CAPTURENUM -  __HAL_DMA_GET_COUNTER(htim2.hdma[TIM_DMA_ID_CC1]);
 80013ae:	4b32      	ldr	r3, [pc, #200]	; (8001478 <encoderSpeedReaderCycle+0xd0>)
 80013b0:	6a5b      	ldr	r3, [r3, #36]	; 0x24
 80013b2:	681b      	ldr	r3, [r3, #0]
 80013b4:	685b      	ldr	r3, [r3, #4]
 80013b6:	f1c3 0310 	rsb	r3, r3, #16
 80013ba:	603b      	str	r3, [r7, #0]
	uint32_t sum = 0 ;
 80013bc:	2300      	movs	r3, #0
 80013be:	607b      	str	r3, [r7, #4]

	//calculate diff from all buffer except current dma
	for(register int i=2 ;i < CAPTURENUM-1;i++)
 80013c0:	2402      	movs	r4, #2
 80013c2:	e022      	b.n	800140a <encoderSpeedReaderCycle+0x62>
	{
		DiffTime[i]  = capturedata[(CapPos+1+i)%CAPTURENUM]-capturedata[(CapPos+i)%CAPTURENUM];
 80013c4:	4622      	mov	r2, r4
 80013c6:	683b      	ldr	r3, [r7, #0]
 80013c8:	4413      	add	r3, r2
 80013ca:	3301      	adds	r3, #1
 80013cc:	f003 030f 	and.w	r3, r3, #15
 80013d0:	4a2a      	ldr	r2, [pc, #168]	; (800147c <encoderSpeedReaderCycle+0xd4>)
 80013d2:	f852 2023 	ldr.w	r2, [r2, r3, lsl #2]
 80013d6:	4621      	mov	r1, r4
 80013d8:	683b      	ldr	r3, [r7, #0]
 80013da:	440b      	add	r3, r1
 80013dc:	f003 030f 	and.w	r3, r3, #15
 80013e0:	4926      	ldr	r1, [pc, #152]	; (800147c <encoderSpeedReaderCycle+0xd4>)
 80013e2:	f851 3023 	ldr.w	r3, [r1, r3, lsl #2]
 80013e6:	1ad3      	subs	r3, r2, r3
 80013e8:	461a      	mov	r2, r3
 80013ea:	f04f 0300 	mov.w	r3, #0
 80013ee:	4824      	ldr	r0, [pc, #144]	; (8001480 <encoderSpeedReaderCycle+0xd8>)
 80013f0:	00e1      	lsls	r1, r4, #3
 80013f2:	4401      	add	r1, r0
 80013f4:	e9c1 2300 	strd	r2, r3, [r1]
		//Sum all  Diff
		sum += DiffTime[i];
 80013f8:	4a21      	ldr	r2, [pc, #132]	; (8001480 <encoderSpeedReaderCycle+0xd8>)
 80013fa:	00e3      	lsls	r3, r4, #3
 80013fc:	4413      	add	r3, r2
 80013fe:	e9d3 2300 	ldrd	r2, r3, [r3]
 8001402:	687b      	ldr	r3, [r7, #4]
 8001404:	4413      	add	r3, r2
 8001406:	607b      	str	r3, [r7, #4]
	for(register int i=2 ;i < CAPTURENUM-1;i++)
 8001408:	3401      	adds	r4, #1
 800140a:	2c0e      	cmp	r4, #14
 800140c:	ddda      	ble.n	80013c4 <encoderSpeedReaderCycle+0x1c>
	}

	//mean all Diff
	MeanTime =sum / (float)(CAPTURENUM-3);
 800140e:	687b      	ldr	r3, [r7, #4]
 8001410:	ee07 3a90 	vmov	s15, r3
 8001414:	eeb8 7a67 	vcvt.f32.u32	s14, s15
 8001418:	eef2 6a0a 	vmov.f32	s13, #42	; 0x41500000  13.0
 800141c:	eec7 7a26 	vdiv.f32	s15, s14, s13
 8001420:	4b18      	ldr	r3, [pc, #96]	; (8001484 <encoderSpeedReaderCycle+0xdc>)
 8001422:	edc3 7a00 	vstr	s15, [r3]
	// Meantime = 1 time period for 1 pulse
	// 60000000 / MeanTime = amount of pulse in 1 minute with that time period
	// 1024 pulse per round

	RoundNum = (60000000.0 / MeanTime)/1024.0; // round per min detect by 1024 clk
 8001426:	4b17      	ldr	r3, [pc, #92]	; (8001484 <encoderSpeedReaderCycle+0xdc>)
 8001428:	681b      	ldr	r3, [r3, #0]
 800142a:	4618      	mov	r0, r3
 800142c:	f7ff f838 	bl	80004a0 <__aeabi_f2d>
 8001430:	4602      	mov	r2, r0
 8001432:	460b      	mov	r3, r1
 8001434:	a10e      	add	r1, pc, #56	; (adr r1, 8001470 <encoderSpeedReaderCycle+0xc8>)
 8001436:	e9d1 0100 	ldrd	r0, r1, [r1]
 800143a:	f7ff f9b3 	bl	80007a4 <__aeabi_ddiv>
 800143e:	4602      	mov	r2, r0
 8001440:	460b      	mov	r3, r1
 8001442:	4610      	mov	r0, r2
 8001444:	4619      	mov	r1, r3
 8001446:	f04f 0200 	mov.w	r2, #0
 800144a:	4b0f      	ldr	r3, [pc, #60]	; (8001488 <encoderSpeedReaderCycle+0xe0>)
 800144c:	f7ff f9aa 	bl	80007a4 <__aeabi_ddiv>
 8001450:	4602      	mov	r2, r0
 8001452:	460b      	mov	r3, r1
 8001454:	4610      	mov	r0, r2
 8001456:	4619      	mov	r1, r3
 8001458:	f7ff fa8c 	bl	8000974 <__aeabi_d2f>
 800145c:	4603      	mov	r3, r0
 800145e:	4a0b      	ldr	r2, [pc, #44]	; (800148c <encoderSpeedReaderCycle+0xe4>)
 8001460:	6013      	str	r3, [r2, #0]

}
 8001462:	bf00      	nop
 8001464:	370c      	adds	r7, #12
 8001466:	46bd      	mov	sp, r7
 8001468:	bd90      	pop	{r4, r7, pc}
 800146a:	bf00      	nop
 800146c:	f3af 8000 	nop.w
 8001470:	00000000 	.word	0x00000000
 8001474:	418c9c38 	.word	0x418c9c38
 8001478:	20000288 	.word	0x20000288
 800147c:	20000054 	.word	0x20000054
 8001480:	20000098 	.word	0x20000098
 8001484:	20000110 	.word	0x20000110
 8001488:	40900000 	.word	0x40900000
 800148c:	20000114 	.word	0x20000114

08001490 <IOExpenderInit>:
/////////////////////Abs Encoder I2C////////////////////////////////////////////
void IOExpenderInit() {// call when start system
 8001490:	b580      	push	{r7, lr}
 8001492:	b084      	sub	sp, #16
 8001494:	af04      	add	r7, sp, #16
			0x00, 0x00, 0x00, 0x00,
			0x00, // 0x12 GPIOA
			0x00, // 0x13 GPIOB
			0x00, 0x00 };
	// OLATB -> Out data for pinB
	HAL_I2C_Mem_Write(&hi2c1, ADDR_IOXT, 0x00, I2C_MEMADD_SIZE_8BIT, Setting,
 8001496:	2364      	movs	r3, #100	; 0x64
 8001498:	9302      	str	r3, [sp, #8]
 800149a:	2316      	movs	r3, #22
 800149c:	9301      	str	r3, [sp, #4]
 800149e:	4b05      	ldr	r3, [pc, #20]	; (80014b4 <IOExpenderInit+0x24>)
 80014a0:	9300      	str	r3, [sp, #0]
 80014a2:	2301      	movs	r3, #1
 80014a4:	2200      	movs	r2, #0
 80014a6:	2140      	movs	r1, #64	; 0x40
 80014a8:	4803      	ldr	r0, [pc, #12]	; (80014b8 <IOExpenderInit+0x28>)
 80014aa:	f001 fafb 	bl	8002aa4 <HAL_I2C_Mem_Write>
			0x16, 100);
}
 80014ae:	bf00      	nop
 80014b0:	46bd      	mov	sp, r7
 80014b2:	bd80      	pop	{r7, pc}
 80014b4:	20000004 	.word	0x20000004
 80014b8:	200001d4 	.word	0x200001d4

080014bc <AbsEncI2CRead>:

void AbsEncI2CRead(uint8_t *RawRA, uint8_t *RawRB){
 80014bc:	b580      	push	{r7, lr}
 80014be:	b086      	sub	sp, #24
 80014c0:	af04      	add	r7, sp, #16
 80014c2:	6078      	str	r0, [r7, #4]
 80014c4:	6039      	str	r1, [r7, #0]

	if(flag_absenc != 0 && hi2c1.State == HAL_I2C_STATE_READY){
 80014c6:	4b34      	ldr	r3, [pc, #208]	; (8001598 <AbsEncI2CRead+0xdc>)
 80014c8:	781b      	ldrb	r3, [r3, #0]
 80014ca:	2b00      	cmp	r3, #0
 80014cc:	d05c      	beq.n	8001588 <AbsEncI2CRead+0xcc>
 80014ce:	4b33      	ldr	r3, [pc, #204]	; (800159c <AbsEncI2CRead+0xe0>)
 80014d0:	f893 303d 	ldrb.w	r3, [r3, #61]	; 0x3d
 80014d4:	b2db      	uxtb	r3, r3
 80014d6:	2b20      	cmp	r3, #32
 80014d8:	d156      	bne.n	8001588 <AbsEncI2CRead+0xcc>
		//static uint8_t absencStep = 0;
		switch(flag_absenc){
 80014da:	4b2f      	ldr	r3, [pc, #188]	; (8001598 <AbsEncI2CRead+0xdc>)
 80014dc:	781b      	ldrb	r3, [r3, #0]
 80014de:	2b03      	cmp	r3, #3
 80014e0:	d026      	beq.n	8001530 <AbsEncI2CRead+0x74>
 80014e2:	2b03      	cmp	r3, #3
 80014e4:	dc52      	bgt.n	800158c <AbsEncI2CRead+0xd0>
 80014e6:	2b01      	cmp	r3, #1
 80014e8:	d002      	beq.n	80014f0 <AbsEncI2CRead+0x34>
 80014ea:	2b02      	cmp	r3, #2
 80014ec:	d010      	beq.n	8001510 <AbsEncI2CRead+0x54>
		default:
			break;
 80014ee:	e04d      	b.n	800158c <AbsEncI2CRead+0xd0>

		case 1:
			//HAL_I2C_Master_Receive(&hi2c1, ADDR_IOXT, GrayCBitx, 1, 100);
			HAL_I2C_Mem_Read(&hi2c1, ADDR_IOXT, 0x12, I2C_MEMADD_SIZE_8BIT,
 80014f0:	2364      	movs	r3, #100	; 0x64
 80014f2:	9302      	str	r3, [sp, #8]
 80014f4:	2301      	movs	r3, #1
 80014f6:	9301      	str	r3, [sp, #4]
 80014f8:	687b      	ldr	r3, [r7, #4]
 80014fa:	9300      	str	r3, [sp, #0]
 80014fc:	2301      	movs	r3, #1
 80014fe:	2212      	movs	r2, #18
 8001500:	2140      	movs	r1, #64	; 0x40
 8001502:	4826      	ldr	r0, [pc, #152]	; (800159c <AbsEncI2CRead+0xe0>)
 8001504:	f001 fbc8 	bl	8002c98 <HAL_I2C_Mem_Read>
						RawRA, 1, 100);
			flag_absenc = 2;
 8001508:	4b23      	ldr	r3, [pc, #140]	; (8001598 <AbsEncI2CRead+0xdc>)
 800150a:	2202      	movs	r2, #2
 800150c:	701a      	strb	r2, [r3, #0]
		break;
 800150e:	e03e      	b.n	800158e <AbsEncI2CRead+0xd2>

		case 2:
			HAL_I2C_Mem_Read(&hi2c1, ADDR_IOXT, 0x13, I2C_MEMADD_SIZE_8BIT,
 8001510:	2364      	movs	r3, #100	; 0x64
 8001512:	9302      	str	r3, [sp, #8]
 8001514:	2301      	movs	r3, #1
 8001516:	9301      	str	r3, [sp, #4]
 8001518:	683b      	ldr	r3, [r7, #0]
 800151a:	9300      	str	r3, [sp, #0]
 800151c:	2301      	movs	r3, #1
 800151e:	2213      	movs	r2, #19
 8001520:	2140      	movs	r1, #64	; 0x40
 8001522:	481e      	ldr	r0, [pc, #120]	; (800159c <AbsEncI2CRead+0xe0>)
 8001524:	f001 fbb8 	bl	8002c98 <HAL_I2C_Mem_Read>
								RawRB, 1, 100);
			flag_absenc = 3;
 8001528:	4b1b      	ldr	r3, [pc, #108]	; (8001598 <AbsEncI2CRead+0xdc>)
 800152a:	2203      	movs	r2, #3
 800152c:	701a      	strb	r2, [r3, #0]
		break;
 800152e:	e02e      	b.n	800158e <AbsEncI2CRead+0xd2>

		case 3:
			GrayCBitx = (RawEnBitB << 8) + RawEnBitA;
 8001530:	4b1b      	ldr	r3, [pc, #108]	; (80015a0 <AbsEncI2CRead+0xe4>)
 8001532:	781b      	ldrb	r3, [r3, #0]
 8001534:	b29b      	uxth	r3, r3
 8001536:	021b      	lsls	r3, r3, #8
 8001538:	b29a      	uxth	r2, r3
 800153a:	4b1a      	ldr	r3, [pc, #104]	; (80015a4 <AbsEncI2CRead+0xe8>)
 800153c:	781b      	ldrb	r3, [r3, #0]
 800153e:	b29b      	uxth	r3, r3
 8001540:	4413      	add	r3, r2
 8001542:	b29a      	uxth	r2, r3
 8001544:	4b18      	ldr	r3, [pc, #96]	; (80015a8 <AbsEncI2CRead+0xec>)
 8001546:	801a      	strh	r2, [r3, #0]
			GrayCBitXI = ~GrayCBitx - 0b1111110000000000; // invert and clear 6 high
 8001548:	4b17      	ldr	r3, [pc, #92]	; (80015a8 <AbsEncI2CRead+0xec>)
 800154a:	881b      	ldrh	r3, [r3, #0]
 800154c:	f5c3 737f 	rsb	r3, r3, #1020	; 0x3fc
 8001550:	3303      	adds	r3, #3
 8001552:	b29a      	uxth	r2, r3
 8001554:	4b15      	ldr	r3, [pc, #84]	; (80015ac <AbsEncI2CRead+0xf0>)
 8001556:	801a      	strh	r2, [r3, #0]
			BinPosx = GraytoBinario(GrayCBitx, 10);
 8001558:	4b13      	ldr	r3, [pc, #76]	; (80015a8 <AbsEncI2CRead+0xec>)
 800155a:	881b      	ldrh	r3, [r3, #0]
 800155c:	210a      	movs	r1, #10
 800155e:	4618      	mov	r0, r3
 8001560:	f7ff fee0 	bl	8001324 <GraytoBinario>
 8001564:	4603      	mov	r3, r0
 8001566:	461a      	mov	r2, r3
 8001568:	4b11      	ldr	r3, [pc, #68]	; (80015b0 <AbsEncI2CRead+0xf4>)
 800156a:	801a      	strh	r2, [r3, #0]
			BinPosXI = GraytoBinario(GrayCBitXI, 10);
 800156c:	4b0f      	ldr	r3, [pc, #60]	; (80015ac <AbsEncI2CRead+0xf0>)
 800156e:	881b      	ldrh	r3, [r3, #0]
 8001570:	210a      	movs	r1, #10
 8001572:	4618      	mov	r0, r3
 8001574:	f7ff fed6 	bl	8001324 <GraytoBinario>
 8001578:	4603      	mov	r3, r0
 800157a:	461a      	mov	r2, r3
 800157c:	4b0d      	ldr	r3, [pc, #52]	; (80015b4 <AbsEncI2CRead+0xf8>)
 800157e:	801a      	strh	r2, [r3, #0]
			flag_absenc = 0;
 8001580:	4b05      	ldr	r3, [pc, #20]	; (8001598 <AbsEncI2CRead+0xdc>)
 8001582:	2200      	movs	r2, #0
 8001584:	701a      	strb	r2, [r3, #0]
			//enccounter++;
		break;
 8001586:	e002      	b.n	800158e <AbsEncI2CRead+0xd2>
		}




	}
 8001588:	bf00      	nop
 800158a:	e000      	b.n	800158e <AbsEncI2CRead+0xd2>
			break;
 800158c:	bf00      	nop
}
 800158e:	bf00      	nop
 8001590:	3708      	adds	r7, #8
 8001592:	46bd      	mov	sp, r7
 8001594:	bd80      	pop	{r7, pc}
 8001596:	bf00      	nop
 8001598:	20000052 	.word	0x20000052
 800159c:	200001d4 	.word	0x200001d4
 80015a0:	20000049 	.word	0x20000049
 80015a4:	20000048 	.word	0x20000048
 80015a8:	2000004a 	.word	0x2000004a
 80015ac:	2000004c 	.word	0x2000004c
 80015b0:	2000004e 	.word	0x2000004e
 80015b4:	20000050 	.word	0x20000050

080015b8 <micros>:
///////////////////////////////////// micro timer////////////////////////////////////
uint64_t micros()
{return _micros + htim11.Instance->CNT;}
 80015b8:	b4b0      	push	{r4, r5, r7}
 80015ba:	af00      	add	r7, sp, #0
 80015bc:	4b09      	ldr	r3, [pc, #36]	; (80015e4 <micros+0x2c>)
 80015be:	681b      	ldr	r3, [r3, #0]
 80015c0:	6a5b      	ldr	r3, [r3, #36]	; 0x24
 80015c2:	4618      	mov	r0, r3
 80015c4:	f04f 0100 	mov.w	r1, #0
 80015c8:	4b07      	ldr	r3, [pc, #28]	; (80015e8 <micros+0x30>)
 80015ca:	e9d3 2300 	ldrd	r2, r3, [r3]
 80015ce:	1884      	adds	r4, r0, r2
 80015d0:	eb41 0503 	adc.w	r5, r1, r3
 80015d4:	4622      	mov	r2, r4
 80015d6:	462b      	mov	r3, r5
 80015d8:	4610      	mov	r0, r2
 80015da:	4619      	mov	r1, r3
 80015dc:	46bd      	mov	sp, r7
 80015de:	bcb0      	pop	{r4, r5, r7}
 80015e0:	4770      	bx	lr
 80015e2:	bf00      	nop
 80015e4:	2000023c 	.word	0x2000023c
 80015e8:	20000120 	.word	0x20000120

080015ec <Error_Handler>:
/**
  * @brief  This function is executed in case of error occurrence.
  * @retval None
  */
void Error_Handler(void)
{
 80015ec:	b480      	push	{r7}
 80015ee:	af00      	add	r7, sp, #0
  \details Disables IRQ interrupts by setting the I-bit in the CPSR.
           Can only be executed in Privileged modes.
 */
__STATIC_FORCEINLINE void __disable_irq(void)
{
  __ASM volatile ("cpsid i" : : : "memory");
 80015f0:	b672      	cpsid	i
}
 80015f2:	bf00      	nop
  /* USER CODE BEGIN Error_Handler_Debug */
  /* User can add his own implementation to report the HAL error return state */
  __disable_irq();
  while (1)
 80015f4:	e7fe      	b.n	80015f4 <Error_Handler+0x8>
	...

080015f8 <HAL_MspInit>:
void HAL_TIM_MspPostInit(TIM_HandleTypeDef *htim);
                    /**
  * Initializes the Global MSP.
  */
void HAL_MspInit(void)
{
 80015f8:	b580      	push	{r7, lr}
 80015fa:	b082      	sub	sp, #8
 80015fc:	af00      	add	r7, sp, #0
  /* USER CODE BEGIN MspInit 0 */

  /* USER CODE END MspInit 0 */

  __HAL_RCC_SYSCFG_CLK_ENABLE();
 80015fe:	2300      	movs	r3, #0
 8001600:	607b      	str	r3, [r7, #4]
 8001602:	4b10      	ldr	r3, [pc, #64]	; (8001644 <HAL_MspInit+0x4c>)
 8001604:	6c5b      	ldr	r3, [r3, #68]	; 0x44
 8001606:	4a0f      	ldr	r2, [pc, #60]	; (8001644 <HAL_MspInit+0x4c>)
 8001608:	f443 4380 	orr.w	r3, r3, #16384	; 0x4000
 800160c:	6453      	str	r3, [r2, #68]	; 0x44
 800160e:	4b0d      	ldr	r3, [pc, #52]	; (8001644 <HAL_MspInit+0x4c>)
 8001610:	6c5b      	ldr	r3, [r3, #68]	; 0x44
 8001612:	f403 4380 	and.w	r3, r3, #16384	; 0x4000
 8001616:	607b      	str	r3, [r7, #4]
 8001618:	687b      	ldr	r3, [r7, #4]
  __HAL_RCC_PWR_CLK_ENABLE();
 800161a:	2300      	movs	r3, #0
 800161c:	603b      	str	r3, [r7, #0]
 800161e:	4b09      	ldr	r3, [pc, #36]	; (8001644 <HAL_MspInit+0x4c>)
 8001620:	6c1b      	ldr	r3, [r3, #64]	; 0x40
 8001622:	4a08      	ldr	r2, [pc, #32]	; (8001644 <HAL_MspInit+0x4c>)
 8001624:	f043 5380 	orr.w	r3, r3, #268435456	; 0x10000000
 8001628:	6413      	str	r3, [r2, #64]	; 0x40
 800162a:	4b06      	ldr	r3, [pc, #24]	; (8001644 <HAL_MspInit+0x4c>)
 800162c:	6c1b      	ldr	r3, [r3, #64]	; 0x40
 800162e:	f003 5380 	and.w	r3, r3, #268435456	; 0x10000000
 8001632:	603b      	str	r3, [r7, #0]
 8001634:	683b      	ldr	r3, [r7, #0]

  HAL_NVIC_SetPriorityGrouping(NVIC_PRIORITYGROUP_0);
 8001636:	2007      	movs	r0, #7
 8001638:	f000 fb70 	bl	8001d1c <HAL_NVIC_SetPriorityGrouping>
  /* System interrupt init*/

  /* USER CODE BEGIN MspInit 1 */

  /* USER CODE END MspInit 1 */
}
 800163c:	bf00      	nop
 800163e:	3708      	adds	r7, #8
 8001640:	46bd      	mov	sp, r7
 8001642:	bd80      	pop	{r7, pc}
 8001644:	40023800 	.word	0x40023800

08001648 <HAL_I2C_MspInit>:
* This function configures the hardware resources used in this example
* @param hi2c: I2C handle pointer
* @retval None
*/
void HAL_I2C_MspInit(I2C_HandleTypeDef* hi2c)
{
 8001648:	b580      	push	{r7, lr}
 800164a:	b08a      	sub	sp, #40	; 0x28
 800164c:	af00      	add	r7, sp, #0
 800164e:	6078      	str	r0, [r7, #4]
  GPIO_InitTypeDef GPIO_InitStruct = {0};
 8001650:	f107 0314 	add.w	r3, r7, #20
 8001654:	2200      	movs	r2, #0
 8001656:	601a      	str	r2, [r3, #0]
 8001658:	605a      	str	r2, [r3, #4]
 800165a:	609a      	str	r2, [r3, #8]
 800165c:	60da      	str	r2, [r3, #12]
 800165e:	611a      	str	r2, [r3, #16]
  if(hi2c->Instance==I2C1)
 8001660:	687b      	ldr	r3, [r7, #4]
 8001662:	681b      	ldr	r3, [r3, #0]
 8001664:	4a21      	ldr	r2, [pc, #132]	; (80016ec <HAL_I2C_MspInit+0xa4>)
 8001666:	4293      	cmp	r3, r2
 8001668:	d13c      	bne.n	80016e4 <HAL_I2C_MspInit+0x9c>
  {
  /* USER CODE BEGIN I2C1_MspInit 0 */

  /* USER CODE END I2C1_MspInit 0 */

    __HAL_RCC_GPIOB_CLK_ENABLE();
 800166a:	2300      	movs	r3, #0
 800166c:	613b      	str	r3, [r7, #16]
 800166e:	4b20      	ldr	r3, [pc, #128]	; (80016f0 <HAL_I2C_MspInit+0xa8>)
 8001670:	6b1b      	ldr	r3, [r3, #48]	; 0x30
 8001672:	4a1f      	ldr	r2, [pc, #124]	; (80016f0 <HAL_I2C_MspInit+0xa8>)
 8001674:	f043 0302 	orr.w	r3, r3, #2
 8001678:	6313      	str	r3, [r2, #48]	; 0x30
 800167a:	4b1d      	ldr	r3, [pc, #116]	; (80016f0 <HAL_I2C_MspInit+0xa8>)
 800167c:	6b1b      	ldr	r3, [r3, #48]	; 0x30
 800167e:	f003 0302 	and.w	r3, r3, #2
 8001682:	613b      	str	r3, [r7, #16]
 8001684:	693b      	ldr	r3, [r7, #16]
    /**I2C1 GPIO Configuration
    PB8     ------> I2C1_SCL
    PB9     ------> I2C1_SDA
    */
    GPIO_InitStruct.Pin = GPIO_PIN_8|GPIO_PIN_9;
 8001686:	f44f 7340 	mov.w	r3, #768	; 0x300
 800168a:	617b      	str	r3, [r7, #20]
    GPIO_InitStruct.Mode = GPIO_MODE_AF_OD;
 800168c:	2312      	movs	r3, #18
 800168e:	61bb      	str	r3, [r7, #24]
    GPIO_InitStruct.Pull = GPIO_NOPULL;
 8001690:	2300      	movs	r3, #0
 8001692:	61fb      	str	r3, [r7, #28]
    GPIO_InitStruct.Speed = GPIO_SPEED_FREQ_VERY_HIGH;
 8001694:	2303      	movs	r3, #3
 8001696:	623b      	str	r3, [r7, #32]
    GPIO_InitStruct.Alternate = GPIO_AF4_I2C1;
 8001698:	2304      	movs	r3, #4
 800169a:	627b      	str	r3, [r7, #36]	; 0x24
    HAL_GPIO_Init(GPIOB, &GPIO_InitStruct);
 800169c:	f107 0314 	add.w	r3, r7, #20
 80016a0:	4619      	mov	r1, r3
 80016a2:	4814      	ldr	r0, [pc, #80]	; (80016f4 <HAL_I2C_MspInit+0xac>)
 80016a4:	f000 ff1c 	bl	80024e0 <HAL_GPIO_Init>

    /* Peripheral clock enable */
    __HAL_RCC_I2C1_CLK_ENABLE();
 80016a8:	2300      	movs	r3, #0
 80016aa:	60fb      	str	r3, [r7, #12]
 80016ac:	4b10      	ldr	r3, [pc, #64]	; (80016f0 <HAL_I2C_MspInit+0xa8>)
 80016ae:	6c1b      	ldr	r3, [r3, #64]	; 0x40
 80016b0:	4a0f      	ldr	r2, [pc, #60]	; (80016f0 <HAL_I2C_MspInit+0xa8>)
 80016b2:	f443 1300 	orr.w	r3, r3, #2097152	; 0x200000
 80016b6:	6413      	str	r3, [r2, #64]	; 0x40
 80016b8:	4b0d      	ldr	r3, [pc, #52]	; (80016f0 <HAL_I2C_MspInit+0xa8>)
 80016ba:	6c1b      	ldr	r3, [r3, #64]	; 0x40
 80016bc:	f403 1300 	and.w	r3, r3, #2097152	; 0x200000
 80016c0:	60fb      	str	r3, [r7, #12]
 80016c2:	68fb      	ldr	r3, [r7, #12]
    /* I2C1 interrupt Init */
    HAL_NVIC_SetPriority(I2C1_EV_IRQn, 0, 0);
 80016c4:	2200      	movs	r2, #0
 80016c6:	2100      	movs	r1, #0
 80016c8:	201f      	movs	r0, #31
 80016ca:	f000 fb32 	bl	8001d32 <HAL_NVIC_SetPriority>
    HAL_NVIC_EnableIRQ(I2C1_EV_IRQn);
 80016ce:	201f      	movs	r0, #31
 80016d0:	f000 fb4b 	bl	8001d6a <HAL_NVIC_EnableIRQ>
    HAL_NVIC_SetPriority(I2C1_ER_IRQn, 0, 0);
 80016d4:	2200      	movs	r2, #0
 80016d6:	2100      	movs	r1, #0
 80016d8:	2020      	movs	r0, #32
 80016da:	f000 fb2a 	bl	8001d32 <HAL_NVIC_SetPriority>
    HAL_NVIC_EnableIRQ(I2C1_ER_IRQn);
 80016de:	2020      	movs	r0, #32
 80016e0:	f000 fb43 	bl	8001d6a <HAL_NVIC_EnableIRQ>
  /* USER CODE BEGIN I2C1_MspInit 1 */

  /* USER CODE END I2C1_MspInit 1 */
  }

}
 80016e4:	bf00      	nop
 80016e6:	3728      	adds	r7, #40	; 0x28
 80016e8:	46bd      	mov	sp, r7
 80016ea:	bd80      	pop	{r7, pc}
 80016ec:	40005400 	.word	0x40005400
 80016f0:	40023800 	.word	0x40023800
 80016f4:	40020400 	.word	0x40020400

080016f8 <HAL_TIM_Base_MspInit>:
* This function configures the hardware resources used in this example
* @param htim_base: TIM_Base handle pointer
* @retval None
*/
void HAL_TIM_Base_MspInit(TIM_HandleTypeDef* htim_base)
{
 80016f8:	b580      	push	{r7, lr}
 80016fa:	b08c      	sub	sp, #48	; 0x30
 80016fc:	af00      	add	r7, sp, #0
 80016fe:	6078      	str	r0, [r7, #4]
  GPIO_InitTypeDef GPIO_InitStruct = {0};
 8001700:	f107 031c 	add.w	r3, r7, #28
 8001704:	2200      	movs	r2, #0
 8001706:	601a      	str	r2, [r3, #0]
 8001708:	605a      	str	r2, [r3, #4]
 800170a:	609a      	str	r2, [r3, #8]
 800170c:	60da      	str	r2, [r3, #12]
 800170e:	611a      	str	r2, [r3, #16]
  if(htim_base->Instance==TIM2)
 8001710:	687b      	ldr	r3, [r7, #4]
 8001712:	681b      	ldr	r3, [r3, #0]
 8001714:	f1b3 4f80 	cmp.w	r3, #1073741824	; 0x40000000
 8001718:	d15d      	bne.n	80017d6 <HAL_TIM_Base_MspInit+0xde>
  {
  /* USER CODE BEGIN TIM2_MspInit 0 */

  /* USER CODE END TIM2_MspInit 0 */
    /* Peripheral clock enable */
    __HAL_RCC_TIM2_CLK_ENABLE();
 800171a:	2300      	movs	r3, #0
 800171c:	61bb      	str	r3, [r7, #24]
 800171e:	4b43      	ldr	r3, [pc, #268]	; (800182c <HAL_TIM_Base_MspInit+0x134>)
 8001720:	6c1b      	ldr	r3, [r3, #64]	; 0x40
 8001722:	4a42      	ldr	r2, [pc, #264]	; (800182c <HAL_TIM_Base_MspInit+0x134>)
 8001724:	f043 0301 	orr.w	r3, r3, #1
 8001728:	6413      	str	r3, [r2, #64]	; 0x40
 800172a:	4b40      	ldr	r3, [pc, #256]	; (800182c <HAL_TIM_Base_MspInit+0x134>)
 800172c:	6c1b      	ldr	r3, [r3, #64]	; 0x40
 800172e:	f003 0301 	and.w	r3, r3, #1
 8001732:	61bb      	str	r3, [r7, #24]
 8001734:	69bb      	ldr	r3, [r7, #24]

    __HAL_RCC_GPIOA_CLK_ENABLE();
 8001736:	2300      	movs	r3, #0
 8001738:	617b      	str	r3, [r7, #20]
 800173a:	4b3c      	ldr	r3, [pc, #240]	; (800182c <HAL_TIM_Base_MspInit+0x134>)
 800173c:	6b1b      	ldr	r3, [r3, #48]	; 0x30
 800173e:	4a3b      	ldr	r2, [pc, #236]	; (800182c <HAL_TIM_Base_MspInit+0x134>)
 8001740:	f043 0301 	orr.w	r3, r3, #1
 8001744:	6313      	str	r3, [r2, #48]	; 0x30
 8001746:	4b39      	ldr	r3, [pc, #228]	; (800182c <HAL_TIM_Base_MspInit+0x134>)
 8001748:	6b1b      	ldr	r3, [r3, #48]	; 0x30
 800174a:	f003 0301 	and.w	r3, r3, #1
 800174e:	617b      	str	r3, [r7, #20]
 8001750:	697b      	ldr	r3, [r7, #20]
    /**TIM2 GPIO Configuration
    PA0-WKUP     ------> TIM2_CH1
    */
    GPIO_InitStruct.Pin = GPIO_PIN_0;
 8001752:	2301      	movs	r3, #1
 8001754:	61fb      	str	r3, [r7, #28]
    GPIO_InitStruct.Mode = GPIO_MODE_AF_PP;
 8001756:	2302      	movs	r3, #2
 8001758:	623b      	str	r3, [r7, #32]
    GPIO_InitStruct.Pull = GPIO_NOPULL;
 800175a:	2300      	movs	r3, #0
 800175c:	627b      	str	r3, [r7, #36]	; 0x24
    GPIO_InitStruct.Speed = GPIO_SPEED_FREQ_LOW;
 800175e:	2300      	movs	r3, #0
 8001760:	62bb      	str	r3, [r7, #40]	; 0x28
    GPIO_InitStruct.Alternate = GPIO_AF1_TIM2;
 8001762:	2301      	movs	r3, #1
 8001764:	62fb      	str	r3, [r7, #44]	; 0x2c
    HAL_GPIO_Init(GPIOA, &GPIO_InitStruct);
 8001766:	f107 031c 	add.w	r3, r7, #28
 800176a:	4619      	mov	r1, r3
 800176c:	4830      	ldr	r0, [pc, #192]	; (8001830 <HAL_TIM_Base_MspInit+0x138>)
 800176e:	f000 feb7 	bl	80024e0 <HAL_GPIO_Init>

    /* TIM2 DMA Init */
    /* TIM2_CH1 Init */
    hdma_tim2_ch1.Instance = DMA1_Stream5;
 8001772:	4b30      	ldr	r3, [pc, #192]	; (8001834 <HAL_TIM_Base_MspInit+0x13c>)
 8001774:	4a30      	ldr	r2, [pc, #192]	; (8001838 <HAL_TIM_Base_MspInit+0x140>)
 8001776:	601a      	str	r2, [r3, #0]
    hdma_tim2_ch1.Init.Channel = DMA_CHANNEL_3;
 8001778:	4b2e      	ldr	r3, [pc, #184]	; (8001834 <HAL_TIM_Base_MspInit+0x13c>)
 800177a:	f04f 62c0 	mov.w	r2, #100663296	; 0x6000000
 800177e:	605a      	str	r2, [r3, #4]
    hdma_tim2_ch1.Init.Direction = DMA_PERIPH_TO_MEMORY;
 8001780:	4b2c      	ldr	r3, [pc, #176]	; (8001834 <HAL_TIM_Base_MspInit+0x13c>)
 8001782:	2200      	movs	r2, #0
 8001784:	609a      	str	r2, [r3, #8]
    hdma_tim2_ch1.Init.PeriphInc = DMA_PINC_DISABLE;
 8001786:	4b2b      	ldr	r3, [pc, #172]	; (8001834 <HAL_TIM_Base_MspInit+0x13c>)
 8001788:	2200      	movs	r2, #0
 800178a:	60da      	str	r2, [r3, #12]
    hdma_tim2_ch1.Init.MemInc = DMA_MINC_ENABLE;
 800178c:	4b29      	ldr	r3, [pc, #164]	; (8001834 <HAL_TIM_Base_MspInit+0x13c>)
 800178e:	f44f 6280 	mov.w	r2, #1024	; 0x400
 8001792:	611a      	str	r2, [r3, #16]
    hdma_tim2_ch1.Init.PeriphDataAlignment = DMA_PDATAALIGN_WORD;
 8001794:	4b27      	ldr	r3, [pc, #156]	; (8001834 <HAL_TIM_Base_MspInit+0x13c>)
 8001796:	f44f 5280 	mov.w	r2, #4096	; 0x1000
 800179a:	615a      	str	r2, [r3, #20]
    hdma_tim2_ch1.Init.MemDataAlignment = DMA_MDATAALIGN_WORD;
 800179c:	4b25      	ldr	r3, [pc, #148]	; (8001834 <HAL_TIM_Base_MspInit+0x13c>)
 800179e:	f44f 4280 	mov.w	r2, #16384	; 0x4000
 80017a2:	619a      	str	r2, [r3, #24]
    hdma_tim2_ch1.Init.Mode = DMA_CIRCULAR;
 80017a4:	4b23      	ldr	r3, [pc, #140]	; (8001834 <HAL_TIM_Base_MspInit+0x13c>)
 80017a6:	f44f 7280 	mov.w	r2, #256	; 0x100
 80017aa:	61da      	str	r2, [r3, #28]
    hdma_tim2_ch1.Init.Priority = DMA_PRIORITY_LOW;
 80017ac:	4b21      	ldr	r3, [pc, #132]	; (8001834 <HAL_TIM_Base_MspInit+0x13c>)
 80017ae:	2200      	movs	r2, #0
 80017b0:	621a      	str	r2, [r3, #32]
    hdma_tim2_ch1.Init.FIFOMode = DMA_FIFOMODE_DISABLE;
 80017b2:	4b20      	ldr	r3, [pc, #128]	; (8001834 <HAL_TIM_Base_MspInit+0x13c>)
 80017b4:	2200      	movs	r2, #0
 80017b6:	625a      	str	r2, [r3, #36]	; 0x24
    if (HAL_DMA_Init(&hdma_tim2_ch1) != HAL_OK)
 80017b8:	481e      	ldr	r0, [pc, #120]	; (8001834 <HAL_TIM_Base_MspInit+0x13c>)
 80017ba:	f000 faf1 	bl	8001da0 <HAL_DMA_Init>
 80017be:	4603      	mov	r3, r0
 80017c0:	2b00      	cmp	r3, #0
 80017c2:	d001      	beq.n	80017c8 <HAL_TIM_Base_MspInit+0xd0>
    {
      Error_Handler();
 80017c4:	f7ff ff12 	bl	80015ec <Error_Handler>
    }

    __HAL_LINKDMA(htim_base,hdma[TIM_DMA_ID_CC1],hdma_tim2_ch1);
 80017c8:	687b      	ldr	r3, [r7, #4]
 80017ca:	4a1a      	ldr	r2, [pc, #104]	; (8001834 <HAL_TIM_Base_MspInit+0x13c>)
 80017cc:	625a      	str	r2, [r3, #36]	; 0x24
 80017ce:	4a19      	ldr	r2, [pc, #100]	; (8001834 <HAL_TIM_Base_MspInit+0x13c>)
 80017d0:	687b      	ldr	r3, [r7, #4]
 80017d2:	6393      	str	r3, [r2, #56]	; 0x38
  /* USER CODE BEGIN TIM11_MspInit 1 */

  /* USER CODE END TIM11_MspInit 1 */
  }

}
 80017d4:	e026      	b.n	8001824 <HAL_TIM_Base_MspInit+0x12c>
  else if(htim_base->Instance==TIM4)
 80017d6:	687b      	ldr	r3, [r7, #4]
 80017d8:	681b      	ldr	r3, [r3, #0]
 80017da:	4a18      	ldr	r2, [pc, #96]	; (800183c <HAL_TIM_Base_MspInit+0x144>)
 80017dc:	4293      	cmp	r3, r2
 80017de:	d10e      	bne.n	80017fe <HAL_TIM_Base_MspInit+0x106>
    __HAL_RCC_TIM4_CLK_ENABLE();
 80017e0:	2300      	movs	r3, #0
 80017e2:	613b      	str	r3, [r7, #16]
 80017e4:	4b11      	ldr	r3, [pc, #68]	; (800182c <HAL_TIM_Base_MspInit+0x134>)
 80017e6:	6c1b      	ldr	r3, [r3, #64]	; 0x40
 80017e8:	4a10      	ldr	r2, [pc, #64]	; (800182c <HAL_TIM_Base_MspInit+0x134>)
 80017ea:	f043 0304 	orr.w	r3, r3, #4
 80017ee:	6413      	str	r3, [r2, #64]	; 0x40
 80017f0:	4b0e      	ldr	r3, [pc, #56]	; (800182c <HAL_TIM_Base_MspInit+0x134>)
 80017f2:	6c1b      	ldr	r3, [r3, #64]	; 0x40
 80017f4:	f003 0304 	and.w	r3, r3, #4
 80017f8:	613b      	str	r3, [r7, #16]
 80017fa:	693b      	ldr	r3, [r7, #16]
}
 80017fc:	e012      	b.n	8001824 <HAL_TIM_Base_MspInit+0x12c>
  else if(htim_base->Instance==TIM11)
 80017fe:	687b      	ldr	r3, [r7, #4]
 8001800:	681b      	ldr	r3, [r3, #0]
 8001802:	4a0f      	ldr	r2, [pc, #60]	; (8001840 <HAL_TIM_Base_MspInit+0x148>)
 8001804:	4293      	cmp	r3, r2
 8001806:	d10d      	bne.n	8001824 <HAL_TIM_Base_MspInit+0x12c>
    __HAL_RCC_TIM11_CLK_ENABLE();
 8001808:	2300      	movs	r3, #0
 800180a:	60fb      	str	r3, [r7, #12]
 800180c:	4b07      	ldr	r3, [pc, #28]	; (800182c <HAL_TIM_Base_MspInit+0x134>)
 800180e:	6c5b      	ldr	r3, [r3, #68]	; 0x44
 8001810:	4a06      	ldr	r2, [pc, #24]	; (800182c <HAL_TIM_Base_MspInit+0x134>)
 8001812:	f443 2380 	orr.w	r3, r3, #262144	; 0x40000
 8001816:	6453      	str	r3, [r2, #68]	; 0x44
 8001818:	4b04      	ldr	r3, [pc, #16]	; (800182c <HAL_TIM_Base_MspInit+0x134>)
 800181a:	6c5b      	ldr	r3, [r3, #68]	; 0x44
 800181c:	f403 2380 	and.w	r3, r3, #262144	; 0x40000
 8001820:	60fb      	str	r3, [r7, #12]
 8001822:	68fb      	ldr	r3, [r7, #12]
}
 8001824:	bf00      	nop
 8001826:	3730      	adds	r7, #48	; 0x30
 8001828:	46bd      	mov	sp, r7
 800182a:	bd80      	pop	{r7, pc}
 800182c:	40023800 	.word	0x40023800
 8001830:	40020000 	.word	0x40020000
 8001834:	20000128 	.word	0x20000128
 8001838:	40026088 	.word	0x40026088
 800183c:	40000800 	.word	0x40000800
 8001840:	40014800 	.word	0x40014800

08001844 <HAL_TIM_MspPostInit>:

void HAL_TIM_MspPostInit(TIM_HandleTypeDef* htim)
{
 8001844:	b580      	push	{r7, lr}
 8001846:	b088      	sub	sp, #32
 8001848:	af00      	add	r7, sp, #0
 800184a:	6078      	str	r0, [r7, #4]
  GPIO_InitTypeDef GPIO_InitStruct = {0};
 800184c:	f107 030c 	add.w	r3, r7, #12
 8001850:	2200      	movs	r2, #0
 8001852:	601a      	str	r2, [r3, #0]
 8001854:	605a      	str	r2, [r3, #4]
 8001856:	609a      	str	r2, [r3, #8]
 8001858:	60da      	str	r2, [r3, #12]
 800185a:	611a      	str	r2, [r3, #16]
  if(htim->Instance==TIM4)
 800185c:	687b      	ldr	r3, [r7, #4]
 800185e:	681b      	ldr	r3, [r3, #0]
 8001860:	4a12      	ldr	r2, [pc, #72]	; (80018ac <HAL_TIM_MspPostInit+0x68>)
 8001862:	4293      	cmp	r3, r2
 8001864:	d11d      	bne.n	80018a2 <HAL_TIM_MspPostInit+0x5e>
  {
  /* USER CODE BEGIN TIM4_MspPostInit 0 */

  /* USER CODE END TIM4_MspPostInit 0 */

    __HAL_RCC_GPIOB_CLK_ENABLE();
 8001866:	2300      	movs	r3, #0
 8001868:	60bb      	str	r3, [r7, #8]
 800186a:	4b11      	ldr	r3, [pc, #68]	; (80018b0 <HAL_TIM_MspPostInit+0x6c>)
 800186c:	6b1b      	ldr	r3, [r3, #48]	; 0x30
 800186e:	4a10      	ldr	r2, [pc, #64]	; (80018b0 <HAL_TIM_MspPostInit+0x6c>)
 8001870:	f043 0302 	orr.w	r3, r3, #2
 8001874:	6313      	str	r3, [r2, #48]	; 0x30
 8001876:	4b0e      	ldr	r3, [pc, #56]	; (80018b0 <HAL_TIM_MspPostInit+0x6c>)
 8001878:	6b1b      	ldr	r3, [r3, #48]	; 0x30
 800187a:	f003 0302 	and.w	r3, r3, #2
 800187e:	60bb      	str	r3, [r7, #8]
 8001880:	68bb      	ldr	r3, [r7, #8]
    /**TIM4 GPIO Configuration
    PB6     ------> TIM4_CH1
    */
    GPIO_InitStruct.Pin = TIM4_CH1_PWMMOT_Pin;
 8001882:	2340      	movs	r3, #64	; 0x40
 8001884:	60fb      	str	r3, [r7, #12]
    GPIO_InitStruct.Mode = GPIO_MODE_AF_PP;
 8001886:	2302      	movs	r3, #2
 8001888:	613b      	str	r3, [r7, #16]
    GPIO_InitStruct.Pull = GPIO_NOPULL;
 800188a:	2300      	movs	r3, #0
 800188c:	617b      	str	r3, [r7, #20]
    GPIO_InitStruct.Speed = GPIO_SPEED_FREQ_LOW;
 800188e:	2300      	movs	r3, #0
 8001890:	61bb      	str	r3, [r7, #24]
    GPIO_InitStruct.Alternate = GPIO_AF2_TIM4;
 8001892:	2302      	movs	r3, #2
 8001894:	61fb      	str	r3, [r7, #28]
    HAL_GPIO_Init(TIM4_CH1_PWMMOT_GPIO_Port, &GPIO_InitStruct);
 8001896:	f107 030c 	add.w	r3, r7, #12
 800189a:	4619      	mov	r1, r3
 800189c:	4805      	ldr	r0, [pc, #20]	; (80018b4 <HAL_TIM_MspPostInit+0x70>)
 800189e:	f000 fe1f 	bl	80024e0 <HAL_GPIO_Init>
  /* USER CODE BEGIN TIM4_MspPostInit 1 */

  /* USER CODE END TIM4_MspPostInit 1 */
  }

}
 80018a2:	bf00      	nop
 80018a4:	3720      	adds	r7, #32
 80018a6:	46bd      	mov	sp, r7
 80018a8:	bd80      	pop	{r7, pc}
 80018aa:	bf00      	nop
 80018ac:	40000800 	.word	0x40000800
 80018b0:	40023800 	.word	0x40023800
 80018b4:	40020400 	.word	0x40020400

080018b8 <HAL_UART_MspInit>:
* This function configures the hardware resources used in this example
* @param huart: UART handle pointer
* @retval None
*/
void HAL_UART_MspInit(UART_HandleTypeDef* huart)
{
 80018b8:	b580      	push	{r7, lr}
 80018ba:	b08a      	sub	sp, #40	; 0x28
 80018bc:	af00      	add	r7, sp, #0
 80018be:	6078      	str	r0, [r7, #4]
  GPIO_InitTypeDef GPIO_InitStruct = {0};
 80018c0:	f107 0314 	add.w	r3, r7, #20
 80018c4:	2200      	movs	r2, #0
 80018c6:	601a      	str	r2, [r3, #0]
 80018c8:	605a      	str	r2, [r3, #4]
 80018ca:	609a      	str	r2, [r3, #8]
 80018cc:	60da      	str	r2, [r3, #12]
 80018ce:	611a      	str	r2, [r3, #16]
  if(huart->Instance==USART2)
 80018d0:	687b      	ldr	r3, [r7, #4]
 80018d2:	681b      	ldr	r3, [r3, #0]
 80018d4:	4a19      	ldr	r2, [pc, #100]	; (800193c <HAL_UART_MspInit+0x84>)
 80018d6:	4293      	cmp	r3, r2
 80018d8:	d12b      	bne.n	8001932 <HAL_UART_MspInit+0x7a>
  {
  /* USER CODE BEGIN USART2_MspInit 0 */

  /* USER CODE END USART2_MspInit 0 */
    /* Peripheral clock enable */
    __HAL_RCC_USART2_CLK_ENABLE();
 80018da:	2300      	movs	r3, #0
 80018dc:	613b      	str	r3, [r7, #16]
 80018de:	4b18      	ldr	r3, [pc, #96]	; (8001940 <HAL_UART_MspInit+0x88>)
 80018e0:	6c1b      	ldr	r3, [r3, #64]	; 0x40
 80018e2:	4a17      	ldr	r2, [pc, #92]	; (8001940 <HAL_UART_MspInit+0x88>)
 80018e4:	f443 3300 	orr.w	r3, r3, #131072	; 0x20000
 80018e8:	6413      	str	r3, [r2, #64]	; 0x40
 80018ea:	4b15      	ldr	r3, [pc, #84]	; (8001940 <HAL_UART_MspInit+0x88>)
 80018ec:	6c1b      	ldr	r3, [r3, #64]	; 0x40
 80018ee:	f403 3300 	and.w	r3, r3, #131072	; 0x20000
 80018f2:	613b      	str	r3, [r7, #16]
 80018f4:	693b      	ldr	r3, [r7, #16]

    __HAL_RCC_GPIOA_CLK_ENABLE();
 80018f6:	2300      	movs	r3, #0
 80018f8:	60fb      	str	r3, [r7, #12]
 80018fa:	4b11      	ldr	r3, [pc, #68]	; (8001940 <HAL_UART_MspInit+0x88>)
 80018fc:	6b1b      	ldr	r3, [r3, #48]	; 0x30
 80018fe:	4a10      	ldr	r2, [pc, #64]	; (8001940 <HAL_UART_MspInit+0x88>)
 8001900:	f043 0301 	orr.w	r3, r3, #1
 8001904:	6313      	str	r3, [r2, #48]	; 0x30
 8001906:	4b0e      	ldr	r3, [pc, #56]	; (8001940 <HAL_UART_MspInit+0x88>)
 8001908:	6b1b      	ldr	r3, [r3, #48]	; 0x30
 800190a:	f003 0301 	and.w	r3, r3, #1
 800190e:	60fb      	str	r3, [r7, #12]
 8001910:	68fb      	ldr	r3, [r7, #12]
    /**USART2 GPIO Configuration
    PA2     ------> USART2_TX
    PA3     ------> USART2_RX
    */
    GPIO_InitStruct.Pin = USART_TX_Pin|USART_RX_Pin;
 8001912:	230c      	movs	r3, #12
 8001914:	617b      	str	r3, [r7, #20]
    GPIO_InitStruct.Mode = GPIO_MODE_AF_PP;
 8001916:	2302      	movs	r3, #2
 8001918:	61bb      	str	r3, [r7, #24]
    GPIO_InitStruct.Pull = GPIO_NOPULL;
 800191a:	2300      	movs	r3, #0
 800191c:	61fb      	str	r3, [r7, #28]
    GPIO_InitStruct.Speed = GPIO_SPEED_FREQ_VERY_HIGH;
 800191e:	2303      	movs	r3, #3
 8001920:	623b      	str	r3, [r7, #32]
    GPIO_InitStruct.Alternate = GPIO_AF7_USART2;
 8001922:	2307      	movs	r3, #7
 8001924:	627b      	str	r3, [r7, #36]	; 0x24
    HAL_GPIO_Init(GPIOA, &GPIO_InitStruct);
 8001926:	f107 0314 	add.w	r3, r7, #20
 800192a:	4619      	mov	r1, r3
 800192c:	4805      	ldr	r0, [pc, #20]	; (8001944 <HAL_UART_MspInit+0x8c>)
 800192e:	f000 fdd7 	bl	80024e0 <HAL_GPIO_Init>
  /* USER CODE BEGIN USART2_MspInit 1 */

  /* USER CODE END USART2_MspInit 1 */
  }

}
 8001932:	bf00      	nop
 8001934:	3728      	adds	r7, #40	; 0x28
 8001936:	46bd      	mov	sp, r7
 8001938:	bd80      	pop	{r7, pc}
 800193a:	bf00      	nop
 800193c:	40004400 	.word	0x40004400
 8001940:	40023800 	.word	0x40023800
 8001944:	40020000 	.word	0x40020000

08001948 <NMI_Handler>:
/******************************************************************************/
/**
  * @brief This function handles Non maskable interrupt.
  */
void NMI_Handler(void)
{
 8001948:	b480      	push	{r7}
 800194a:	af00      	add	r7, sp, #0
  /* USER CODE BEGIN NonMaskableInt_IRQn 0 */

  /* USER CODE END NonMaskableInt_IRQn 0 */
  /* USER CODE BEGIN NonMaskableInt_IRQn 1 */
  while (1)
 800194c:	e7fe      	b.n	800194c <NMI_Handler+0x4>

0800194e <HardFault_Handler>:

/**
  * @brief This function handles Hard fault interrupt.
  */
void HardFault_Handler(void)
{
 800194e:	b480      	push	{r7}
 8001950:	af00      	add	r7, sp, #0
  /* USER CODE BEGIN HardFault_IRQn 0 */

  /* USER CODE END HardFault_IRQn 0 */
  while (1)
 8001952:	e7fe      	b.n	8001952 <HardFault_Handler+0x4>

08001954 <MemManage_Handler>:

/**
  * @brief This function handles Memory management fault.
  */
void MemManage_Handler(void)
{
 8001954:	b480      	push	{r7}
 8001956:	af00      	add	r7, sp, #0
  /* USER CODE BEGIN MemoryManagement_IRQn 0 */

  /* USER CODE END MemoryManagement_IRQn 0 */
  while (1)
 8001958:	e7fe      	b.n	8001958 <MemManage_Handler+0x4>

0800195a <BusFault_Handler>:

/**
  * @brief This function handles Pre-fetch fault, memory access fault.
  */
void BusFault_Handler(void)
{
 800195a:	b480      	push	{r7}
 800195c:	af00      	add	r7, sp, #0
  /* USER CODE BEGIN BusFault_IRQn 0 */

  /* USER CODE END BusFault_IRQn 0 */
  while (1)
 800195e:	e7fe      	b.n	800195e <BusFault_Handler+0x4>

08001960 <UsageFault_Handler>:

/**
  * @brief This function handles Undefined instruction or illegal state.
  */
void UsageFault_Handler(void)
{
 8001960:	b480      	push	{r7}
 8001962:	af00      	add	r7, sp, #0
  /* USER CODE BEGIN UsageFault_IRQn 0 */

  /* USER CODE END UsageFault_IRQn 0 */
  while (1)
 8001964:	e7fe      	b.n	8001964 <UsageFault_Handler+0x4>

08001966 <SVC_Handler>:

/**
  * @brief This function handles System service call via SWI instruction.
  */
void SVC_Handler(void)
{
 8001966:	b480      	push	{r7}
 8001968:	af00      	add	r7, sp, #0

  /* USER CODE END SVCall_IRQn 0 */
  /* USER CODE BEGIN SVCall_IRQn 1 */

  /* USER CODE END SVCall_IRQn 1 */
}
 800196a:	bf00      	nop
 800196c:	46bd      	mov	sp, r7
 800196e:	f85d 7b04 	ldr.w	r7, [sp], #4
 8001972:	4770      	bx	lr

08001974 <DebugMon_Handler>:

/**
  * @brief This function handles Debug monitor.
  */
void DebugMon_Handler(void)
{
 8001974:	b480      	push	{r7}
 8001976:	af00      	add	r7, sp, #0

  /* USER CODE END DebugMonitor_IRQn 0 */
  /* USER CODE BEGIN DebugMonitor_IRQn 1 */

  /* USER CODE END DebugMonitor_IRQn 1 */
}
 8001978:	bf00      	nop
 800197a:	46bd      	mov	sp, r7
 800197c:	f85d 7b04 	ldr.w	r7, [sp], #4
 8001980:	4770      	bx	lr

08001982 <PendSV_Handler>:

/**
  * @brief This function handles Pendable request for system service.
  */
void PendSV_Handler(void)
{
 8001982:	b480      	push	{r7}
 8001984:	af00      	add	r7, sp, #0

  /* USER CODE END PendSV_IRQn 0 */
  /* USER CODE BEGIN PendSV_IRQn 1 */

  /* USER CODE END PendSV_IRQn 1 */
}
 8001986:	bf00      	nop
 8001988:	46bd      	mov	sp, r7
 800198a:	f85d 7b04 	ldr.w	r7, [sp], #4
 800198e:	4770      	bx	lr

08001990 <SysTick_Handler>:

/**
  * @brief This function handles System tick timer.
  */
void SysTick_Handler(void)
{
 8001990:	b580      	push	{r7, lr}
 8001992:	af00      	add	r7, sp, #0
  /* USER CODE BEGIN SysTick_IRQn 0 */

  /* USER CODE END SysTick_IRQn 0 */
  HAL_IncTick();
 8001994:	f000 f8ae 	bl	8001af4 <HAL_IncTick>
  /* USER CODE BEGIN SysTick_IRQn 1 */

  /* USER CODE END SysTick_IRQn 1 */
}
 8001998:	bf00      	nop
 800199a:	bd80      	pop	{r7, pc}

0800199c <DMA1_Stream5_IRQHandler>:

/**
  * @brief This function handles DMA1 stream5 global interrupt.
  */
void DMA1_Stream5_IRQHandler(void)
{
 800199c:	b580      	push	{r7, lr}
 800199e:	af00      	add	r7, sp, #0
  /* USER CODE BEGIN DMA1_Stream5_IRQn 0 */

  /* USER CODE END DMA1_Stream5_IRQn 0 */
  HAL_DMA_IRQHandler(&hdma_tim2_ch1);
 80019a0:	4802      	ldr	r0, [pc, #8]	; (80019ac <DMA1_Stream5_IRQHandler+0x10>)
 80019a2:	f000 fb25 	bl	8001ff0 <HAL_DMA_IRQHandler>
  /* USER CODE BEGIN DMA1_Stream5_IRQn 1 */

  /* USER CODE END DMA1_Stream5_IRQn 1 */
}
 80019a6:	bf00      	nop
 80019a8:	bd80      	pop	{r7, pc}
 80019aa:	bf00      	nop
 80019ac:	20000128 	.word	0x20000128

080019b0 <I2C1_EV_IRQHandler>:

/**
  * @brief This function handles I2C1 event interrupt.
  */
void I2C1_EV_IRQHandler(void)
{
 80019b0:	b580      	push	{r7, lr}
 80019b2:	af00      	add	r7, sp, #0
  /* USER CODE BEGIN I2C1_EV_IRQn 0 */

  /* USER CODE END I2C1_EV_IRQn 0 */
  HAL_I2C_EV_IRQHandler(&hi2c1);
 80019b4:	4802      	ldr	r0, [pc, #8]	; (80019c0 <I2C1_EV_IRQHandler+0x10>)
 80019b6:	f001 fb95 	bl	80030e4 <HAL_I2C_EV_IRQHandler>
  /* USER CODE BEGIN I2C1_EV_IRQn 1 */

  /* USER CODE END I2C1_EV_IRQn 1 */
}
 80019ba:	bf00      	nop
 80019bc:	bd80      	pop	{r7, pc}
 80019be:	bf00      	nop
 80019c0:	200001d4 	.word	0x200001d4

080019c4 <I2C1_ER_IRQHandler>:

/**
  * @brief This function handles I2C1 error interrupt.
  */
void I2C1_ER_IRQHandler(void)
{
 80019c4:	b580      	push	{r7, lr}
 80019c6:	af00      	add	r7, sp, #0
  /* USER CODE BEGIN I2C1_ER_IRQn 0 */

  /* USER CODE END I2C1_ER_IRQn 0 */
  HAL_I2C_ER_IRQHandler(&hi2c1);
 80019c8:	4802      	ldr	r0, [pc, #8]	; (80019d4 <I2C1_ER_IRQHandler+0x10>)
 80019ca:	f001 fcfc 	bl	80033c6 <HAL_I2C_ER_IRQHandler>
  /* USER CODE BEGIN I2C1_ER_IRQn 1 */

  /* USER CODE END I2C1_ER_IRQn 1 */
}
 80019ce:	bf00      	nop
 80019d0:	bd80      	pop	{r7, pc}
 80019d2:	bf00      	nop
 80019d4:	200001d4 	.word	0x200001d4

080019d8 <SystemInit>:
  *         configuration.
  * @param  None
  * @retval None
  */
void SystemInit(void)
{
 80019d8:	b480      	push	{r7}
 80019da:	af00      	add	r7, sp, #0
  /* FPU settings ------------------------------------------------------------*/
  #if (__FPU_PRESENT == 1) && (__FPU_USED == 1)
    SCB->CPACR |= ((3UL << 10*2)|(3UL << 11*2));  /* set CP10 and CP11 Full Access */
 80019dc:	4b06      	ldr	r3, [pc, #24]	; (80019f8 <SystemInit+0x20>)
 80019de:	f8d3 3088 	ldr.w	r3, [r3, #136]	; 0x88
 80019e2:	4a05      	ldr	r2, [pc, #20]	; (80019f8 <SystemInit+0x20>)
 80019e4:	f443 0370 	orr.w	r3, r3, #15728640	; 0xf00000
 80019e8:	f8c2 3088 	str.w	r3, [r2, #136]	; 0x88

  /* Configure the Vector Table location -------------------------------------*/
#if defined(USER_VECT_TAB_ADDRESS)
  SCB->VTOR = VECT_TAB_BASE_ADDRESS | VECT_TAB_OFFSET; /* Vector Table Relocation in Internal SRAM */
#endif /* USER_VECT_TAB_ADDRESS */
}
 80019ec:	bf00      	nop
 80019ee:	46bd      	mov	sp, r7
 80019f0:	f85d 7b04 	ldr.w	r7, [sp], #4
 80019f4:	4770      	bx	lr
 80019f6:	bf00      	nop
 80019f8:	e000ed00 	.word	0xe000ed00

080019fc <Reset_Handler>:

    .section  .text.Reset_Handler
  .weak  Reset_Handler
  .type  Reset_Handler, %function
Reset_Handler:  
  ldr   sp, =_estack    		 /* set stack pointer */
 80019fc:	f8df d034 	ldr.w	sp, [pc, #52]	; 8001a34 <LoopFillZerobss+0x12>

/* Copy the data segment initializers from flash to SRAM */  
  ldr r0, =_sdata
 8001a00:	480d      	ldr	r0, [pc, #52]	; (8001a38 <LoopFillZerobss+0x16>)
  ldr r1, =_edata
 8001a02:	490e      	ldr	r1, [pc, #56]	; (8001a3c <LoopFillZerobss+0x1a>)
  ldr r2, =_sidata
 8001a04:	4a0e      	ldr	r2, [pc, #56]	; (8001a40 <LoopFillZerobss+0x1e>)
  movs r3, #0
 8001a06:	2300      	movs	r3, #0
  b LoopCopyDataInit
 8001a08:	e002      	b.n	8001a10 <LoopCopyDataInit>

08001a0a <CopyDataInit>:

CopyDataInit:
  ldr r4, [r2, r3]
 8001a0a:	58d4      	ldr	r4, [r2, r3]
  str r4, [r0, r3]
 8001a0c:	50c4      	str	r4, [r0, r3]
  adds r3, r3, #4
 8001a0e:	3304      	adds	r3, #4

08001a10 <LoopCopyDataInit>:

LoopCopyDataInit:
  adds r4, r0, r3
 8001a10:	18c4      	adds	r4, r0, r3
  cmp r4, r1
 8001a12:	428c      	cmp	r4, r1
  bcc CopyDataInit
 8001a14:	d3f9      	bcc.n	8001a0a <CopyDataInit>
  
/* Zero fill the bss segment. */
  ldr r2, =_sbss
 8001a16:	4a0b      	ldr	r2, [pc, #44]	; (8001a44 <LoopFillZerobss+0x22>)
  ldr r4, =_ebss
 8001a18:	4c0b      	ldr	r4, [pc, #44]	; (8001a48 <LoopFillZerobss+0x26>)
  movs r3, #0
 8001a1a:	2300      	movs	r3, #0
  b LoopFillZerobss
 8001a1c:	e001      	b.n	8001a22 <LoopFillZerobss>

08001a1e <FillZerobss>:

FillZerobss:
  str  r3, [r2]
 8001a1e:	6013      	str	r3, [r2, #0]
  adds r2, r2, #4
 8001a20:	3204      	adds	r2, #4

08001a22 <LoopFillZerobss>:

LoopFillZerobss:
  cmp r2, r4
 8001a22:	42a2      	cmp	r2, r4
  bcc FillZerobss
 8001a24:	d3fb      	bcc.n	8001a1e <FillZerobss>

/* Call the clock system intitialization function.*/
  bl  SystemInit   
 8001a26:	f7ff ffd7 	bl	80019d8 <SystemInit>
/* Call static constructors */
    bl __libc_init_array
 8001a2a:	f005 fd99 	bl	8007560 <__libc_init_array>
/* Call the application's entry point.*/
  bl  main
 8001a2e:	f7ff f96d 	bl	8000d0c <main>
  bx  lr    
 8001a32:	4770      	bx	lr
  ldr   sp, =_estack    		 /* set stack pointer */
 8001a34:	20020000 	.word	0x20020000
  ldr r0, =_sdata
 8001a38:	20000000 	.word	0x20000000
  ldr r1, =_edata
 8001a3c:	20000028 	.word	0x20000028
  ldr r2, =_sidata
 8001a40:	08007600 	.word	0x08007600
  ldr r2, =_sbss
 8001a44:	20000028 	.word	0x20000028
  ldr r4, =_ebss
 8001a48:	2000031c 	.word	0x2000031c

08001a4c <ADC_IRQHandler>:
 * @retval None       
*/
    .section  .text.Default_Handler,"ax",%progbits
Default_Handler:
Infinite_Loop:
  b  Infinite_Loop
 8001a4c:	e7fe      	b.n	8001a4c <ADC_IRQHandler>
	...

08001a50 <HAL_Init>:
  *         need to ensure that the SysTick time base is always set to 1 millisecond
  *         to have correct HAL operation.
  * @retval HAL status
  */
HAL_StatusTypeDef HAL_Init(void)
{
 8001a50:	b580      	push	{r7, lr}
 8001a52:	af00      	add	r7, sp, #0
  /* Configure Flash prefetch, Instruction cache, Data cache */ 
#if (INSTRUCTION_CACHE_ENABLE != 0U)
  __HAL_FLASH_INSTRUCTION_CACHE_ENABLE();
 8001a54:	4b0e      	ldr	r3, [pc, #56]	; (8001a90 <HAL_Init+0x40>)
 8001a56:	681b      	ldr	r3, [r3, #0]
 8001a58:	4a0d      	ldr	r2, [pc, #52]	; (8001a90 <HAL_Init+0x40>)
 8001a5a:	f443 7300 	orr.w	r3, r3, #512	; 0x200
 8001a5e:	6013      	str	r3, [r2, #0]
#endif /* INSTRUCTION_CACHE_ENABLE */

#if (DATA_CACHE_ENABLE != 0U)
  __HAL_FLASH_DATA_CACHE_ENABLE();
 8001a60:	4b0b      	ldr	r3, [pc, #44]	; (8001a90 <HAL_Init+0x40>)
 8001a62:	681b      	ldr	r3, [r3, #0]
 8001a64:	4a0a      	ldr	r2, [pc, #40]	; (8001a90 <HAL_Init+0x40>)
 8001a66:	f443 6380 	orr.w	r3, r3, #1024	; 0x400
 8001a6a:	6013      	str	r3, [r2, #0]
#endif /* DATA_CACHE_ENABLE */

#if (PREFETCH_ENABLE != 0U)
  __HAL_FLASH_PREFETCH_BUFFER_ENABLE();
 8001a6c:	4b08      	ldr	r3, [pc, #32]	; (8001a90 <HAL_Init+0x40>)
 8001a6e:	681b      	ldr	r3, [r3, #0]
 8001a70:	4a07      	ldr	r2, [pc, #28]	; (8001a90 <HAL_Init+0x40>)
 8001a72:	f443 7380 	orr.w	r3, r3, #256	; 0x100
 8001a76:	6013      	str	r3, [r2, #0]
#endif /* PREFETCH_ENABLE */

  /* Set Interrupt Group Priority */
  HAL_NVIC_SetPriorityGrouping(NVIC_PRIORITYGROUP_4);
 8001a78:	2003      	movs	r0, #3
 8001a7a:	f000 f94f 	bl	8001d1c <HAL_NVIC_SetPriorityGrouping>

  /* Use systick as time base source and configure 1ms tick (default clock after Reset is HSI) */
  HAL_InitTick(TICK_INT_PRIORITY);
 8001a7e:	2000      	movs	r0, #0
 8001a80:	f000 f808 	bl	8001a94 <HAL_InitTick>

  /* Init the low level hardware */
  HAL_MspInit();
 8001a84:	f7ff fdb8 	bl	80015f8 <HAL_MspInit>

  /* Return function status */
  return HAL_OK;
 8001a88:	2300      	movs	r3, #0
}
 8001a8a:	4618      	mov	r0, r3
 8001a8c:	bd80      	pop	{r7, pc}
 8001a8e:	bf00      	nop
 8001a90:	40023c00 	.word	0x40023c00

08001a94 <HAL_InitTick>:
  *       implementation  in user file.
  * @param TickPriority Tick interrupt priority.
  * @retval HAL status
  */
__weak HAL_StatusTypeDef HAL_InitTick(uint32_t TickPriority)
{
 8001a94:	b580      	push	{r7, lr}
 8001a96:	b082      	sub	sp, #8
 8001a98:	af00      	add	r7, sp, #0
 8001a9a:	6078      	str	r0, [r7, #4]
  /* Configure the SysTick to have interrupt in 1ms time basis*/
  if (HAL_SYSTICK_Config(SystemCoreClock / (1000U / uwTickFreq)) > 0U)
 8001a9c:	4b12      	ldr	r3, [pc, #72]	; (8001ae8 <HAL_InitTick+0x54>)
 8001a9e:	681a      	ldr	r2, [r3, #0]
 8001aa0:	4b12      	ldr	r3, [pc, #72]	; (8001aec <HAL_InitTick+0x58>)
 8001aa2:	781b      	ldrb	r3, [r3, #0]
 8001aa4:	4619      	mov	r1, r3
 8001aa6:	f44f 737a 	mov.w	r3, #1000	; 0x3e8
 8001aaa:	fbb3 f3f1 	udiv	r3, r3, r1
 8001aae:	fbb2 f3f3 	udiv	r3, r2, r3
 8001ab2:	4618      	mov	r0, r3
 8001ab4:	f000 f967 	bl	8001d86 <HAL_SYSTICK_Config>
 8001ab8:	4603      	mov	r3, r0
 8001aba:	2b00      	cmp	r3, #0
 8001abc:	d001      	beq.n	8001ac2 <HAL_InitTick+0x2e>
  {
    return HAL_ERROR;
 8001abe:	2301      	movs	r3, #1
 8001ac0:	e00e      	b.n	8001ae0 <HAL_InitTick+0x4c>
  }

  /* Configure the SysTick IRQ priority */
  if (TickPriority < (1UL << __NVIC_PRIO_BITS))
 8001ac2:	687b      	ldr	r3, [r7, #4]
 8001ac4:	2b0f      	cmp	r3, #15
 8001ac6:	d80a      	bhi.n	8001ade <HAL_InitTick+0x4a>
  {
    HAL_NVIC_SetPriority(SysTick_IRQn, TickPriority, 0U);
 8001ac8:	2200      	movs	r2, #0
 8001aca:	6879      	ldr	r1, [r7, #4]
 8001acc:	f04f 30ff 	mov.w	r0, #4294967295
 8001ad0:	f000 f92f 	bl	8001d32 <HAL_NVIC_SetPriority>
    uwTickPrio = TickPriority;
 8001ad4:	4a06      	ldr	r2, [pc, #24]	; (8001af0 <HAL_InitTick+0x5c>)
 8001ad6:	687b      	ldr	r3, [r7, #4]
 8001ad8:	6013      	str	r3, [r2, #0]
  {
    return HAL_ERROR;
  }

  /* Return function status */
  return HAL_OK;
 8001ada:	2300      	movs	r3, #0
 8001adc:	e000      	b.n	8001ae0 <HAL_InitTick+0x4c>
    return HAL_ERROR;
 8001ade:	2301      	movs	r3, #1
}
 8001ae0:	4618      	mov	r0, r3
 8001ae2:	3708      	adds	r7, #8
 8001ae4:	46bd      	mov	sp, r7
 8001ae6:	bd80      	pop	{r7, pc}
 8001ae8:	2000001c 	.word	0x2000001c
 8001aec:	20000024 	.word	0x20000024
 8001af0:	20000020 	.word	0x20000020

08001af4 <HAL_IncTick>:
 * @note This function is declared as __weak to be overwritten in case of other 
  *      implementations in user file.
  * @retval None
  */
__weak void HAL_IncTick(void)
{
 8001af4:	b480      	push	{r7}
 8001af6:	af00      	add	r7, sp, #0
  uwTick += uwTickFreq;
 8001af8:	4b06      	ldr	r3, [pc, #24]	; (8001b14 <HAL_IncTick+0x20>)
 8001afa:	781b      	ldrb	r3, [r3, #0]
 8001afc:	461a      	mov	r2, r3
 8001afe:	4b06      	ldr	r3, [pc, #24]	; (8001b18 <HAL_IncTick+0x24>)
 8001b00:	681b      	ldr	r3, [r3, #0]
 8001b02:	4413      	add	r3, r2
 8001b04:	4a04      	ldr	r2, [pc, #16]	; (8001b18 <HAL_IncTick+0x24>)
 8001b06:	6013      	str	r3, [r2, #0]
}
 8001b08:	bf00      	nop
 8001b0a:	46bd      	mov	sp, r7
 8001b0c:	f85d 7b04 	ldr.w	r7, [sp], #4
 8001b10:	4770      	bx	lr
 8001b12:	bf00      	nop
 8001b14:	20000024 	.word	0x20000024
 8001b18:	20000318 	.word	0x20000318

08001b1c <HAL_GetTick>:
  * @note This function is declared as __weak to be overwritten in case of other 
  *       implementations in user file.
  * @retval tick value
  */
__weak uint32_t HAL_GetTick(void)
{
 8001b1c:	b480      	push	{r7}
 8001b1e:	af00      	add	r7, sp, #0
  return uwTick;
 8001b20:	4b03      	ldr	r3, [pc, #12]	; (8001b30 <HAL_GetTick+0x14>)
 8001b22:	681b      	ldr	r3, [r3, #0]
}
 8001b24:	4618      	mov	r0, r3
 8001b26:	46bd      	mov	sp, r7
 8001b28:	f85d 7b04 	ldr.w	r7, [sp], #4
 8001b2c:	4770      	bx	lr
 8001b2e:	bf00      	nop
 8001b30:	20000318 	.word	0x20000318

08001b34 <HAL_Delay>:
  *       implementations in user file.
  * @param Delay specifies the delay time length, in milliseconds.
  * @retval None
  */
__weak void HAL_Delay(uint32_t Delay)
{
 8001b34:	b580      	push	{r7, lr}
 8001b36:	b084      	sub	sp, #16
 8001b38:	af00      	add	r7, sp, #0
 8001b3a:	6078      	str	r0, [r7, #4]
  uint32_t tickstart = HAL_GetTick();
 8001b3c:	f7ff ffee 	bl	8001b1c <HAL_GetTick>
 8001b40:	60b8      	str	r0, [r7, #8]
  uint32_t wait = Delay;
 8001b42:	687b      	ldr	r3, [r7, #4]
 8001b44:	60fb      	str	r3, [r7, #12]

  /* Add a freq to guarantee minimum wait */
  if (wait < HAL_MAX_DELAY)
 8001b46:	68fb      	ldr	r3, [r7, #12]
 8001b48:	f1b3 3fff 	cmp.w	r3, #4294967295
 8001b4c:	d005      	beq.n	8001b5a <HAL_Delay+0x26>
  {
    wait += (uint32_t)(uwTickFreq);
 8001b4e:	4b0a      	ldr	r3, [pc, #40]	; (8001b78 <HAL_Delay+0x44>)
 8001b50:	781b      	ldrb	r3, [r3, #0]
 8001b52:	461a      	mov	r2, r3
 8001b54:	68fb      	ldr	r3, [r7, #12]
 8001b56:	4413      	add	r3, r2
 8001b58:	60fb      	str	r3, [r7, #12]
  }

  while((HAL_GetTick() - tickstart) < wait)
 8001b5a:	bf00      	nop
 8001b5c:	f7ff ffde 	bl	8001b1c <HAL_GetTick>
 8001b60:	4602      	mov	r2, r0
 8001b62:	68bb      	ldr	r3, [r7, #8]
 8001b64:	1ad3      	subs	r3, r2, r3
 8001b66:	68fa      	ldr	r2, [r7, #12]
 8001b68:	429a      	cmp	r2, r3
 8001b6a:	d8f7      	bhi.n	8001b5c <HAL_Delay+0x28>
  {
  }
}
 8001b6c:	bf00      	nop
 8001b6e:	bf00      	nop
 8001b70:	3710      	adds	r7, #16
 8001b72:	46bd      	mov	sp, r7
 8001b74:	bd80      	pop	{r7, pc}
 8001b76:	bf00      	nop
 8001b78:	20000024 	.word	0x20000024

08001b7c <__NVIC_SetPriorityGrouping>:
           In case of a conflict between priority grouping and available
           priority bits (__NVIC_PRIO_BITS), the smallest possible priority group is set.
  \param [in]      PriorityGroup  Priority grouping field.
 */
__STATIC_INLINE void __NVIC_SetPriorityGrouping(uint32_t PriorityGroup)
{
 8001b7c:	b480      	push	{r7}
 8001b7e:	b085      	sub	sp, #20
 8001b80:	af00      	add	r7, sp, #0
 8001b82:	6078      	str	r0, [r7, #4]
  uint32_t reg_value;
  uint32_t PriorityGroupTmp = (PriorityGroup & (uint32_t)0x07UL);             /* only values 0..7 are used          */
 8001b84:	687b      	ldr	r3, [r7, #4]
 8001b86:	f003 0307 	and.w	r3, r3, #7
 8001b8a:	60fb      	str	r3, [r7, #12]

  reg_value  =  SCB->AIRCR;                                                   /* read old register configuration    */
 8001b8c:	4b0c      	ldr	r3, [pc, #48]	; (8001bc0 <__NVIC_SetPriorityGrouping+0x44>)
 8001b8e:	68db      	ldr	r3, [r3, #12]
 8001b90:	60bb      	str	r3, [r7, #8]
  reg_value &= ~((uint32_t)(SCB_AIRCR_VECTKEY_Msk | SCB_AIRCR_PRIGROUP_Msk)); /* clear bits to change               */
 8001b92:	68ba      	ldr	r2, [r7, #8]
 8001b94:	f64f 03ff 	movw	r3, #63743	; 0xf8ff
 8001b98:	4013      	ands	r3, r2
 8001b9a:	60bb      	str	r3, [r7, #8]
  reg_value  =  (reg_value                                   |
                ((uint32_t)0x5FAUL << SCB_AIRCR_VECTKEY_Pos) |
                (PriorityGroupTmp << SCB_AIRCR_PRIGROUP_Pos)  );              /* Insert write key and priority group */
 8001b9c:	68fb      	ldr	r3, [r7, #12]
 8001b9e:	021a      	lsls	r2, r3, #8
                ((uint32_t)0x5FAUL << SCB_AIRCR_VECTKEY_Pos) |
 8001ba0:	68bb      	ldr	r3, [r7, #8]
 8001ba2:	4313      	orrs	r3, r2
  reg_value  =  (reg_value                                   |
 8001ba4:	f043 63bf 	orr.w	r3, r3, #100139008	; 0x5f80000
 8001ba8:	f443 3300 	orr.w	r3, r3, #131072	; 0x20000
 8001bac:	60bb      	str	r3, [r7, #8]
  SCB->AIRCR =  reg_value;
 8001bae:	4a04      	ldr	r2, [pc, #16]	; (8001bc0 <__NVIC_SetPriorityGrouping+0x44>)
 8001bb0:	68bb      	ldr	r3, [r7, #8]
 8001bb2:	60d3      	str	r3, [r2, #12]
}
 8001bb4:	bf00      	nop
 8001bb6:	3714      	adds	r7, #20
 8001bb8:	46bd      	mov	sp, r7
 8001bba:	f85d 7b04 	ldr.w	r7, [sp], #4
 8001bbe:	4770      	bx	lr
 8001bc0:	e000ed00 	.word	0xe000ed00

08001bc4 <__NVIC_GetPriorityGrouping>:
  \brief   Get Priority Grouping
  \details Reads the priority grouping field from the NVIC Interrupt Controller.
  \return                Priority grouping field (SCB->AIRCR [10:8] PRIGROUP field).
 */
__STATIC_INLINE uint32_t __NVIC_GetPriorityGrouping(void)
{
 8001bc4:	b480      	push	{r7}
 8001bc6:	af00      	add	r7, sp, #0
  return ((uint32_t)((SCB->AIRCR & SCB_AIRCR_PRIGROUP_Msk) >> SCB_AIRCR_PRIGROUP_Pos));
 8001bc8:	4b04      	ldr	r3, [pc, #16]	; (8001bdc <__NVIC_GetPriorityGrouping+0x18>)
 8001bca:	68db      	ldr	r3, [r3, #12]
 8001bcc:	0a1b      	lsrs	r3, r3, #8
 8001bce:	f003 0307 	and.w	r3, r3, #7
}
 8001bd2:	4618      	mov	r0, r3
 8001bd4:	46bd      	mov	sp, r7
 8001bd6:	f85d 7b04 	ldr.w	r7, [sp], #4
 8001bda:	4770      	bx	lr
 8001bdc:	e000ed00 	.word	0xe000ed00

08001be0 <__NVIC_EnableIRQ>:
  \details Enables a device specific interrupt in the NVIC interrupt controller.
  \param [in]      IRQn  Device specific interrupt number.
  \note    IRQn must not be negative.
 */
__STATIC_INLINE void __NVIC_EnableIRQ(IRQn_Type IRQn)
{
 8001be0:	b480      	push	{r7}
 8001be2:	b083      	sub	sp, #12
 8001be4:	af00      	add	r7, sp, #0
 8001be6:	4603      	mov	r3, r0
 8001be8:	71fb      	strb	r3, [r7, #7]
  if ((int32_t)(IRQn) >= 0)
 8001bea:	f997 3007 	ldrsb.w	r3, [r7, #7]
 8001bee:	2b00      	cmp	r3, #0
 8001bf0:	db0b      	blt.n	8001c0a <__NVIC_EnableIRQ+0x2a>
  {
    NVIC->ISER[(((uint32_t)IRQn) >> 5UL)] = (uint32_t)(1UL << (((uint32_t)IRQn) & 0x1FUL));
 8001bf2:	79fb      	ldrb	r3, [r7, #7]
 8001bf4:	f003 021f 	and.w	r2, r3, #31
 8001bf8:	4907      	ldr	r1, [pc, #28]	; (8001c18 <__NVIC_EnableIRQ+0x38>)
 8001bfa:	f997 3007 	ldrsb.w	r3, [r7, #7]
 8001bfe:	095b      	lsrs	r3, r3, #5
 8001c00:	2001      	movs	r0, #1
 8001c02:	fa00 f202 	lsl.w	r2, r0, r2
 8001c06:	f841 2023 	str.w	r2, [r1, r3, lsl #2]
  }
}
 8001c0a:	bf00      	nop
 8001c0c:	370c      	adds	r7, #12
 8001c0e:	46bd      	mov	sp, r7
 8001c10:	f85d 7b04 	ldr.w	r7, [sp], #4
 8001c14:	4770      	bx	lr
 8001c16:	bf00      	nop
 8001c18:	e000e100 	.word	0xe000e100

08001c1c <__NVIC_SetPriority>:
  \param [in]      IRQn  Interrupt number.
  \param [in]  priority  Priority to set.
  \note    The priority cannot be set for every processor exception.
 */
__STATIC_INLINE void __NVIC_SetPriority(IRQn_Type IRQn, uint32_t priority)
{
 8001c1c:	b480      	push	{r7}
 8001c1e:	b083      	sub	sp, #12
 8001c20:	af00      	add	r7, sp, #0
 8001c22:	4603      	mov	r3, r0
 8001c24:	6039      	str	r1, [r7, #0]
 8001c26:	71fb      	strb	r3, [r7, #7]
  if ((int32_t)(IRQn) >= 0)
 8001c28:	f997 3007 	ldrsb.w	r3, [r7, #7]
 8001c2c:	2b00      	cmp	r3, #0
 8001c2e:	db0a      	blt.n	8001c46 <__NVIC_SetPriority+0x2a>
  {
    NVIC->IP[((uint32_t)IRQn)]               = (uint8_t)((priority << (8U - __NVIC_PRIO_BITS)) & (uint32_t)0xFFUL);
 8001c30:	683b      	ldr	r3, [r7, #0]
 8001c32:	b2da      	uxtb	r2, r3
 8001c34:	490c      	ldr	r1, [pc, #48]	; (8001c68 <__NVIC_SetPriority+0x4c>)
 8001c36:	f997 3007 	ldrsb.w	r3, [r7, #7]
 8001c3a:	0112      	lsls	r2, r2, #4
 8001c3c:	b2d2      	uxtb	r2, r2
 8001c3e:	440b      	add	r3, r1
 8001c40:	f883 2300 	strb.w	r2, [r3, #768]	; 0x300
  }
  else
  {
    SCB->SHP[(((uint32_t)IRQn) & 0xFUL)-4UL] = (uint8_t)((priority << (8U - __NVIC_PRIO_BITS)) & (uint32_t)0xFFUL);
  }
}
 8001c44:	e00a      	b.n	8001c5c <__NVIC_SetPriority+0x40>
    SCB->SHP[(((uint32_t)IRQn) & 0xFUL)-4UL] = (uint8_t)((priority << (8U - __NVIC_PRIO_BITS)) & (uint32_t)0xFFUL);
 8001c46:	683b      	ldr	r3, [r7, #0]
 8001c48:	b2da      	uxtb	r2, r3
 8001c4a:	4908      	ldr	r1, [pc, #32]	; (8001c6c <__NVIC_SetPriority+0x50>)
 8001c4c:	79fb      	ldrb	r3, [r7, #7]
 8001c4e:	f003 030f 	and.w	r3, r3, #15
 8001c52:	3b04      	subs	r3, #4
 8001c54:	0112      	lsls	r2, r2, #4
 8001c56:	b2d2      	uxtb	r2, r2
 8001c58:	440b      	add	r3, r1
 8001c5a:	761a      	strb	r2, [r3, #24]
}
 8001c5c:	bf00      	nop
 8001c5e:	370c      	adds	r7, #12
 8001c60:	46bd      	mov	sp, r7
 8001c62:	f85d 7b04 	ldr.w	r7, [sp], #4
 8001c66:	4770      	bx	lr
 8001c68:	e000e100 	.word	0xe000e100
 8001c6c:	e000ed00 	.word	0xe000ed00

08001c70 <NVIC_EncodePriority>:
  \param [in]   PreemptPriority  Preemptive priority value (starting from 0).
  \param [in]       SubPriority  Subpriority value (starting from 0).
  \return                        Encoded priority. Value can be used in the function \ref NVIC_SetPriority().
 */
__STATIC_INLINE uint32_t NVIC_EncodePriority (uint32_t PriorityGroup, uint32_t PreemptPriority, uint32_t SubPriority)
{
 8001c70:	b480      	push	{r7}
 8001c72:	b089      	sub	sp, #36	; 0x24
 8001c74:	af00      	add	r7, sp, #0
 8001c76:	60f8      	str	r0, [r7, #12]
 8001c78:	60b9      	str	r1, [r7, #8]
 8001c7a:	607a      	str	r2, [r7, #4]
  uint32_t PriorityGroupTmp = (PriorityGroup & (uint32_t)0x07UL);   /* only values 0..7 are used          */
 8001c7c:	68fb      	ldr	r3, [r7, #12]
 8001c7e:	f003 0307 	and.w	r3, r3, #7
 8001c82:	61fb      	str	r3, [r7, #28]
  uint32_t PreemptPriorityBits;
  uint32_t SubPriorityBits;

  PreemptPriorityBits = ((7UL - PriorityGroupTmp) > (uint32_t)(__NVIC_PRIO_BITS)) ? (uint32_t)(__NVIC_PRIO_BITS) : (uint32_t)(7UL - PriorityGroupTmp);
 8001c84:	69fb      	ldr	r3, [r7, #28]
 8001c86:	f1c3 0307 	rsb	r3, r3, #7
 8001c8a:	2b04      	cmp	r3, #4
 8001c8c:	bf28      	it	cs
 8001c8e:	2304      	movcs	r3, #4
 8001c90:	61bb      	str	r3, [r7, #24]
  SubPriorityBits     = ((PriorityGroupTmp + (uint32_t)(__NVIC_PRIO_BITS)) < (uint32_t)7UL) ? (uint32_t)0UL : (uint32_t)((PriorityGroupTmp - 7UL) + (uint32_t)(__NVIC_PRIO_BITS));
 8001c92:	69fb      	ldr	r3, [r7, #28]
 8001c94:	3304      	adds	r3, #4
 8001c96:	2b06      	cmp	r3, #6
 8001c98:	d902      	bls.n	8001ca0 <NVIC_EncodePriority+0x30>
 8001c9a:	69fb      	ldr	r3, [r7, #28]
 8001c9c:	3b03      	subs	r3, #3
 8001c9e:	e000      	b.n	8001ca2 <NVIC_EncodePriority+0x32>
 8001ca0:	2300      	movs	r3, #0
 8001ca2:	617b      	str	r3, [r7, #20]

  return (
           ((PreemptPriority & (uint32_t)((1UL << (PreemptPriorityBits)) - 1UL)) << SubPriorityBits) |
 8001ca4:	f04f 32ff 	mov.w	r2, #4294967295
 8001ca8:	69bb      	ldr	r3, [r7, #24]
 8001caa:	fa02 f303 	lsl.w	r3, r2, r3
 8001cae:	43da      	mvns	r2, r3
 8001cb0:	68bb      	ldr	r3, [r7, #8]
 8001cb2:	401a      	ands	r2, r3
 8001cb4:	697b      	ldr	r3, [r7, #20]
 8001cb6:	409a      	lsls	r2, r3
           ((SubPriority     & (uint32_t)((1UL << (SubPriorityBits    )) - 1UL)))
 8001cb8:	f04f 31ff 	mov.w	r1, #4294967295
 8001cbc:	697b      	ldr	r3, [r7, #20]
 8001cbe:	fa01 f303 	lsl.w	r3, r1, r3
 8001cc2:	43d9      	mvns	r1, r3
 8001cc4:	687b      	ldr	r3, [r7, #4]
 8001cc6:	400b      	ands	r3, r1
           ((PreemptPriority & (uint32_t)((1UL << (PreemptPriorityBits)) - 1UL)) << SubPriorityBits) |
 8001cc8:	4313      	orrs	r3, r2
         );
}
 8001cca:	4618      	mov	r0, r3
 8001ccc:	3724      	adds	r7, #36	; 0x24
 8001cce:	46bd      	mov	sp, r7
 8001cd0:	f85d 7b04 	ldr.w	r7, [sp], #4
 8001cd4:	4770      	bx	lr
	...

08001cd8 <SysTick_Config>:
  \note    When the variable <b>__Vendor_SysTickConfig</b> is set to 1, then the
           function <b>SysTick_Config</b> is not included. In this case, the file <b><i>device</i>.h</b>
           must contain a vendor-specific implementation of this function.
 */
__STATIC_INLINE uint32_t SysTick_Config(uint32_t ticks)
{
 8001cd8:	b580      	push	{r7, lr}
 8001cda:	b082      	sub	sp, #8
 8001cdc:	af00      	add	r7, sp, #0
 8001cde:	6078      	str	r0, [r7, #4]
  if ((ticks - 1UL) > SysTick_LOAD_RELOAD_Msk)
 8001ce0:	687b      	ldr	r3, [r7, #4]
 8001ce2:	3b01      	subs	r3, #1
 8001ce4:	f1b3 7f80 	cmp.w	r3, #16777216	; 0x1000000
 8001ce8:	d301      	bcc.n	8001cee <SysTick_Config+0x16>
  {
    return (1UL);                                                   /* Reload value impossible */
 8001cea:	2301      	movs	r3, #1
 8001cec:	e00f      	b.n	8001d0e <SysTick_Config+0x36>
  }

  SysTick->LOAD  = (uint32_t)(ticks - 1UL);                         /* set reload register */
 8001cee:	4a0a      	ldr	r2, [pc, #40]	; (8001d18 <SysTick_Config+0x40>)
 8001cf0:	687b      	ldr	r3, [r7, #4]
 8001cf2:	3b01      	subs	r3, #1
 8001cf4:	6053      	str	r3, [r2, #4]
  NVIC_SetPriority (SysTick_IRQn, (1UL << __NVIC_PRIO_BITS) - 1UL); /* set Priority for Systick Interrupt */
 8001cf6:	210f      	movs	r1, #15
 8001cf8:	f04f 30ff 	mov.w	r0, #4294967295
 8001cfc:	f7ff ff8e 	bl	8001c1c <__NVIC_SetPriority>
  SysTick->VAL   = 0UL;                                             /* Load the SysTick Counter Value */
 8001d00:	4b05      	ldr	r3, [pc, #20]	; (8001d18 <SysTick_Config+0x40>)
 8001d02:	2200      	movs	r2, #0
 8001d04:	609a      	str	r2, [r3, #8]
  SysTick->CTRL  = SysTick_CTRL_CLKSOURCE_Msk |
 8001d06:	4b04      	ldr	r3, [pc, #16]	; (8001d18 <SysTick_Config+0x40>)
 8001d08:	2207      	movs	r2, #7
 8001d0a:	601a      	str	r2, [r3, #0]
                   SysTick_CTRL_TICKINT_Msk   |
                   SysTick_CTRL_ENABLE_Msk;                         /* Enable SysTick IRQ and SysTick Timer */
  return (0UL);                                                     /* Function successful */
 8001d0c:	2300      	movs	r3, #0
}
 8001d0e:	4618      	mov	r0, r3
 8001d10:	3708      	adds	r7, #8
 8001d12:	46bd      	mov	sp, r7
 8001d14:	bd80      	pop	{r7, pc}
 8001d16:	bf00      	nop
 8001d18:	e000e010 	.word	0xe000e010

08001d1c <HAL_NVIC_SetPriorityGrouping>:
  * @note   When the NVIC_PriorityGroup_0 is selected, IRQ preemption is no more possible. 
  *         The pending IRQ priority will be managed only by the subpriority. 
  * @retval None
  */
void HAL_NVIC_SetPriorityGrouping(uint32_t PriorityGroup)
{
 8001d1c:	b580      	push	{r7, lr}
 8001d1e:	b082      	sub	sp, #8
 8001d20:	af00      	add	r7, sp, #0
 8001d22:	6078      	str	r0, [r7, #4]
  /* Check the parameters */
  assert_param(IS_NVIC_PRIORITY_GROUP(PriorityGroup));
  
  /* Set the PRIGROUP[10:8] bits according to the PriorityGroup parameter value */
  NVIC_SetPriorityGrouping(PriorityGroup);
 8001d24:	6878      	ldr	r0, [r7, #4]
 8001d26:	f7ff ff29 	bl	8001b7c <__NVIC_SetPriorityGrouping>
}
 8001d2a:	bf00      	nop
 8001d2c:	3708      	adds	r7, #8
 8001d2e:	46bd      	mov	sp, r7
 8001d30:	bd80      	pop	{r7, pc}

08001d32 <HAL_NVIC_SetPriority>:
  *         This parameter can be a value between 0 and 15
  *         A lower priority value indicates a higher priority.          
  * @retval None
  */
void HAL_NVIC_SetPriority(IRQn_Type IRQn, uint32_t PreemptPriority, uint32_t SubPriority)
{ 
 8001d32:	b580      	push	{r7, lr}
 8001d34:	b086      	sub	sp, #24
 8001d36:	af00      	add	r7, sp, #0
 8001d38:	4603      	mov	r3, r0
 8001d3a:	60b9      	str	r1, [r7, #8]
 8001d3c:	607a      	str	r2, [r7, #4]
 8001d3e:	73fb      	strb	r3, [r7, #15]
  uint32_t prioritygroup = 0x00U;
 8001d40:	2300      	movs	r3, #0
 8001d42:	617b      	str	r3, [r7, #20]
  
  /* Check the parameters */
  assert_param(IS_NVIC_SUB_PRIORITY(SubPriority));
  assert_param(IS_NVIC_PREEMPTION_PRIORITY(PreemptPriority));
  
  prioritygroup = NVIC_GetPriorityGrouping();
 8001d44:	f7ff ff3e 	bl	8001bc4 <__NVIC_GetPriorityGrouping>
 8001d48:	6178      	str	r0, [r7, #20]
  
  NVIC_SetPriority(IRQn, NVIC_EncodePriority(prioritygroup, PreemptPriority, SubPriority));
 8001d4a:	687a      	ldr	r2, [r7, #4]
 8001d4c:	68b9      	ldr	r1, [r7, #8]
 8001d4e:	6978      	ldr	r0, [r7, #20]
 8001d50:	f7ff ff8e 	bl	8001c70 <NVIC_EncodePriority>
 8001d54:	4602      	mov	r2, r0
 8001d56:	f997 300f 	ldrsb.w	r3, [r7, #15]
 8001d5a:	4611      	mov	r1, r2
 8001d5c:	4618      	mov	r0, r3
 8001d5e:	f7ff ff5d 	bl	8001c1c <__NVIC_SetPriority>
}
 8001d62:	bf00      	nop
 8001d64:	3718      	adds	r7, #24
 8001d66:	46bd      	mov	sp, r7
 8001d68:	bd80      	pop	{r7, pc}

08001d6a <HAL_NVIC_EnableIRQ>:
  *         This parameter can be an enumerator of IRQn_Type enumeration
  *         (For the complete STM32 Devices IRQ Channels list, please refer to the appropriate CMSIS device file (stm32f4xxxx.h))
  * @retval None
  */
void HAL_NVIC_EnableIRQ(IRQn_Type IRQn)
{
 8001d6a:	b580      	push	{r7, lr}
 8001d6c:	b082      	sub	sp, #8
 8001d6e:	af00      	add	r7, sp, #0
 8001d70:	4603      	mov	r3, r0
 8001d72:	71fb      	strb	r3, [r7, #7]
  /* Check the parameters */
  assert_param(IS_NVIC_DEVICE_IRQ(IRQn));
  
  /* Enable interrupt */
  NVIC_EnableIRQ(IRQn);
 8001d74:	f997 3007 	ldrsb.w	r3, [r7, #7]
 8001d78:	4618      	mov	r0, r3
 8001d7a:	f7ff ff31 	bl	8001be0 <__NVIC_EnableIRQ>
}
 8001d7e:	bf00      	nop
 8001d80:	3708      	adds	r7, #8
 8001d82:	46bd      	mov	sp, r7
 8001d84:	bd80      	pop	{r7, pc}

08001d86 <HAL_SYSTICK_Config>:
  * @param  TicksNumb Specifies the ticks Number of ticks between two interrupts.
  * @retval status:  - 0  Function succeeded.
  *                  - 1  Function failed.
  */
uint32_t HAL_SYSTICK_Config(uint32_t TicksNumb)
{
 8001d86:	b580      	push	{r7, lr}
 8001d88:	b082      	sub	sp, #8
 8001d8a:	af00      	add	r7, sp, #0
 8001d8c:	6078      	str	r0, [r7, #4]
   return SysTick_Config(TicksNumb);
 8001d8e:	6878      	ldr	r0, [r7, #4]
 8001d90:	f7ff ffa2 	bl	8001cd8 <SysTick_Config>
 8001d94:	4603      	mov	r3, r0
}
 8001d96:	4618      	mov	r0, r3
 8001d98:	3708      	adds	r7, #8
 8001d9a:	46bd      	mov	sp, r7
 8001d9c:	bd80      	pop	{r7, pc}
	...

08001da0 <HAL_DMA_Init>:
  * @param  hdma Pointer to a DMA_HandleTypeDef structure that contains
  *               the configuration information for the specified DMA Stream.  
  * @retval HAL status
  */
HAL_StatusTypeDef HAL_DMA_Init(DMA_HandleTypeDef *hdma)
{
 8001da0:	b580      	push	{r7, lr}
 8001da2:	b086      	sub	sp, #24
 8001da4:	af00      	add	r7, sp, #0
 8001da6:	6078      	str	r0, [r7, #4]
  uint32_t tmp = 0U;
 8001da8:	2300      	movs	r3, #0
 8001daa:	617b      	str	r3, [r7, #20]
  uint32_t tickstart = HAL_GetTick();
 8001dac:	f7ff feb6 	bl	8001b1c <HAL_GetTick>
 8001db0:	6138      	str	r0, [r7, #16]
  DMA_Base_Registers *regs;

  /* Check the DMA peripheral state */
  if(hdma == NULL)
 8001db2:	687b      	ldr	r3, [r7, #4]
 8001db4:	2b00      	cmp	r3, #0
 8001db6:	d101      	bne.n	8001dbc <HAL_DMA_Init+0x1c>
  {
    return HAL_ERROR;
 8001db8:	2301      	movs	r3, #1
 8001dba:	e099      	b.n	8001ef0 <HAL_DMA_Init+0x150>
    assert_param(IS_DMA_MEMORY_BURST(hdma->Init.MemBurst));
    assert_param(IS_DMA_PERIPHERAL_BURST(hdma->Init.PeriphBurst));
  }

  /* Change DMA peripheral state */
  hdma->State = HAL_DMA_STATE_BUSY;
 8001dbc:	687b      	ldr	r3, [r7, #4]
 8001dbe:	2202      	movs	r2, #2
 8001dc0:	f883 2035 	strb.w	r2, [r3, #53]	; 0x35

  /* Allocate lock resource */
  __HAL_UNLOCK(hdma);
 8001dc4:	687b      	ldr	r3, [r7, #4]
 8001dc6:	2200      	movs	r2, #0
 8001dc8:	f883 2034 	strb.w	r2, [r3, #52]	; 0x34
  
  /* Disable the peripheral */
  __HAL_DMA_DISABLE(hdma);
 8001dcc:	687b      	ldr	r3, [r7, #4]
 8001dce:	681b      	ldr	r3, [r3, #0]
 8001dd0:	681a      	ldr	r2, [r3, #0]
 8001dd2:	687b      	ldr	r3, [r7, #4]
 8001dd4:	681b      	ldr	r3, [r3, #0]
 8001dd6:	f022 0201 	bic.w	r2, r2, #1
 8001dda:	601a      	str	r2, [r3, #0]
  
  /* Check if the DMA Stream is effectively disabled */
  while((hdma->Instance->CR & DMA_SxCR_EN) != RESET)
 8001ddc:	e00f      	b.n	8001dfe <HAL_DMA_Init+0x5e>
  {
    /* Check for the Timeout */
    if((HAL_GetTick() - tickstart ) > HAL_TIMEOUT_DMA_ABORT)
 8001dde:	f7ff fe9d 	bl	8001b1c <HAL_GetTick>
 8001de2:	4602      	mov	r2, r0
 8001de4:	693b      	ldr	r3, [r7, #16]
 8001de6:	1ad3      	subs	r3, r2, r3
 8001de8:	2b05      	cmp	r3, #5
 8001dea:	d908      	bls.n	8001dfe <HAL_DMA_Init+0x5e>
    {
      /* Update error code */
      hdma->ErrorCode = HAL_DMA_ERROR_TIMEOUT;
 8001dec:	687b      	ldr	r3, [r7, #4]
 8001dee:	2220      	movs	r2, #32
 8001df0:	655a      	str	r2, [r3, #84]	; 0x54
      
      /* Change the DMA state */
      hdma->State = HAL_DMA_STATE_TIMEOUT;
 8001df2:	687b      	ldr	r3, [r7, #4]
 8001df4:	2203      	movs	r2, #3
 8001df6:	f883 2035 	strb.w	r2, [r3, #53]	; 0x35
      
      return HAL_TIMEOUT;
 8001dfa:	2303      	movs	r3, #3
 8001dfc:	e078      	b.n	8001ef0 <HAL_DMA_Init+0x150>
  while((hdma->Instance->CR & DMA_SxCR_EN) != RESET)
 8001dfe:	687b      	ldr	r3, [r7, #4]
 8001e00:	681b      	ldr	r3, [r3, #0]
 8001e02:	681b      	ldr	r3, [r3, #0]
 8001e04:	f003 0301 	and.w	r3, r3, #1
 8001e08:	2b00      	cmp	r3, #0
 8001e0a:	d1e8      	bne.n	8001dde <HAL_DMA_Init+0x3e>
    }
  }
  
  /* Get the CR register value */
  tmp = hdma->Instance->CR;
 8001e0c:	687b      	ldr	r3, [r7, #4]
 8001e0e:	681b      	ldr	r3, [r3, #0]
 8001e10:	681b      	ldr	r3, [r3, #0]
 8001e12:	617b      	str	r3, [r7, #20]

  /* Clear CHSEL, MBURST, PBURST, PL, MSIZE, PSIZE, MINC, PINC, CIRC, DIR, CT and DBM bits */
  tmp &= ((uint32_t)~(DMA_SxCR_CHSEL | DMA_SxCR_MBURST | DMA_SxCR_PBURST | \
 8001e14:	697a      	ldr	r2, [r7, #20]
 8001e16:	4b38      	ldr	r3, [pc, #224]	; (8001ef8 <HAL_DMA_Init+0x158>)
 8001e18:	4013      	ands	r3, r2
 8001e1a:	617b      	str	r3, [r7, #20]
                      DMA_SxCR_PL    | DMA_SxCR_MSIZE  | DMA_SxCR_PSIZE  | \
                      DMA_SxCR_MINC  | DMA_SxCR_PINC   | DMA_SxCR_CIRC   | \
                      DMA_SxCR_DIR   | DMA_SxCR_CT     | DMA_SxCR_DBM));

  /* Prepare the DMA Stream configuration */
  tmp |=  hdma->Init.Channel             | hdma->Init.Direction        |
 8001e1c:	687b      	ldr	r3, [r7, #4]
 8001e1e:	685a      	ldr	r2, [r3, #4]
 8001e20:	687b      	ldr	r3, [r7, #4]
 8001e22:	689b      	ldr	r3, [r3, #8]
 8001e24:	431a      	orrs	r2, r3
          hdma->Init.PeriphInc           | hdma->Init.MemInc           |
 8001e26:	687b      	ldr	r3, [r7, #4]
 8001e28:	68db      	ldr	r3, [r3, #12]
  tmp |=  hdma->Init.Channel             | hdma->Init.Direction        |
 8001e2a:	431a      	orrs	r2, r3
          hdma->Init.PeriphInc           | hdma->Init.MemInc           |
 8001e2c:	687b      	ldr	r3, [r7, #4]
 8001e2e:	691b      	ldr	r3, [r3, #16]
 8001e30:	431a      	orrs	r2, r3
          hdma->Init.PeriphDataAlignment | hdma->Init.MemDataAlignment |
 8001e32:	687b      	ldr	r3, [r7, #4]
 8001e34:	695b      	ldr	r3, [r3, #20]
          hdma->Init.PeriphInc           | hdma->Init.MemInc           |
 8001e36:	431a      	orrs	r2, r3
          hdma->Init.PeriphDataAlignment | hdma->Init.MemDataAlignment |
 8001e38:	687b      	ldr	r3, [r7, #4]
 8001e3a:	699b      	ldr	r3, [r3, #24]
 8001e3c:	431a      	orrs	r2, r3
          hdma->Init.Mode                | hdma->Init.Priority;
 8001e3e:	687b      	ldr	r3, [r7, #4]
 8001e40:	69db      	ldr	r3, [r3, #28]
          hdma->Init.PeriphDataAlignment | hdma->Init.MemDataAlignment |
 8001e42:	431a      	orrs	r2, r3
          hdma->Init.Mode                | hdma->Init.Priority;
 8001e44:	687b      	ldr	r3, [r7, #4]
 8001e46:	6a1b      	ldr	r3, [r3, #32]
 8001e48:	4313      	orrs	r3, r2
  tmp |=  hdma->Init.Channel             | hdma->Init.Direction        |
 8001e4a:	697a      	ldr	r2, [r7, #20]
 8001e4c:	4313      	orrs	r3, r2
 8001e4e:	617b      	str	r3, [r7, #20]

  /* the Memory burst and peripheral burst are not used when the FIFO is disabled */
  if(hdma->Init.FIFOMode == DMA_FIFOMODE_ENABLE)
 8001e50:	687b      	ldr	r3, [r7, #4]
 8001e52:	6a5b      	ldr	r3, [r3, #36]	; 0x24
 8001e54:	2b04      	cmp	r3, #4
 8001e56:	d107      	bne.n	8001e68 <HAL_DMA_Init+0xc8>
  {
    /* Get memory burst and peripheral burst */
    tmp |=  hdma->Init.MemBurst | hdma->Init.PeriphBurst;
 8001e58:	687b      	ldr	r3, [r7, #4]
 8001e5a:	6ada      	ldr	r2, [r3, #44]	; 0x2c
 8001e5c:	687b      	ldr	r3, [r7, #4]
 8001e5e:	6b1b      	ldr	r3, [r3, #48]	; 0x30
 8001e60:	4313      	orrs	r3, r2
 8001e62:	697a      	ldr	r2, [r7, #20]
 8001e64:	4313      	orrs	r3, r2
 8001e66:	617b      	str	r3, [r7, #20]
  }
  
  /* Write to DMA Stream CR register */
  hdma->Instance->CR = tmp;  
 8001e68:	687b      	ldr	r3, [r7, #4]
 8001e6a:	681b      	ldr	r3, [r3, #0]
 8001e6c:	697a      	ldr	r2, [r7, #20]
 8001e6e:	601a      	str	r2, [r3, #0]

  /* Get the FCR register value */
  tmp = hdma->Instance->FCR;
 8001e70:	687b      	ldr	r3, [r7, #4]
 8001e72:	681b      	ldr	r3, [r3, #0]
 8001e74:	695b      	ldr	r3, [r3, #20]
 8001e76:	617b      	str	r3, [r7, #20]

  /* Clear Direct mode and FIFO threshold bits */
  tmp &= (uint32_t)~(DMA_SxFCR_DMDIS | DMA_SxFCR_FTH);
 8001e78:	697b      	ldr	r3, [r7, #20]
 8001e7a:	f023 0307 	bic.w	r3, r3, #7
 8001e7e:	617b      	str	r3, [r7, #20]

  /* Prepare the DMA Stream FIFO configuration */
  tmp |= hdma->Init.FIFOMode;
 8001e80:	687b      	ldr	r3, [r7, #4]
 8001e82:	6a5b      	ldr	r3, [r3, #36]	; 0x24
 8001e84:	697a      	ldr	r2, [r7, #20]
 8001e86:	4313      	orrs	r3, r2
 8001e88:	617b      	str	r3, [r7, #20]

  /* The FIFO threshold is not used when the FIFO mode is disabled */
  if(hdma->Init.FIFOMode == DMA_FIFOMODE_ENABLE)
 8001e8a:	687b      	ldr	r3, [r7, #4]
 8001e8c:	6a5b      	ldr	r3, [r3, #36]	; 0x24
 8001e8e:	2b04      	cmp	r3, #4
 8001e90:	d117      	bne.n	8001ec2 <HAL_DMA_Init+0x122>
  {
    /* Get the FIFO threshold */
    tmp |= hdma->Init.FIFOThreshold;
 8001e92:	687b      	ldr	r3, [r7, #4]
 8001e94:	6a9b      	ldr	r3, [r3, #40]	; 0x28
 8001e96:	697a      	ldr	r2, [r7, #20]
 8001e98:	4313      	orrs	r3, r2
 8001e9a:	617b      	str	r3, [r7, #20]
    
    /* Check compatibility between FIFO threshold level and size of the memory burst */
    /* for INCR4, INCR8, INCR16 bursts */
    if (hdma->Init.MemBurst != DMA_MBURST_SINGLE)
 8001e9c:	687b      	ldr	r3, [r7, #4]
 8001e9e:	6adb      	ldr	r3, [r3, #44]	; 0x2c
 8001ea0:	2b00      	cmp	r3, #0
 8001ea2:	d00e      	beq.n	8001ec2 <HAL_DMA_Init+0x122>
    {
      if (DMA_CheckFifoParam(hdma) != HAL_OK)
 8001ea4:	6878      	ldr	r0, [r7, #4]
 8001ea6:	f000 fa9f 	bl	80023e8 <DMA_CheckFifoParam>
 8001eaa:	4603      	mov	r3, r0
 8001eac:	2b00      	cmp	r3, #0
 8001eae:	d008      	beq.n	8001ec2 <HAL_DMA_Init+0x122>
      {
        /* Update error code */
        hdma->ErrorCode = HAL_DMA_ERROR_PARAM;
 8001eb0:	687b      	ldr	r3, [r7, #4]
 8001eb2:	2240      	movs	r2, #64	; 0x40
 8001eb4:	655a      	str	r2, [r3, #84]	; 0x54
        
        /* Change the DMA state */
        hdma->State = HAL_DMA_STATE_READY;
 8001eb6:	687b      	ldr	r3, [r7, #4]
 8001eb8:	2201      	movs	r2, #1
 8001eba:	f883 2035 	strb.w	r2, [r3, #53]	; 0x35
        
        return HAL_ERROR; 
 8001ebe:	2301      	movs	r3, #1
 8001ec0:	e016      	b.n	8001ef0 <HAL_DMA_Init+0x150>
      }
    }
  }
  
  /* Write to DMA Stream FCR */
  hdma->Instance->FCR = tmp;
 8001ec2:	687b      	ldr	r3, [r7, #4]
 8001ec4:	681b      	ldr	r3, [r3, #0]
 8001ec6:	697a      	ldr	r2, [r7, #20]
 8001ec8:	615a      	str	r2, [r3, #20]

  /* Initialize StreamBaseAddress and StreamIndex parameters to be used to calculate
     DMA steam Base Address needed by HAL_DMA_IRQHandler() and HAL_DMA_PollForTransfer() */
  regs = (DMA_Base_Registers *)DMA_CalcBaseAndBitshift(hdma);
 8001eca:	6878      	ldr	r0, [r7, #4]
 8001ecc:	f000 fa56 	bl	800237c <DMA_CalcBaseAndBitshift>
 8001ed0:	4603      	mov	r3, r0
 8001ed2:	60fb      	str	r3, [r7, #12]
  
  /* Clear all interrupt flags */
  regs->IFCR = 0x3FU << hdma->StreamIndex;
 8001ed4:	687b      	ldr	r3, [r7, #4]
 8001ed6:	6ddb      	ldr	r3, [r3, #92]	; 0x5c
 8001ed8:	223f      	movs	r2, #63	; 0x3f
 8001eda:	409a      	lsls	r2, r3
 8001edc:	68fb      	ldr	r3, [r7, #12]
 8001ede:	609a      	str	r2, [r3, #8]

  /* Initialize the error code */
  hdma->ErrorCode = HAL_DMA_ERROR_NONE;
 8001ee0:	687b      	ldr	r3, [r7, #4]
 8001ee2:	2200      	movs	r2, #0
 8001ee4:	655a      	str	r2, [r3, #84]	; 0x54
                                                                                     
  /* Initialize the DMA state */
  hdma->State = HAL_DMA_STATE_READY;
 8001ee6:	687b      	ldr	r3, [r7, #4]
 8001ee8:	2201      	movs	r2, #1
 8001eea:	f883 2035 	strb.w	r2, [r3, #53]	; 0x35

  return HAL_OK;
 8001eee:	2300      	movs	r3, #0
}
 8001ef0:	4618      	mov	r0, r3
 8001ef2:	3718      	adds	r7, #24
 8001ef4:	46bd      	mov	sp, r7
 8001ef6:	bd80      	pop	{r7, pc}
 8001ef8:	f010803f 	.word	0xf010803f

08001efc <HAL_DMA_Start_IT>:
  * @param  DstAddress The destination memory Buffer address
  * @param  DataLength The length of data to be transferred from source to destination
  * @retval HAL status
  */
HAL_StatusTypeDef HAL_DMA_Start_IT(DMA_HandleTypeDef *hdma, uint32_t SrcAddress, uint32_t DstAddress, uint32_t DataLength)
{
 8001efc:	b580      	push	{r7, lr}
 8001efe:	b086      	sub	sp, #24
 8001f00:	af00      	add	r7, sp, #0
 8001f02:	60f8      	str	r0, [r7, #12]
 8001f04:	60b9      	str	r1, [r7, #8]
 8001f06:	607a      	str	r2, [r7, #4]
 8001f08:	603b      	str	r3, [r7, #0]
  HAL_StatusTypeDef status = HAL_OK;
 8001f0a:	2300      	movs	r3, #0
 8001f0c:	75fb      	strb	r3, [r7, #23]

  /* calculate DMA base and stream number */
  DMA_Base_Registers *regs = (DMA_Base_Registers *)hdma->StreamBaseAddress;
 8001f0e:	68fb      	ldr	r3, [r7, #12]
 8001f10:	6d9b      	ldr	r3, [r3, #88]	; 0x58
 8001f12:	613b      	str	r3, [r7, #16]
  
  /* Check the parameters */
  assert_param(IS_DMA_BUFFER_SIZE(DataLength));
 
  /* Process locked */
  __HAL_LOCK(hdma);
 8001f14:	68fb      	ldr	r3, [r7, #12]
 8001f16:	f893 3034 	ldrb.w	r3, [r3, #52]	; 0x34
 8001f1a:	2b01      	cmp	r3, #1
 8001f1c:	d101      	bne.n	8001f22 <HAL_DMA_Start_IT+0x26>
 8001f1e:	2302      	movs	r3, #2
 8001f20:	e040      	b.n	8001fa4 <HAL_DMA_Start_IT+0xa8>
 8001f22:	68fb      	ldr	r3, [r7, #12]
 8001f24:	2201      	movs	r2, #1
 8001f26:	f883 2034 	strb.w	r2, [r3, #52]	; 0x34
  
  if(HAL_DMA_STATE_READY == hdma->State)
 8001f2a:	68fb      	ldr	r3, [r7, #12]
 8001f2c:	f893 3035 	ldrb.w	r3, [r3, #53]	; 0x35
 8001f30:	b2db      	uxtb	r3, r3
 8001f32:	2b01      	cmp	r3, #1
 8001f34:	d12f      	bne.n	8001f96 <HAL_DMA_Start_IT+0x9a>
  {
    /* Change DMA peripheral state */
    hdma->State = HAL_DMA_STATE_BUSY;
 8001f36:	68fb      	ldr	r3, [r7, #12]
 8001f38:	2202      	movs	r2, #2
 8001f3a:	f883 2035 	strb.w	r2, [r3, #53]	; 0x35
    
    /* Initialize the error code */
    hdma->ErrorCode = HAL_DMA_ERROR_NONE;
 8001f3e:	68fb      	ldr	r3, [r7, #12]
 8001f40:	2200      	movs	r2, #0
 8001f42:	655a      	str	r2, [r3, #84]	; 0x54
    
    /* Configure the source, destination address and the data length */
    DMA_SetConfig(hdma, SrcAddress, DstAddress, DataLength);
 8001f44:	683b      	ldr	r3, [r7, #0]
 8001f46:	687a      	ldr	r2, [r7, #4]
 8001f48:	68b9      	ldr	r1, [r7, #8]
 8001f4a:	68f8      	ldr	r0, [r7, #12]
 8001f4c:	f000 f9e8 	bl	8002320 <DMA_SetConfig>
    
    /* Clear all interrupt flags at correct offset within the register */
    regs->IFCR = 0x3FU << hdma->StreamIndex;
 8001f50:	68fb      	ldr	r3, [r7, #12]
 8001f52:	6ddb      	ldr	r3, [r3, #92]	; 0x5c
 8001f54:	223f      	movs	r2, #63	; 0x3f
 8001f56:	409a      	lsls	r2, r3
 8001f58:	693b      	ldr	r3, [r7, #16]
 8001f5a:	609a      	str	r2, [r3, #8]
    
    /* Enable Common interrupts*/
    hdma->Instance->CR  |= DMA_IT_TC | DMA_IT_TE | DMA_IT_DME;
 8001f5c:	68fb      	ldr	r3, [r7, #12]
 8001f5e:	681b      	ldr	r3, [r3, #0]
 8001f60:	681a      	ldr	r2, [r3, #0]
 8001f62:	68fb      	ldr	r3, [r7, #12]
 8001f64:	681b      	ldr	r3, [r3, #0]
 8001f66:	f042 0216 	orr.w	r2, r2, #22
 8001f6a:	601a      	str	r2, [r3, #0]
    
    if(hdma->XferHalfCpltCallback != NULL)
 8001f6c:	68fb      	ldr	r3, [r7, #12]
 8001f6e:	6c1b      	ldr	r3, [r3, #64]	; 0x40
 8001f70:	2b00      	cmp	r3, #0
 8001f72:	d007      	beq.n	8001f84 <HAL_DMA_Start_IT+0x88>
    {
      hdma->Instance->CR  |= DMA_IT_HT;
 8001f74:	68fb      	ldr	r3, [r7, #12]
 8001f76:	681b      	ldr	r3, [r3, #0]
 8001f78:	681a      	ldr	r2, [r3, #0]
 8001f7a:	68fb      	ldr	r3, [r7, #12]
 8001f7c:	681b      	ldr	r3, [r3, #0]
 8001f7e:	f042 0208 	orr.w	r2, r2, #8
 8001f82:	601a      	str	r2, [r3, #0]
    }
    
    /* Enable the Peripheral */
    __HAL_DMA_ENABLE(hdma);
 8001f84:	68fb      	ldr	r3, [r7, #12]
 8001f86:	681b      	ldr	r3, [r3, #0]
 8001f88:	681a      	ldr	r2, [r3, #0]
 8001f8a:	68fb      	ldr	r3, [r7, #12]
 8001f8c:	681b      	ldr	r3, [r3, #0]
 8001f8e:	f042 0201 	orr.w	r2, r2, #1
 8001f92:	601a      	str	r2, [r3, #0]
 8001f94:	e005      	b.n	8001fa2 <HAL_DMA_Start_IT+0xa6>
  }
  else
  {
    /* Process unlocked */
    __HAL_UNLOCK(hdma);	  
 8001f96:	68fb      	ldr	r3, [r7, #12]
 8001f98:	2200      	movs	r2, #0
 8001f9a:	f883 2034 	strb.w	r2, [r3, #52]	; 0x34
    
    /* Return error status */
    status = HAL_BUSY;
 8001f9e:	2302      	movs	r3, #2
 8001fa0:	75fb      	strb	r3, [r7, #23]
  }
  
  return status;
 8001fa2:	7dfb      	ldrb	r3, [r7, #23]
}
 8001fa4:	4618      	mov	r0, r3
 8001fa6:	3718      	adds	r7, #24
 8001fa8:	46bd      	mov	sp, r7
 8001faa:	bd80      	pop	{r7, pc}

08001fac <HAL_DMA_Abort_IT>:
  * @param  hdma   pointer to a DMA_HandleTypeDef structure that contains
  *                 the configuration information for the specified DMA Stream.
  * @retval HAL status
  */
HAL_StatusTypeDef HAL_DMA_Abort_IT(DMA_HandleTypeDef *hdma)
{
 8001fac:	b480      	push	{r7}
 8001fae:	b083      	sub	sp, #12
 8001fb0:	af00      	add	r7, sp, #0
 8001fb2:	6078      	str	r0, [r7, #4]
  if(hdma->State != HAL_DMA_STATE_BUSY)
 8001fb4:	687b      	ldr	r3, [r7, #4]
 8001fb6:	f893 3035 	ldrb.w	r3, [r3, #53]	; 0x35
 8001fba:	b2db      	uxtb	r3, r3
 8001fbc:	2b02      	cmp	r3, #2
 8001fbe:	d004      	beq.n	8001fca <HAL_DMA_Abort_IT+0x1e>
  {
    hdma->ErrorCode = HAL_DMA_ERROR_NO_XFER;
 8001fc0:	687b      	ldr	r3, [r7, #4]
 8001fc2:	2280      	movs	r2, #128	; 0x80
 8001fc4:	655a      	str	r2, [r3, #84]	; 0x54
    return HAL_ERROR;
 8001fc6:	2301      	movs	r3, #1
 8001fc8:	e00c      	b.n	8001fe4 <HAL_DMA_Abort_IT+0x38>
  }
  else
  {
    /* Set Abort State  */
    hdma->State = HAL_DMA_STATE_ABORT;
 8001fca:	687b      	ldr	r3, [r7, #4]
 8001fcc:	2205      	movs	r2, #5
 8001fce:	f883 2035 	strb.w	r2, [r3, #53]	; 0x35
    
    /* Disable the stream */
    __HAL_DMA_DISABLE(hdma);
 8001fd2:	687b      	ldr	r3, [r7, #4]
 8001fd4:	681b      	ldr	r3, [r3, #0]
 8001fd6:	681a      	ldr	r2, [r3, #0]
 8001fd8:	687b      	ldr	r3, [r7, #4]
 8001fda:	681b      	ldr	r3, [r3, #0]
 8001fdc:	f022 0201 	bic.w	r2, r2, #1
 8001fe0:	601a      	str	r2, [r3, #0]
  }

  return HAL_OK;
 8001fe2:	2300      	movs	r3, #0
}
 8001fe4:	4618      	mov	r0, r3
 8001fe6:	370c      	adds	r7, #12
 8001fe8:	46bd      	mov	sp, r7
 8001fea:	f85d 7b04 	ldr.w	r7, [sp], #4
 8001fee:	4770      	bx	lr

08001ff0 <HAL_DMA_IRQHandler>:
  * @param  hdma pointer to a DMA_HandleTypeDef structure that contains
  *               the configuration information for the specified DMA Stream.  
  * @retval None
  */
void HAL_DMA_IRQHandler(DMA_HandleTypeDef *hdma)
{
 8001ff0:	b580      	push	{r7, lr}
 8001ff2:	b086      	sub	sp, #24
 8001ff4:	af00      	add	r7, sp, #0
 8001ff6:	6078      	str	r0, [r7, #4]
  uint32_t tmpisr;
  __IO uint32_t count = 0U;
 8001ff8:	2300      	movs	r3, #0
 8001ffa:	60bb      	str	r3, [r7, #8]
  uint32_t timeout = SystemCoreClock / 9600U;
 8001ffc:	4b92      	ldr	r3, [pc, #584]	; (8002248 <HAL_DMA_IRQHandler+0x258>)
 8001ffe:	681b      	ldr	r3, [r3, #0]
 8002000:	4a92      	ldr	r2, [pc, #584]	; (800224c <HAL_DMA_IRQHandler+0x25c>)
 8002002:	fba2 2303 	umull	r2, r3, r2, r3
 8002006:	0a9b      	lsrs	r3, r3, #10
 8002008:	617b      	str	r3, [r7, #20]

  /* calculate DMA base and stream number */
  DMA_Base_Registers *regs = (DMA_Base_Registers *)hdma->StreamBaseAddress;
 800200a:	687b      	ldr	r3, [r7, #4]
 800200c:	6d9b      	ldr	r3, [r3, #88]	; 0x58
 800200e:	613b      	str	r3, [r7, #16]

  tmpisr = regs->ISR;
 8002010:	693b      	ldr	r3, [r7, #16]
 8002012:	681b      	ldr	r3, [r3, #0]
 8002014:	60fb      	str	r3, [r7, #12]

  /* Transfer Error Interrupt management ***************************************/
  if ((tmpisr & (DMA_FLAG_TEIF0_4 << hdma->StreamIndex)) != RESET)
 8002016:	687b      	ldr	r3, [r7, #4]
 8002018:	6ddb      	ldr	r3, [r3, #92]	; 0x5c
 800201a:	2208      	movs	r2, #8
 800201c:	409a      	lsls	r2, r3
 800201e:	68fb      	ldr	r3, [r7, #12]
 8002020:	4013      	ands	r3, r2
 8002022:	2b00      	cmp	r3, #0
 8002024:	d01a      	beq.n	800205c <HAL_DMA_IRQHandler+0x6c>
  {
    if(__HAL_DMA_GET_IT_SOURCE(hdma, DMA_IT_TE) != RESET)
 8002026:	687b      	ldr	r3, [r7, #4]
 8002028:	681b      	ldr	r3, [r3, #0]
 800202a:	681b      	ldr	r3, [r3, #0]
 800202c:	f003 0304 	and.w	r3, r3, #4
 8002030:	2b00      	cmp	r3, #0
 8002032:	d013      	beq.n	800205c <HAL_DMA_IRQHandler+0x6c>
    {
      /* Disable the transfer error interrupt */
      hdma->Instance->CR  &= ~(DMA_IT_TE);
 8002034:	687b      	ldr	r3, [r7, #4]
 8002036:	681b      	ldr	r3, [r3, #0]
 8002038:	681a      	ldr	r2, [r3, #0]
 800203a:	687b      	ldr	r3, [r7, #4]
 800203c:	681b      	ldr	r3, [r3, #0]
 800203e:	f022 0204 	bic.w	r2, r2, #4
 8002042:	601a      	str	r2, [r3, #0]
      
      /* Clear the transfer error flag */
      regs->IFCR = DMA_FLAG_TEIF0_4 << hdma->StreamIndex;
 8002044:	687b      	ldr	r3, [r7, #4]
 8002046:	6ddb      	ldr	r3, [r3, #92]	; 0x5c
 8002048:	2208      	movs	r2, #8
 800204a:	409a      	lsls	r2, r3
 800204c:	693b      	ldr	r3, [r7, #16]
 800204e:	609a      	str	r2, [r3, #8]
      
      /* Update error code */
      hdma->ErrorCode |= HAL_DMA_ERROR_TE;
 8002050:	687b      	ldr	r3, [r7, #4]
 8002052:	6d5b      	ldr	r3, [r3, #84]	; 0x54
 8002054:	f043 0201 	orr.w	r2, r3, #1
 8002058:	687b      	ldr	r3, [r7, #4]
 800205a:	655a      	str	r2, [r3, #84]	; 0x54
    }
  }
  /* FIFO Error Interrupt management ******************************************/
  if ((tmpisr & (DMA_FLAG_FEIF0_4 << hdma->StreamIndex)) != RESET)
 800205c:	687b      	ldr	r3, [r7, #4]
 800205e:	6ddb      	ldr	r3, [r3, #92]	; 0x5c
 8002060:	2201      	movs	r2, #1
 8002062:	409a      	lsls	r2, r3
 8002064:	68fb      	ldr	r3, [r7, #12]
 8002066:	4013      	ands	r3, r2
 8002068:	2b00      	cmp	r3, #0
 800206a:	d012      	beq.n	8002092 <HAL_DMA_IRQHandler+0xa2>
  {
    if(__HAL_DMA_GET_IT_SOURCE(hdma, DMA_IT_FE) != RESET)
 800206c:	687b      	ldr	r3, [r7, #4]
 800206e:	681b      	ldr	r3, [r3, #0]
 8002070:	695b      	ldr	r3, [r3, #20]
 8002072:	f003 0380 	and.w	r3, r3, #128	; 0x80
 8002076:	2b00      	cmp	r3, #0
 8002078:	d00b      	beq.n	8002092 <HAL_DMA_IRQHandler+0xa2>
    {
      /* Clear the FIFO error flag */
      regs->IFCR = DMA_FLAG_FEIF0_4 << hdma->StreamIndex;
 800207a:	687b      	ldr	r3, [r7, #4]
 800207c:	6ddb      	ldr	r3, [r3, #92]	; 0x5c
 800207e:	2201      	movs	r2, #1
 8002080:	409a      	lsls	r2, r3
 8002082:	693b      	ldr	r3, [r7, #16]
 8002084:	609a      	str	r2, [r3, #8]

      /* Update error code */
      hdma->ErrorCode |= HAL_DMA_ERROR_FE;
 8002086:	687b      	ldr	r3, [r7, #4]
 8002088:	6d5b      	ldr	r3, [r3, #84]	; 0x54
 800208a:	f043 0202 	orr.w	r2, r3, #2
 800208e:	687b      	ldr	r3, [r7, #4]
 8002090:	655a      	str	r2, [r3, #84]	; 0x54
    }
  }
  /* Direct Mode Error Interrupt management ***********************************/
  if ((tmpisr & (DMA_FLAG_DMEIF0_4 << hdma->StreamIndex)) != RESET)
 8002092:	687b      	ldr	r3, [r7, #4]
 8002094:	6ddb      	ldr	r3, [r3, #92]	; 0x5c
 8002096:	2204      	movs	r2, #4
 8002098:	409a      	lsls	r2, r3
 800209a:	68fb      	ldr	r3, [r7, #12]
 800209c:	4013      	ands	r3, r2
 800209e:	2b00      	cmp	r3, #0
 80020a0:	d012      	beq.n	80020c8 <HAL_DMA_IRQHandler+0xd8>
  {
    if(__HAL_DMA_GET_IT_SOURCE(hdma, DMA_IT_DME) != RESET)
 80020a2:	687b      	ldr	r3, [r7, #4]
 80020a4:	681b      	ldr	r3, [r3, #0]
 80020a6:	681b      	ldr	r3, [r3, #0]
 80020a8:	f003 0302 	and.w	r3, r3, #2
 80020ac:	2b00      	cmp	r3, #0
 80020ae:	d00b      	beq.n	80020c8 <HAL_DMA_IRQHandler+0xd8>
    {
      /* Clear the direct mode error flag */
      regs->IFCR = DMA_FLAG_DMEIF0_4 << hdma->StreamIndex;
 80020b0:	687b      	ldr	r3, [r7, #4]
 80020b2:	6ddb      	ldr	r3, [r3, #92]	; 0x5c
 80020b4:	2204      	movs	r2, #4
 80020b6:	409a      	lsls	r2, r3
 80020b8:	693b      	ldr	r3, [r7, #16]
 80020ba:	609a      	str	r2, [r3, #8]

      /* Update error code */
      hdma->ErrorCode |= HAL_DMA_ERROR_DME;
 80020bc:	687b      	ldr	r3, [r7, #4]
 80020be:	6d5b      	ldr	r3, [r3, #84]	; 0x54
 80020c0:	f043 0204 	orr.w	r2, r3, #4
 80020c4:	687b      	ldr	r3, [r7, #4]
 80020c6:	655a      	str	r2, [r3, #84]	; 0x54
    }
  }
  /* Half Transfer Complete Interrupt management ******************************/
  if ((tmpisr & (DMA_FLAG_HTIF0_4 << hdma->StreamIndex)) != RESET)
 80020c8:	687b      	ldr	r3, [r7, #4]
 80020ca:	6ddb      	ldr	r3, [r3, #92]	; 0x5c
 80020cc:	2210      	movs	r2, #16
 80020ce:	409a      	lsls	r2, r3
 80020d0:	68fb      	ldr	r3, [r7, #12]
 80020d2:	4013      	ands	r3, r2
 80020d4:	2b00      	cmp	r3, #0
 80020d6:	d043      	beq.n	8002160 <HAL_DMA_IRQHandler+0x170>
  {
    if(__HAL_DMA_GET_IT_SOURCE(hdma, DMA_IT_HT) != RESET)
 80020d8:	687b      	ldr	r3, [r7, #4]
 80020da:	681b      	ldr	r3, [r3, #0]
 80020dc:	681b      	ldr	r3, [r3, #0]
 80020de:	f003 0308 	and.w	r3, r3, #8
 80020e2:	2b00      	cmp	r3, #0
 80020e4:	d03c      	beq.n	8002160 <HAL_DMA_IRQHandler+0x170>
    {
      /* Clear the half transfer complete flag */
      regs->IFCR = DMA_FLAG_HTIF0_4 << hdma->StreamIndex;
 80020e6:	687b      	ldr	r3, [r7, #4]
 80020e8:	6ddb      	ldr	r3, [r3, #92]	; 0x5c
 80020ea:	2210      	movs	r2, #16
 80020ec:	409a      	lsls	r2, r3
 80020ee:	693b      	ldr	r3, [r7, #16]
 80020f0:	609a      	str	r2, [r3, #8]
      
      /* Multi_Buffering mode enabled */
      if(((hdma->Instance->CR) & (uint32_t)(DMA_SxCR_DBM)) != RESET)
 80020f2:	687b      	ldr	r3, [r7, #4]
 80020f4:	681b      	ldr	r3, [r3, #0]
 80020f6:	681b      	ldr	r3, [r3, #0]
 80020f8:	f403 2380 	and.w	r3, r3, #262144	; 0x40000
 80020fc:	2b00      	cmp	r3, #0
 80020fe:	d018      	beq.n	8002132 <HAL_DMA_IRQHandler+0x142>
      {
        /* Current memory buffer used is Memory 0 */
        if((hdma->Instance->CR & DMA_SxCR_CT) == RESET)
 8002100:	687b      	ldr	r3, [r7, #4]
 8002102:	681b      	ldr	r3, [r3, #0]
 8002104:	681b      	ldr	r3, [r3, #0]
 8002106:	f403 2300 	and.w	r3, r3, #524288	; 0x80000
 800210a:	2b00      	cmp	r3, #0
 800210c:	d108      	bne.n	8002120 <HAL_DMA_IRQHandler+0x130>
        {
          if(hdma->XferHalfCpltCallback != NULL)
 800210e:	687b      	ldr	r3, [r7, #4]
 8002110:	6c1b      	ldr	r3, [r3, #64]	; 0x40
 8002112:	2b00      	cmp	r3, #0
 8002114:	d024      	beq.n	8002160 <HAL_DMA_IRQHandler+0x170>
          {
            /* Half transfer callback */
            hdma->XferHalfCpltCallback(hdma);
 8002116:	687b      	ldr	r3, [r7, #4]
 8002118:	6c1b      	ldr	r3, [r3, #64]	; 0x40
 800211a:	6878      	ldr	r0, [r7, #4]
 800211c:	4798      	blx	r3
 800211e:	e01f      	b.n	8002160 <HAL_DMA_IRQHandler+0x170>
          }
        }
        /* Current memory buffer used is Memory 1 */
        else
        {
          if(hdma->XferM1HalfCpltCallback != NULL)
 8002120:	687b      	ldr	r3, [r7, #4]
 8002122:	6c9b      	ldr	r3, [r3, #72]	; 0x48
 8002124:	2b00      	cmp	r3, #0
 8002126:	d01b      	beq.n	8002160 <HAL_DMA_IRQHandler+0x170>
          {
            /* Half transfer callback */
            hdma->XferM1HalfCpltCallback(hdma);
 8002128:	687b      	ldr	r3, [r7, #4]
 800212a:	6c9b      	ldr	r3, [r3, #72]	; 0x48
 800212c:	6878      	ldr	r0, [r7, #4]
 800212e:	4798      	blx	r3
 8002130:	e016      	b.n	8002160 <HAL_DMA_IRQHandler+0x170>
        }
      }
      else
      {
        /* Disable the half transfer interrupt if the DMA mode is not CIRCULAR */
        if((hdma->Instance->CR & DMA_SxCR_CIRC) == RESET)
 8002132:	687b      	ldr	r3, [r7, #4]
 8002134:	681b      	ldr	r3, [r3, #0]
 8002136:	681b      	ldr	r3, [r3, #0]
 8002138:	f403 7380 	and.w	r3, r3, #256	; 0x100
 800213c:	2b00      	cmp	r3, #0
 800213e:	d107      	bne.n	8002150 <HAL_DMA_IRQHandler+0x160>
        {
          /* Disable the half transfer interrupt */
          hdma->Instance->CR  &= ~(DMA_IT_HT);
 8002140:	687b      	ldr	r3, [r7, #4]
 8002142:	681b      	ldr	r3, [r3, #0]
 8002144:	681a      	ldr	r2, [r3, #0]
 8002146:	687b      	ldr	r3, [r7, #4]
 8002148:	681b      	ldr	r3, [r3, #0]
 800214a:	f022 0208 	bic.w	r2, r2, #8
 800214e:	601a      	str	r2, [r3, #0]
        }
        
        if(hdma->XferHalfCpltCallback != NULL)
 8002150:	687b      	ldr	r3, [r7, #4]
 8002152:	6c1b      	ldr	r3, [r3, #64]	; 0x40
 8002154:	2b00      	cmp	r3, #0
 8002156:	d003      	beq.n	8002160 <HAL_DMA_IRQHandler+0x170>
        {
          /* Half transfer callback */
          hdma->XferHalfCpltCallback(hdma);
 8002158:	687b      	ldr	r3, [r7, #4]
 800215a:	6c1b      	ldr	r3, [r3, #64]	; 0x40
 800215c:	6878      	ldr	r0, [r7, #4]
 800215e:	4798      	blx	r3
        }
      }
    }
  }
  /* Transfer Complete Interrupt management ***********************************/
  if ((tmpisr & (DMA_FLAG_TCIF0_4 << hdma->StreamIndex)) != RESET)
 8002160:	687b      	ldr	r3, [r7, #4]
 8002162:	6ddb      	ldr	r3, [r3, #92]	; 0x5c
 8002164:	2220      	movs	r2, #32
 8002166:	409a      	lsls	r2, r3
 8002168:	68fb      	ldr	r3, [r7, #12]
 800216a:	4013      	ands	r3, r2
 800216c:	2b00      	cmp	r3, #0
 800216e:	f000 808e 	beq.w	800228e <HAL_DMA_IRQHandler+0x29e>
  {
    if(__HAL_DMA_GET_IT_SOURCE(hdma, DMA_IT_TC) != RESET)
 8002172:	687b      	ldr	r3, [r7, #4]
 8002174:	681b      	ldr	r3, [r3, #0]
 8002176:	681b      	ldr	r3, [r3, #0]
 8002178:	f003 0310 	and.w	r3, r3, #16
 800217c:	2b00      	cmp	r3, #0
 800217e:	f000 8086 	beq.w	800228e <HAL_DMA_IRQHandler+0x29e>
    {
      /* Clear the transfer complete flag */
      regs->IFCR = DMA_FLAG_TCIF0_4 << hdma->StreamIndex;
 8002182:	687b      	ldr	r3, [r7, #4]
 8002184:	6ddb      	ldr	r3, [r3, #92]	; 0x5c
 8002186:	2220      	movs	r2, #32
 8002188:	409a      	lsls	r2, r3
 800218a:	693b      	ldr	r3, [r7, #16]
 800218c:	609a      	str	r2, [r3, #8]
      
      if(HAL_DMA_STATE_ABORT == hdma->State)
 800218e:	687b      	ldr	r3, [r7, #4]
 8002190:	f893 3035 	ldrb.w	r3, [r3, #53]	; 0x35
 8002194:	b2db      	uxtb	r3, r3
 8002196:	2b05      	cmp	r3, #5
 8002198:	d136      	bne.n	8002208 <HAL_DMA_IRQHandler+0x218>
      {
        /* Disable all the transfer interrupts */
        hdma->Instance->CR  &= ~(DMA_IT_TC | DMA_IT_TE | DMA_IT_DME);
 800219a:	687b      	ldr	r3, [r7, #4]
 800219c:	681b      	ldr	r3, [r3, #0]
 800219e:	681a      	ldr	r2, [r3, #0]
 80021a0:	687b      	ldr	r3, [r7, #4]
 80021a2:	681b      	ldr	r3, [r3, #0]
 80021a4:	f022 0216 	bic.w	r2, r2, #22
 80021a8:	601a      	str	r2, [r3, #0]
        hdma->Instance->FCR &= ~(DMA_IT_FE);
 80021aa:	687b      	ldr	r3, [r7, #4]
 80021ac:	681b      	ldr	r3, [r3, #0]
 80021ae:	695a      	ldr	r2, [r3, #20]
 80021b0:	687b      	ldr	r3, [r7, #4]
 80021b2:	681b      	ldr	r3, [r3, #0]
 80021b4:	f022 0280 	bic.w	r2, r2, #128	; 0x80
 80021b8:	615a      	str	r2, [r3, #20]
        
        if((hdma->XferHalfCpltCallback != NULL) || (hdma->XferM1HalfCpltCallback != NULL))
 80021ba:	687b      	ldr	r3, [r7, #4]
 80021bc:	6c1b      	ldr	r3, [r3, #64]	; 0x40
 80021be:	2b00      	cmp	r3, #0
 80021c0:	d103      	bne.n	80021ca <HAL_DMA_IRQHandler+0x1da>
 80021c2:	687b      	ldr	r3, [r7, #4]
 80021c4:	6c9b      	ldr	r3, [r3, #72]	; 0x48
 80021c6:	2b00      	cmp	r3, #0
 80021c8:	d007      	beq.n	80021da <HAL_DMA_IRQHandler+0x1ea>
        {
          hdma->Instance->CR  &= ~(DMA_IT_HT);
 80021ca:	687b      	ldr	r3, [r7, #4]
 80021cc:	681b      	ldr	r3, [r3, #0]
 80021ce:	681a      	ldr	r2, [r3, #0]
 80021d0:	687b      	ldr	r3, [r7, #4]
 80021d2:	681b      	ldr	r3, [r3, #0]
 80021d4:	f022 0208 	bic.w	r2, r2, #8
 80021d8:	601a      	str	r2, [r3, #0]
        }

        /* Clear all interrupt flags at correct offset within the register */
        regs->IFCR = 0x3FU << hdma->StreamIndex;
 80021da:	687b      	ldr	r3, [r7, #4]
 80021dc:	6ddb      	ldr	r3, [r3, #92]	; 0x5c
 80021de:	223f      	movs	r2, #63	; 0x3f
 80021e0:	409a      	lsls	r2, r3
 80021e2:	693b      	ldr	r3, [r7, #16]
 80021e4:	609a      	str	r2, [r3, #8]

        /* Change the DMA state */
        hdma->State = HAL_DMA_STATE_READY;
 80021e6:	687b      	ldr	r3, [r7, #4]
 80021e8:	2201      	movs	r2, #1
 80021ea:	f883 2035 	strb.w	r2, [r3, #53]	; 0x35

        /* Process Unlocked */
        __HAL_UNLOCK(hdma);
 80021ee:	687b      	ldr	r3, [r7, #4]
 80021f0:	2200      	movs	r2, #0
 80021f2:	f883 2034 	strb.w	r2, [r3, #52]	; 0x34

        if(hdma->XferAbortCallback != NULL)
 80021f6:	687b      	ldr	r3, [r7, #4]
 80021f8:	6d1b      	ldr	r3, [r3, #80]	; 0x50
 80021fa:	2b00      	cmp	r3, #0
 80021fc:	d07d      	beq.n	80022fa <HAL_DMA_IRQHandler+0x30a>
        {
          hdma->XferAbortCallback(hdma);
 80021fe:	687b      	ldr	r3, [r7, #4]
 8002200:	6d1b      	ldr	r3, [r3, #80]	; 0x50
 8002202:	6878      	ldr	r0, [r7, #4]
 8002204:	4798      	blx	r3
        }
        return;
 8002206:	e078      	b.n	80022fa <HAL_DMA_IRQHandler+0x30a>
      }

      if(((hdma->Instance->CR) & (uint32_t)(DMA_SxCR_DBM)) != RESET)
 8002208:	687b      	ldr	r3, [r7, #4]
 800220a:	681b      	ldr	r3, [r3, #0]
 800220c:	681b      	ldr	r3, [r3, #0]
 800220e:	f403 2380 	and.w	r3, r3, #262144	; 0x40000
 8002212:	2b00      	cmp	r3, #0
 8002214:	d01c      	beq.n	8002250 <HAL_DMA_IRQHandler+0x260>
      {
        /* Current memory buffer used is Memory 0 */
        if((hdma->Instance->CR & DMA_SxCR_CT) == RESET)
 8002216:	687b      	ldr	r3, [r7, #4]
 8002218:	681b      	ldr	r3, [r3, #0]
 800221a:	681b      	ldr	r3, [r3, #0]
 800221c:	f403 2300 	and.w	r3, r3, #524288	; 0x80000
 8002220:	2b00      	cmp	r3, #0
 8002222:	d108      	bne.n	8002236 <HAL_DMA_IRQHandler+0x246>
        {
          if(hdma->XferM1CpltCallback != NULL)
 8002224:	687b      	ldr	r3, [r7, #4]
 8002226:	6c5b      	ldr	r3, [r3, #68]	; 0x44
 8002228:	2b00      	cmp	r3, #0
 800222a:	d030      	beq.n	800228e <HAL_DMA_IRQHandler+0x29e>
          {
            /* Transfer complete Callback for memory1 */
            hdma->XferM1CpltCallback(hdma);
 800222c:	687b      	ldr	r3, [r7, #4]
 800222e:	6c5b      	ldr	r3, [r3, #68]	; 0x44
 8002230:	6878      	ldr	r0, [r7, #4]
 8002232:	4798      	blx	r3
 8002234:	e02b      	b.n	800228e <HAL_DMA_IRQHandler+0x29e>
          }
        }
        /* Current memory buffer used is Memory 1 */
        else
        {
          if(hdma->XferCpltCallback != NULL)
 8002236:	687b      	ldr	r3, [r7, #4]
 8002238:	6bdb      	ldr	r3, [r3, #60]	; 0x3c
 800223a:	2b00      	cmp	r3, #0
 800223c:	d027      	beq.n	800228e <HAL_DMA_IRQHandler+0x29e>
          {
            /* Transfer complete Callback for memory0 */
            hdma->XferCpltCallback(hdma);
 800223e:	687b      	ldr	r3, [r7, #4]
 8002240:	6bdb      	ldr	r3, [r3, #60]	; 0x3c
 8002242:	6878      	ldr	r0, [r7, #4]
 8002244:	4798      	blx	r3
 8002246:	e022      	b.n	800228e <HAL_DMA_IRQHandler+0x29e>
 8002248:	2000001c 	.word	0x2000001c
 800224c:	1b4e81b5 	.word	0x1b4e81b5
        }
      }
      /* Disable the transfer complete interrupt if the DMA mode is not CIRCULAR */
      else
      {
        if((hdma->Instance->CR & DMA_SxCR_CIRC) == RESET)
 8002250:	687b      	ldr	r3, [r7, #4]
 8002252:	681b      	ldr	r3, [r3, #0]
 8002254:	681b      	ldr	r3, [r3, #0]
 8002256:	f403 7380 	and.w	r3, r3, #256	; 0x100
 800225a:	2b00      	cmp	r3, #0
 800225c:	d10f      	bne.n	800227e <HAL_DMA_IRQHandler+0x28e>
        {
          /* Disable the transfer complete interrupt */
          hdma->Instance->CR  &= ~(DMA_IT_TC);
 800225e:	687b      	ldr	r3, [r7, #4]
 8002260:	681b      	ldr	r3, [r3, #0]
 8002262:	681a      	ldr	r2, [r3, #0]
 8002264:	687b      	ldr	r3, [r7, #4]
 8002266:	681b      	ldr	r3, [r3, #0]
 8002268:	f022 0210 	bic.w	r2, r2, #16
 800226c:	601a      	str	r2, [r3, #0]

          /* Change the DMA state */
          hdma->State = HAL_DMA_STATE_READY;
 800226e:	687b      	ldr	r3, [r7, #4]
 8002270:	2201      	movs	r2, #1
 8002272:	f883 2035 	strb.w	r2, [r3, #53]	; 0x35

          /* Process Unlocked */
          __HAL_UNLOCK(hdma);
 8002276:	687b      	ldr	r3, [r7, #4]
 8002278:	2200      	movs	r2, #0
 800227a:	f883 2034 	strb.w	r2, [r3, #52]	; 0x34
        }

        if(hdma->XferCpltCallback != NULL)
 800227e:	687b      	ldr	r3, [r7, #4]
 8002280:	6bdb      	ldr	r3, [r3, #60]	; 0x3c
 8002282:	2b00      	cmp	r3, #0
 8002284:	d003      	beq.n	800228e <HAL_DMA_IRQHandler+0x29e>
        {
          /* Transfer complete callback */
          hdma->XferCpltCallback(hdma);
 8002286:	687b      	ldr	r3, [r7, #4]
 8002288:	6bdb      	ldr	r3, [r3, #60]	; 0x3c
 800228a:	6878      	ldr	r0, [r7, #4]
 800228c:	4798      	blx	r3
      }
    }
  }
  
  /* manage error case */
  if(hdma->ErrorCode != HAL_DMA_ERROR_NONE)
 800228e:	687b      	ldr	r3, [r7, #4]
 8002290:	6d5b      	ldr	r3, [r3, #84]	; 0x54
 8002292:	2b00      	cmp	r3, #0
 8002294:	d032      	beq.n	80022fc <HAL_DMA_IRQHandler+0x30c>
  {
    if((hdma->ErrorCode & HAL_DMA_ERROR_TE) != RESET)
 8002296:	687b      	ldr	r3, [r7, #4]
 8002298:	6d5b      	ldr	r3, [r3, #84]	; 0x54
 800229a:	f003 0301 	and.w	r3, r3, #1
 800229e:	2b00      	cmp	r3, #0
 80022a0:	d022      	beq.n	80022e8 <HAL_DMA_IRQHandler+0x2f8>
    {
      hdma->State = HAL_DMA_STATE_ABORT;
 80022a2:	687b      	ldr	r3, [r7, #4]
 80022a4:	2205      	movs	r2, #5
 80022a6:	f883 2035 	strb.w	r2, [r3, #53]	; 0x35

      /* Disable the stream */
      __HAL_DMA_DISABLE(hdma);
 80022aa:	687b      	ldr	r3, [r7, #4]
 80022ac:	681b      	ldr	r3, [r3, #0]
 80022ae:	681a      	ldr	r2, [r3, #0]
 80022b0:	687b      	ldr	r3, [r7, #4]
 80022b2:	681b      	ldr	r3, [r3, #0]
 80022b4:	f022 0201 	bic.w	r2, r2, #1
 80022b8:	601a      	str	r2, [r3, #0]

      do
      {
        if (++count > timeout)
 80022ba:	68bb      	ldr	r3, [r7, #8]
 80022bc:	3301      	adds	r3, #1
 80022be:	60bb      	str	r3, [r7, #8]
 80022c0:	697a      	ldr	r2, [r7, #20]
 80022c2:	429a      	cmp	r2, r3
 80022c4:	d307      	bcc.n	80022d6 <HAL_DMA_IRQHandler+0x2e6>
        {
          break;
        }
      }
      while((hdma->Instance->CR & DMA_SxCR_EN) != RESET);
 80022c6:	687b      	ldr	r3, [r7, #4]
 80022c8:	681b      	ldr	r3, [r3, #0]
 80022ca:	681b      	ldr	r3, [r3, #0]
 80022cc:	f003 0301 	and.w	r3, r3, #1
 80022d0:	2b00      	cmp	r3, #0
 80022d2:	d1f2      	bne.n	80022ba <HAL_DMA_IRQHandler+0x2ca>
 80022d4:	e000      	b.n	80022d8 <HAL_DMA_IRQHandler+0x2e8>
          break;
 80022d6:	bf00      	nop

      /* Change the DMA state */
      hdma->State = HAL_DMA_STATE_READY;
 80022d8:	687b      	ldr	r3, [r7, #4]
 80022da:	2201      	movs	r2, #1
 80022dc:	f883 2035 	strb.w	r2, [r3, #53]	; 0x35

      /* Process Unlocked */
      __HAL_UNLOCK(hdma);
 80022e0:	687b      	ldr	r3, [r7, #4]
 80022e2:	2200      	movs	r2, #0
 80022e4:	f883 2034 	strb.w	r2, [r3, #52]	; 0x34
    }

    if(hdma->XferErrorCallback != NULL)
 80022e8:	687b      	ldr	r3, [r7, #4]
 80022ea:	6cdb      	ldr	r3, [r3, #76]	; 0x4c
 80022ec:	2b00      	cmp	r3, #0
 80022ee:	d005      	beq.n	80022fc <HAL_DMA_IRQHandler+0x30c>
    {
      /* Transfer error callback */
      hdma->XferErrorCallback(hdma);
 80022f0:	687b      	ldr	r3, [r7, #4]
 80022f2:	6cdb      	ldr	r3, [r3, #76]	; 0x4c
 80022f4:	6878      	ldr	r0, [r7, #4]
 80022f6:	4798      	blx	r3
 80022f8:	e000      	b.n	80022fc <HAL_DMA_IRQHandler+0x30c>
        return;
 80022fa:	bf00      	nop
    }
  }
}
 80022fc:	3718      	adds	r7, #24
 80022fe:	46bd      	mov	sp, r7
 8002300:	bd80      	pop	{r7, pc}
 8002302:	bf00      	nop

08002304 <HAL_DMA_GetState>:
  * @param  hdma pointer to a DMA_HandleTypeDef structure that contains
  *               the configuration information for the specified DMA Stream.
  * @retval HAL state
  */
HAL_DMA_StateTypeDef HAL_DMA_GetState(DMA_HandleTypeDef *hdma)
{
 8002304:	b480      	push	{r7}
 8002306:	b083      	sub	sp, #12
 8002308:	af00      	add	r7, sp, #0
 800230a:	6078      	str	r0, [r7, #4]
  return hdma->State;
 800230c:	687b      	ldr	r3, [r7, #4]
 800230e:	f893 3035 	ldrb.w	r3, [r3, #53]	; 0x35
 8002312:	b2db      	uxtb	r3, r3
}
 8002314:	4618      	mov	r0, r3
 8002316:	370c      	adds	r7, #12
 8002318:	46bd      	mov	sp, r7
 800231a:	f85d 7b04 	ldr.w	r7, [sp], #4
 800231e:	4770      	bx	lr

08002320 <DMA_SetConfig>:
  * @param  DstAddress The destination memory Buffer address
  * @param  DataLength The length of data to be transferred from source to destination
  * @retval HAL status
  */
static void DMA_SetConfig(DMA_HandleTypeDef *hdma, uint32_t SrcAddress, uint32_t DstAddress, uint32_t DataLength)
{
 8002320:	b480      	push	{r7}
 8002322:	b085      	sub	sp, #20
 8002324:	af00      	add	r7, sp, #0
 8002326:	60f8      	str	r0, [r7, #12]
 8002328:	60b9      	str	r1, [r7, #8]
 800232a:	607a      	str	r2, [r7, #4]
 800232c:	603b      	str	r3, [r7, #0]
  /* Clear DBM bit */
  hdma->Instance->CR &= (uint32_t)(~DMA_SxCR_DBM);
 800232e:	68fb      	ldr	r3, [r7, #12]
 8002330:	681b      	ldr	r3, [r3, #0]
 8002332:	681a      	ldr	r2, [r3, #0]
 8002334:	68fb      	ldr	r3, [r7, #12]
 8002336:	681b      	ldr	r3, [r3, #0]
 8002338:	f422 2280 	bic.w	r2, r2, #262144	; 0x40000
 800233c:	601a      	str	r2, [r3, #0]

  /* Configure DMA Stream data length */
  hdma->Instance->NDTR = DataLength;
 800233e:	68fb      	ldr	r3, [r7, #12]
 8002340:	681b      	ldr	r3, [r3, #0]
 8002342:	683a      	ldr	r2, [r7, #0]
 8002344:	605a      	str	r2, [r3, #4]

  /* Memory to Peripheral */
  if((hdma->Init.Direction) == DMA_MEMORY_TO_PERIPH)
 8002346:	68fb      	ldr	r3, [r7, #12]
 8002348:	689b      	ldr	r3, [r3, #8]
 800234a:	2b40      	cmp	r3, #64	; 0x40
 800234c:	d108      	bne.n	8002360 <DMA_SetConfig+0x40>
  {
    /* Configure DMA Stream destination address */
    hdma->Instance->PAR = DstAddress;
 800234e:	68fb      	ldr	r3, [r7, #12]
 8002350:	681b      	ldr	r3, [r3, #0]
 8002352:	687a      	ldr	r2, [r7, #4]
 8002354:	609a      	str	r2, [r3, #8]

    /* Configure DMA Stream source address */
    hdma->Instance->M0AR = SrcAddress;
 8002356:	68fb      	ldr	r3, [r7, #12]
 8002358:	681b      	ldr	r3, [r3, #0]
 800235a:	68ba      	ldr	r2, [r7, #8]
 800235c:	60da      	str	r2, [r3, #12]
    hdma->Instance->PAR = SrcAddress;

    /* Configure DMA Stream destination address */
    hdma->Instance->M0AR = DstAddress;
  }
}
 800235e:	e007      	b.n	8002370 <DMA_SetConfig+0x50>
    hdma->Instance->PAR = SrcAddress;
 8002360:	68fb      	ldr	r3, [r7, #12]
 8002362:	681b      	ldr	r3, [r3, #0]
 8002364:	68ba      	ldr	r2, [r7, #8]
 8002366:	609a      	str	r2, [r3, #8]
    hdma->Instance->M0AR = DstAddress;
 8002368:	68fb      	ldr	r3, [r7, #12]
 800236a:	681b      	ldr	r3, [r3, #0]
 800236c:	687a      	ldr	r2, [r7, #4]
 800236e:	60da      	str	r2, [r3, #12]
}
 8002370:	bf00      	nop
 8002372:	3714      	adds	r7, #20
 8002374:	46bd      	mov	sp, r7
 8002376:	f85d 7b04 	ldr.w	r7, [sp], #4
 800237a:	4770      	bx	lr

0800237c <DMA_CalcBaseAndBitshift>:
  * @param  hdma       pointer to a DMA_HandleTypeDef structure that contains
  *                     the configuration information for the specified DMA Stream. 
  * @retval Stream base address
  */
static uint32_t DMA_CalcBaseAndBitshift(DMA_HandleTypeDef *hdma)
{
 800237c:	b480      	push	{r7}
 800237e:	b085      	sub	sp, #20
 8002380:	af00      	add	r7, sp, #0
 8002382:	6078      	str	r0, [r7, #4]
  uint32_t stream_number = (((uint32_t)hdma->Instance & 0xFFU) - 16U) / 24U;
 8002384:	687b      	ldr	r3, [r7, #4]
 8002386:	681b      	ldr	r3, [r3, #0]
 8002388:	b2db      	uxtb	r3, r3
 800238a:	3b10      	subs	r3, #16
 800238c:	4a14      	ldr	r2, [pc, #80]	; (80023e0 <DMA_CalcBaseAndBitshift+0x64>)
 800238e:	fba2 2303 	umull	r2, r3, r2, r3
 8002392:	091b      	lsrs	r3, r3, #4
 8002394:	60fb      	str	r3, [r7, #12]
  
  /* lookup table for necessary bitshift of flags within status registers */
  static const uint8_t flagBitshiftOffset[8U] = {0U, 6U, 16U, 22U, 0U, 6U, 16U, 22U};
  hdma->StreamIndex = flagBitshiftOffset[stream_number];
 8002396:	4a13      	ldr	r2, [pc, #76]	; (80023e4 <DMA_CalcBaseAndBitshift+0x68>)
 8002398:	68fb      	ldr	r3, [r7, #12]
 800239a:	4413      	add	r3, r2
 800239c:	781b      	ldrb	r3, [r3, #0]
 800239e:	461a      	mov	r2, r3
 80023a0:	687b      	ldr	r3, [r7, #4]
 80023a2:	65da      	str	r2, [r3, #92]	; 0x5c
  
  if (stream_number > 3U)
 80023a4:	68fb      	ldr	r3, [r7, #12]
 80023a6:	2b03      	cmp	r3, #3
 80023a8:	d909      	bls.n	80023be <DMA_CalcBaseAndBitshift+0x42>
  {
    /* return pointer to HISR and HIFCR */
    hdma->StreamBaseAddress = (((uint32_t)hdma->Instance & (uint32_t)(~0x3FFU)) + 4U);
 80023aa:	687b      	ldr	r3, [r7, #4]
 80023ac:	681b      	ldr	r3, [r3, #0]
 80023ae:	f423 737f 	bic.w	r3, r3, #1020	; 0x3fc
 80023b2:	f023 0303 	bic.w	r3, r3, #3
 80023b6:	1d1a      	adds	r2, r3, #4
 80023b8:	687b      	ldr	r3, [r7, #4]
 80023ba:	659a      	str	r2, [r3, #88]	; 0x58
 80023bc:	e007      	b.n	80023ce <DMA_CalcBaseAndBitshift+0x52>
  }
  else
  {
    /* return pointer to LISR and LIFCR */
    hdma->StreamBaseAddress = ((uint32_t)hdma->Instance & (uint32_t)(~0x3FFU));
 80023be:	687b      	ldr	r3, [r7, #4]
 80023c0:	681b      	ldr	r3, [r3, #0]
 80023c2:	f423 737f 	bic.w	r3, r3, #1020	; 0x3fc
 80023c6:	f023 0303 	bic.w	r3, r3, #3
 80023ca:	687a      	ldr	r2, [r7, #4]
 80023cc:	6593      	str	r3, [r2, #88]	; 0x58
  }
  
  return hdma->StreamBaseAddress;
 80023ce:	687b      	ldr	r3, [r7, #4]
 80023d0:	6d9b      	ldr	r3, [r3, #88]	; 0x58
}
 80023d2:	4618      	mov	r0, r3
 80023d4:	3714      	adds	r7, #20
 80023d6:	46bd      	mov	sp, r7
 80023d8:	f85d 7b04 	ldr.w	r7, [sp], #4
 80023dc:	4770      	bx	lr
 80023de:	bf00      	nop
 80023e0:	aaaaaaab 	.word	0xaaaaaaab
 80023e4:	080075e8 	.word	0x080075e8

080023e8 <DMA_CheckFifoParam>:
  * @param  hdma       pointer to a DMA_HandleTypeDef structure that contains
  *                     the configuration information for the specified DMA Stream. 
  * @retval HAL status
  */
static HAL_StatusTypeDef DMA_CheckFifoParam(DMA_HandleTypeDef *hdma)
{
 80023e8:	b480      	push	{r7}
 80023ea:	b085      	sub	sp, #20
 80023ec:	af00      	add	r7, sp, #0
 80023ee:	6078      	str	r0, [r7, #4]
  HAL_StatusTypeDef status = HAL_OK;
 80023f0:	2300      	movs	r3, #0
 80023f2:	73fb      	strb	r3, [r7, #15]
  uint32_t tmp = hdma->Init.FIFOThreshold;
 80023f4:	687b      	ldr	r3, [r7, #4]
 80023f6:	6a9b      	ldr	r3, [r3, #40]	; 0x28
 80023f8:	60bb      	str	r3, [r7, #8]
  
  /* Memory Data size equal to Byte */
  if(hdma->Init.MemDataAlignment == DMA_MDATAALIGN_BYTE)
 80023fa:	687b      	ldr	r3, [r7, #4]
 80023fc:	699b      	ldr	r3, [r3, #24]
 80023fe:	2b00      	cmp	r3, #0
 8002400:	d11f      	bne.n	8002442 <DMA_CheckFifoParam+0x5a>
 8002402:	68bb      	ldr	r3, [r7, #8]
 8002404:	2b03      	cmp	r3, #3
 8002406:	d856      	bhi.n	80024b6 <DMA_CheckFifoParam+0xce>
 8002408:	a201      	add	r2, pc, #4	; (adr r2, 8002410 <DMA_CheckFifoParam+0x28>)
 800240a:	f852 f023 	ldr.w	pc, [r2, r3, lsl #2]
 800240e:	bf00      	nop
 8002410:	08002421 	.word	0x08002421
 8002414:	08002433 	.word	0x08002433
 8002418:	08002421 	.word	0x08002421
 800241c:	080024b7 	.word	0x080024b7
  {
    switch (tmp)
    {
    case DMA_FIFO_THRESHOLD_1QUARTERFULL:
    case DMA_FIFO_THRESHOLD_3QUARTERSFULL:
      if ((hdma->Init.MemBurst & DMA_SxCR_MBURST_1) == DMA_SxCR_MBURST_1)
 8002420:	687b      	ldr	r3, [r7, #4]
 8002422:	6adb      	ldr	r3, [r3, #44]	; 0x2c
 8002424:	f003 7380 	and.w	r3, r3, #16777216	; 0x1000000
 8002428:	2b00      	cmp	r3, #0
 800242a:	d046      	beq.n	80024ba <DMA_CheckFifoParam+0xd2>
      {
        status = HAL_ERROR;
 800242c:	2301      	movs	r3, #1
 800242e:	73fb      	strb	r3, [r7, #15]
      }
      break;
 8002430:	e043      	b.n	80024ba <DMA_CheckFifoParam+0xd2>
    case DMA_FIFO_THRESHOLD_HALFFULL:
      if (hdma->Init.MemBurst == DMA_MBURST_INC16)
 8002432:	687b      	ldr	r3, [r7, #4]
 8002434:	6adb      	ldr	r3, [r3, #44]	; 0x2c
 8002436:	f1b3 7fc0 	cmp.w	r3, #25165824	; 0x1800000
 800243a:	d140      	bne.n	80024be <DMA_CheckFifoParam+0xd6>
      {
        status = HAL_ERROR;
 800243c:	2301      	movs	r3, #1
 800243e:	73fb      	strb	r3, [r7, #15]
      }
      break;
 8002440:	e03d      	b.n	80024be <DMA_CheckFifoParam+0xd6>
      break;
    }
  }
  
  /* Memory Data size equal to Half-Word */
  else if (hdma->Init.MemDataAlignment == DMA_MDATAALIGN_HALFWORD)
 8002442:	687b      	ldr	r3, [r7, #4]
 8002444:	699b      	ldr	r3, [r3, #24]
 8002446:	f5b3 5f00 	cmp.w	r3, #8192	; 0x2000
 800244a:	d121      	bne.n	8002490 <DMA_CheckFifoParam+0xa8>
 800244c:	68bb      	ldr	r3, [r7, #8]
 800244e:	2b03      	cmp	r3, #3
 8002450:	d837      	bhi.n	80024c2 <DMA_CheckFifoParam+0xda>
 8002452:	a201      	add	r2, pc, #4	; (adr r2, 8002458 <DMA_CheckFifoParam+0x70>)
 8002454:	f852 f023 	ldr.w	pc, [r2, r3, lsl #2]
 8002458:	08002469 	.word	0x08002469
 800245c:	0800246f 	.word	0x0800246f
 8002460:	08002469 	.word	0x08002469
 8002464:	08002481 	.word	0x08002481
  {
    switch (tmp)
    {
    case DMA_FIFO_THRESHOLD_1QUARTERFULL:
    case DMA_FIFO_THRESHOLD_3QUARTERSFULL:
      status = HAL_ERROR;
 8002468:	2301      	movs	r3, #1
 800246a:	73fb      	strb	r3, [r7, #15]
      break;
 800246c:	e030      	b.n	80024d0 <DMA_CheckFifoParam+0xe8>
    case DMA_FIFO_THRESHOLD_HALFFULL:
      if ((hdma->Init.MemBurst & DMA_SxCR_MBURST_1) == DMA_SxCR_MBURST_1)
 800246e:	687b      	ldr	r3, [r7, #4]
 8002470:	6adb      	ldr	r3, [r3, #44]	; 0x2c
 8002472:	f003 7380 	and.w	r3, r3, #16777216	; 0x1000000
 8002476:	2b00      	cmp	r3, #0
 8002478:	d025      	beq.n	80024c6 <DMA_CheckFifoParam+0xde>
      {
        status = HAL_ERROR;
 800247a:	2301      	movs	r3, #1
 800247c:	73fb      	strb	r3, [r7, #15]
      }
      break;
 800247e:	e022      	b.n	80024c6 <DMA_CheckFifoParam+0xde>
    case DMA_FIFO_THRESHOLD_FULL:
      if (hdma->Init.MemBurst == DMA_MBURST_INC16)
 8002480:	687b      	ldr	r3, [r7, #4]
 8002482:	6adb      	ldr	r3, [r3, #44]	; 0x2c
 8002484:	f1b3 7fc0 	cmp.w	r3, #25165824	; 0x1800000
 8002488:	d11f      	bne.n	80024ca <DMA_CheckFifoParam+0xe2>
      {
        status = HAL_ERROR;
 800248a:	2301      	movs	r3, #1
 800248c:	73fb      	strb	r3, [r7, #15]
      }
      break;   
 800248e:	e01c      	b.n	80024ca <DMA_CheckFifoParam+0xe2>
  }
  
  /* Memory Data size equal to Word */
  else
  {
    switch (tmp)
 8002490:	68bb      	ldr	r3, [r7, #8]
 8002492:	2b02      	cmp	r3, #2
 8002494:	d903      	bls.n	800249e <DMA_CheckFifoParam+0xb6>
 8002496:	68bb      	ldr	r3, [r7, #8]
 8002498:	2b03      	cmp	r3, #3
 800249a:	d003      	beq.n	80024a4 <DMA_CheckFifoParam+0xbc>
      {
        status = HAL_ERROR;
      }
      break;
    default:
      break;
 800249c:	e018      	b.n	80024d0 <DMA_CheckFifoParam+0xe8>
      status = HAL_ERROR;
 800249e:	2301      	movs	r3, #1
 80024a0:	73fb      	strb	r3, [r7, #15]
      break;
 80024a2:	e015      	b.n	80024d0 <DMA_CheckFifoParam+0xe8>
      if ((hdma->Init.MemBurst & DMA_SxCR_MBURST_1) == DMA_SxCR_MBURST_1)
 80024a4:	687b      	ldr	r3, [r7, #4]
 80024a6:	6adb      	ldr	r3, [r3, #44]	; 0x2c
 80024a8:	f003 7380 	and.w	r3, r3, #16777216	; 0x1000000
 80024ac:	2b00      	cmp	r3, #0
 80024ae:	d00e      	beq.n	80024ce <DMA_CheckFifoParam+0xe6>
        status = HAL_ERROR;
 80024b0:	2301      	movs	r3, #1
 80024b2:	73fb      	strb	r3, [r7, #15]
      break;
 80024b4:	e00b      	b.n	80024ce <DMA_CheckFifoParam+0xe6>
      break;
 80024b6:	bf00      	nop
 80024b8:	e00a      	b.n	80024d0 <DMA_CheckFifoParam+0xe8>
      break;
 80024ba:	bf00      	nop
 80024bc:	e008      	b.n	80024d0 <DMA_CheckFifoParam+0xe8>
      break;
 80024be:	bf00      	nop
 80024c0:	e006      	b.n	80024d0 <DMA_CheckFifoParam+0xe8>
      break;
 80024c2:	bf00      	nop
 80024c4:	e004      	b.n	80024d0 <DMA_CheckFifoParam+0xe8>
      break;
 80024c6:	bf00      	nop
 80024c8:	e002      	b.n	80024d0 <DMA_CheckFifoParam+0xe8>
      break;   
 80024ca:	bf00      	nop
 80024cc:	e000      	b.n	80024d0 <DMA_CheckFifoParam+0xe8>
      break;
 80024ce:	bf00      	nop
    }
  } 
  
  return status; 
 80024d0:	7bfb      	ldrb	r3, [r7, #15]
}
 80024d2:	4618      	mov	r0, r3
 80024d4:	3714      	adds	r7, #20
 80024d6:	46bd      	mov	sp, r7
 80024d8:	f85d 7b04 	ldr.w	r7, [sp], #4
 80024dc:	4770      	bx	lr
 80024de:	bf00      	nop

080024e0 <HAL_GPIO_Init>:
  * @param  GPIO_Init pointer to a GPIO_InitTypeDef structure that contains
  *         the configuration information for the specified GPIO peripheral.
  * @retval None
  */
void HAL_GPIO_Init(GPIO_TypeDef  *GPIOx, GPIO_InitTypeDef *GPIO_Init)
{
 80024e0:	b480      	push	{r7}
 80024e2:	b089      	sub	sp, #36	; 0x24
 80024e4:	af00      	add	r7, sp, #0
 80024e6:	6078      	str	r0, [r7, #4]
 80024e8:	6039      	str	r1, [r7, #0]
  uint32_t position;
  uint32_t ioposition = 0x00U;
 80024ea:	2300      	movs	r3, #0
 80024ec:	617b      	str	r3, [r7, #20]
  uint32_t iocurrent = 0x00U;
 80024ee:	2300      	movs	r3, #0
 80024f0:	613b      	str	r3, [r7, #16]
  uint32_t temp = 0x00U;
 80024f2:	2300      	movs	r3, #0
 80024f4:	61bb      	str	r3, [r7, #24]
  assert_param(IS_GPIO_ALL_INSTANCE(GPIOx));
  assert_param(IS_GPIO_PIN(GPIO_Init->Pin));
  assert_param(IS_GPIO_MODE(GPIO_Init->Mode));

  /* Configure the port pins */
  for(position = 0U; position < GPIO_NUMBER; position++)
 80024f6:	2300      	movs	r3, #0
 80024f8:	61fb      	str	r3, [r7, #28]
 80024fa:	e159      	b.n	80027b0 <HAL_GPIO_Init+0x2d0>
  {
    /* Get the IO position */
    ioposition = 0x01U << position;
 80024fc:	2201      	movs	r2, #1
 80024fe:	69fb      	ldr	r3, [r7, #28]
 8002500:	fa02 f303 	lsl.w	r3, r2, r3
 8002504:	617b      	str	r3, [r7, #20]
    /* Get the current IO position */
    iocurrent = (uint32_t)(GPIO_Init->Pin) & ioposition;
 8002506:	683b      	ldr	r3, [r7, #0]
 8002508:	681b      	ldr	r3, [r3, #0]
 800250a:	697a      	ldr	r2, [r7, #20]
 800250c:	4013      	ands	r3, r2
 800250e:	613b      	str	r3, [r7, #16]

    if(iocurrent == ioposition)
 8002510:	693a      	ldr	r2, [r7, #16]
 8002512:	697b      	ldr	r3, [r7, #20]
 8002514:	429a      	cmp	r2, r3
 8002516:	f040 8148 	bne.w	80027aa <HAL_GPIO_Init+0x2ca>
    {
      /*--------------------- GPIO Mode Configuration ------------------------*/
      /* In case of Output or Alternate function mode selection */
      if(((GPIO_Init->Mode & GPIO_MODE) == MODE_OUTPUT) || \
 800251a:	683b      	ldr	r3, [r7, #0]
 800251c:	685b      	ldr	r3, [r3, #4]
 800251e:	f003 0303 	and.w	r3, r3, #3
 8002522:	2b01      	cmp	r3, #1
 8002524:	d005      	beq.n	8002532 <HAL_GPIO_Init+0x52>
          (GPIO_Init->Mode & GPIO_MODE) == MODE_AF)
 8002526:	683b      	ldr	r3, [r7, #0]
 8002528:	685b      	ldr	r3, [r3, #4]
 800252a:	f003 0303 	and.w	r3, r3, #3
      if(((GPIO_Init->Mode & GPIO_MODE) == MODE_OUTPUT) || \
 800252e:	2b02      	cmp	r3, #2
 8002530:	d130      	bne.n	8002594 <HAL_GPIO_Init+0xb4>
      {
        /* Check the Speed parameter */
        assert_param(IS_GPIO_SPEED(GPIO_Init->Speed));
        /* Configure the IO Speed */
        temp = GPIOx->OSPEEDR; 
 8002532:	687b      	ldr	r3, [r7, #4]
 8002534:	689b      	ldr	r3, [r3, #8]
 8002536:	61bb      	str	r3, [r7, #24]
        temp &= ~(GPIO_OSPEEDER_OSPEEDR0 << (position * 2U));
 8002538:	69fb      	ldr	r3, [r7, #28]
 800253a:	005b      	lsls	r3, r3, #1
 800253c:	2203      	movs	r2, #3
 800253e:	fa02 f303 	lsl.w	r3, r2, r3
 8002542:	43db      	mvns	r3, r3
 8002544:	69ba      	ldr	r2, [r7, #24]
 8002546:	4013      	ands	r3, r2
 8002548:	61bb      	str	r3, [r7, #24]
        temp |= (GPIO_Init->Speed << (position * 2U));
 800254a:	683b      	ldr	r3, [r7, #0]
 800254c:	68da      	ldr	r2, [r3, #12]
 800254e:	69fb      	ldr	r3, [r7, #28]
 8002550:	005b      	lsls	r3, r3, #1
 8002552:	fa02 f303 	lsl.w	r3, r2, r3
 8002556:	69ba      	ldr	r2, [r7, #24]
 8002558:	4313      	orrs	r3, r2
 800255a:	61bb      	str	r3, [r7, #24]
        GPIOx->OSPEEDR = temp;
 800255c:	687b      	ldr	r3, [r7, #4]
 800255e:	69ba      	ldr	r2, [r7, #24]
 8002560:	609a      	str	r2, [r3, #8]

        /* Configure the IO Output Type */
        temp = GPIOx->OTYPER;
 8002562:	687b      	ldr	r3, [r7, #4]
 8002564:	685b      	ldr	r3, [r3, #4]
 8002566:	61bb      	str	r3, [r7, #24]
        temp &= ~(GPIO_OTYPER_OT_0 << position) ;
 8002568:	2201      	movs	r2, #1
 800256a:	69fb      	ldr	r3, [r7, #28]
 800256c:	fa02 f303 	lsl.w	r3, r2, r3
 8002570:	43db      	mvns	r3, r3
 8002572:	69ba      	ldr	r2, [r7, #24]
 8002574:	4013      	ands	r3, r2
 8002576:	61bb      	str	r3, [r7, #24]
        temp |= (((GPIO_Init->Mode & OUTPUT_TYPE) >> OUTPUT_TYPE_Pos) << position);
 8002578:	683b      	ldr	r3, [r7, #0]
 800257a:	685b      	ldr	r3, [r3, #4]
 800257c:	091b      	lsrs	r3, r3, #4
 800257e:	f003 0201 	and.w	r2, r3, #1
 8002582:	69fb      	ldr	r3, [r7, #28]
 8002584:	fa02 f303 	lsl.w	r3, r2, r3
 8002588:	69ba      	ldr	r2, [r7, #24]
 800258a:	4313      	orrs	r3, r2
 800258c:	61bb      	str	r3, [r7, #24]
        GPIOx->OTYPER = temp;
 800258e:	687b      	ldr	r3, [r7, #4]
 8002590:	69ba      	ldr	r2, [r7, #24]
 8002592:	605a      	str	r2, [r3, #4]
       }

      if((GPIO_Init->Mode & GPIO_MODE) != MODE_ANALOG)
 8002594:	683b      	ldr	r3, [r7, #0]
 8002596:	685b      	ldr	r3, [r3, #4]
 8002598:	f003 0303 	and.w	r3, r3, #3
 800259c:	2b03      	cmp	r3, #3
 800259e:	d017      	beq.n	80025d0 <HAL_GPIO_Init+0xf0>
      {
        /* Check the parameters */
        assert_param(IS_GPIO_PULL(GPIO_Init->Pull));
        
        /* Activate the Pull-up or Pull down resistor for the current IO */
        temp = GPIOx->PUPDR;
 80025a0:	687b      	ldr	r3, [r7, #4]
 80025a2:	68db      	ldr	r3, [r3, #12]
 80025a4:	61bb      	str	r3, [r7, #24]
        temp &= ~(GPIO_PUPDR_PUPDR0 << (position * 2U));
 80025a6:	69fb      	ldr	r3, [r7, #28]
 80025a8:	005b      	lsls	r3, r3, #1
 80025aa:	2203      	movs	r2, #3
 80025ac:	fa02 f303 	lsl.w	r3, r2, r3
 80025b0:	43db      	mvns	r3, r3
 80025b2:	69ba      	ldr	r2, [r7, #24]
 80025b4:	4013      	ands	r3, r2
 80025b6:	61bb      	str	r3, [r7, #24]
        temp |= ((GPIO_Init->Pull) << (position * 2U));
 80025b8:	683b      	ldr	r3, [r7, #0]
 80025ba:	689a      	ldr	r2, [r3, #8]
 80025bc:	69fb      	ldr	r3, [r7, #28]
 80025be:	005b      	lsls	r3, r3, #1
 80025c0:	fa02 f303 	lsl.w	r3, r2, r3
 80025c4:	69ba      	ldr	r2, [r7, #24]
 80025c6:	4313      	orrs	r3, r2
 80025c8:	61bb      	str	r3, [r7, #24]
        GPIOx->PUPDR = temp;
 80025ca:	687b      	ldr	r3, [r7, #4]
 80025cc:	69ba      	ldr	r2, [r7, #24]
 80025ce:	60da      	str	r2, [r3, #12]
      }

      /* In case of Alternate function mode selection */
      if((GPIO_Init->Mode & GPIO_MODE) == MODE_AF)
 80025d0:	683b      	ldr	r3, [r7, #0]
 80025d2:	685b      	ldr	r3, [r3, #4]
 80025d4:	f003 0303 	and.w	r3, r3, #3
 80025d8:	2b02      	cmp	r3, #2
 80025da:	d123      	bne.n	8002624 <HAL_GPIO_Init+0x144>
      {
        /* Check the Alternate function parameter */
        assert_param(IS_GPIO_AF(GPIO_Init->Alternate));
        /* Configure Alternate function mapped with the current IO */
        temp = GPIOx->AFR[position >> 3U];
 80025dc:	69fb      	ldr	r3, [r7, #28]
 80025de:	08da      	lsrs	r2, r3, #3
 80025e0:	687b      	ldr	r3, [r7, #4]
 80025e2:	3208      	adds	r2, #8
 80025e4:	f853 3022 	ldr.w	r3, [r3, r2, lsl #2]
 80025e8:	61bb      	str	r3, [r7, #24]
        temp &= ~(0xFU << ((uint32_t)(position & 0x07U) * 4U)) ;
 80025ea:	69fb      	ldr	r3, [r7, #28]
 80025ec:	f003 0307 	and.w	r3, r3, #7
 80025f0:	009b      	lsls	r3, r3, #2
 80025f2:	220f      	movs	r2, #15
 80025f4:	fa02 f303 	lsl.w	r3, r2, r3
 80025f8:	43db      	mvns	r3, r3
 80025fa:	69ba      	ldr	r2, [r7, #24]
 80025fc:	4013      	ands	r3, r2
 80025fe:	61bb      	str	r3, [r7, #24]
        temp |= ((uint32_t)(GPIO_Init->Alternate) << (((uint32_t)position & 0x07U) * 4U));
 8002600:	683b      	ldr	r3, [r7, #0]
 8002602:	691a      	ldr	r2, [r3, #16]
 8002604:	69fb      	ldr	r3, [r7, #28]
 8002606:	f003 0307 	and.w	r3, r3, #7
 800260a:	009b      	lsls	r3, r3, #2
 800260c:	fa02 f303 	lsl.w	r3, r2, r3
 8002610:	69ba      	ldr	r2, [r7, #24]
 8002612:	4313      	orrs	r3, r2
 8002614:	61bb      	str	r3, [r7, #24]
        GPIOx->AFR[position >> 3U] = temp;
 8002616:	69fb      	ldr	r3, [r7, #28]
 8002618:	08da      	lsrs	r2, r3, #3
 800261a:	687b      	ldr	r3, [r7, #4]
 800261c:	3208      	adds	r2, #8
 800261e:	69b9      	ldr	r1, [r7, #24]
 8002620:	f843 1022 	str.w	r1, [r3, r2, lsl #2]
      }

      /* Configure IO Direction mode (Input, Output, Alternate or Analog) */
      temp = GPIOx->MODER;
 8002624:	687b      	ldr	r3, [r7, #4]
 8002626:	681b      	ldr	r3, [r3, #0]
 8002628:	61bb      	str	r3, [r7, #24]
      temp &= ~(GPIO_MODER_MODER0 << (position * 2U));
 800262a:	69fb      	ldr	r3, [r7, #28]
 800262c:	005b      	lsls	r3, r3, #1
 800262e:	2203      	movs	r2, #3
 8002630:	fa02 f303 	lsl.w	r3, r2, r3
 8002634:	43db      	mvns	r3, r3
 8002636:	69ba      	ldr	r2, [r7, #24]
 8002638:	4013      	ands	r3, r2
 800263a:	61bb      	str	r3, [r7, #24]
      temp |= ((GPIO_Init->Mode & GPIO_MODE) << (position * 2U));
 800263c:	683b      	ldr	r3, [r7, #0]
 800263e:	685b      	ldr	r3, [r3, #4]
 8002640:	f003 0203 	and.w	r2, r3, #3
 8002644:	69fb      	ldr	r3, [r7, #28]
 8002646:	005b      	lsls	r3, r3, #1
 8002648:	fa02 f303 	lsl.w	r3, r2, r3
 800264c:	69ba      	ldr	r2, [r7, #24]
 800264e:	4313      	orrs	r3, r2
 8002650:	61bb      	str	r3, [r7, #24]
      GPIOx->MODER = temp;
 8002652:	687b      	ldr	r3, [r7, #4]
 8002654:	69ba      	ldr	r2, [r7, #24]
 8002656:	601a      	str	r2, [r3, #0]

      /*--------------------- EXTI Mode Configuration ------------------------*/
      /* Configure the External Interrupt or event for the current IO */
      if((GPIO_Init->Mode & EXTI_MODE) != 0x00U)
 8002658:	683b      	ldr	r3, [r7, #0]
 800265a:	685b      	ldr	r3, [r3, #4]
 800265c:	f403 3340 	and.w	r3, r3, #196608	; 0x30000
 8002660:	2b00      	cmp	r3, #0
 8002662:	f000 80a2 	beq.w	80027aa <HAL_GPIO_Init+0x2ca>
      {
        /* Enable SYSCFG Clock */
        __HAL_RCC_SYSCFG_CLK_ENABLE();
 8002666:	2300      	movs	r3, #0
 8002668:	60fb      	str	r3, [r7, #12]
 800266a:	4b57      	ldr	r3, [pc, #348]	; (80027c8 <HAL_GPIO_Init+0x2e8>)
 800266c:	6c5b      	ldr	r3, [r3, #68]	; 0x44
 800266e:	4a56      	ldr	r2, [pc, #344]	; (80027c8 <HAL_GPIO_Init+0x2e8>)
 8002670:	f443 4380 	orr.w	r3, r3, #16384	; 0x4000
 8002674:	6453      	str	r3, [r2, #68]	; 0x44
 8002676:	4b54      	ldr	r3, [pc, #336]	; (80027c8 <HAL_GPIO_Init+0x2e8>)
 8002678:	6c5b      	ldr	r3, [r3, #68]	; 0x44
 800267a:	f403 4380 	and.w	r3, r3, #16384	; 0x4000
 800267e:	60fb      	str	r3, [r7, #12]
 8002680:	68fb      	ldr	r3, [r7, #12]

        temp = SYSCFG->EXTICR[position >> 2U];
 8002682:	4a52      	ldr	r2, [pc, #328]	; (80027cc <HAL_GPIO_Init+0x2ec>)
 8002684:	69fb      	ldr	r3, [r7, #28]
 8002686:	089b      	lsrs	r3, r3, #2
 8002688:	3302      	adds	r3, #2
 800268a:	f852 3023 	ldr.w	r3, [r2, r3, lsl #2]
 800268e:	61bb      	str	r3, [r7, #24]
        temp &= ~(0x0FU << (4U * (position & 0x03U)));
 8002690:	69fb      	ldr	r3, [r7, #28]
 8002692:	f003 0303 	and.w	r3, r3, #3
 8002696:	009b      	lsls	r3, r3, #2
 8002698:	220f      	movs	r2, #15
 800269a:	fa02 f303 	lsl.w	r3, r2, r3
 800269e:	43db      	mvns	r3, r3
 80026a0:	69ba      	ldr	r2, [r7, #24]
 80026a2:	4013      	ands	r3, r2
 80026a4:	61bb      	str	r3, [r7, #24]
        temp |= ((uint32_t)(GPIO_GET_INDEX(GPIOx)) << (4U * (position & 0x03U)));
 80026a6:	687b      	ldr	r3, [r7, #4]
 80026a8:	4a49      	ldr	r2, [pc, #292]	; (80027d0 <HAL_GPIO_Init+0x2f0>)
 80026aa:	4293      	cmp	r3, r2
 80026ac:	d019      	beq.n	80026e2 <HAL_GPIO_Init+0x202>
 80026ae:	687b      	ldr	r3, [r7, #4]
 80026b0:	4a48      	ldr	r2, [pc, #288]	; (80027d4 <HAL_GPIO_Init+0x2f4>)
 80026b2:	4293      	cmp	r3, r2
 80026b4:	d013      	beq.n	80026de <HAL_GPIO_Init+0x1fe>
 80026b6:	687b      	ldr	r3, [r7, #4]
 80026b8:	4a47      	ldr	r2, [pc, #284]	; (80027d8 <HAL_GPIO_Init+0x2f8>)
 80026ba:	4293      	cmp	r3, r2
 80026bc:	d00d      	beq.n	80026da <HAL_GPIO_Init+0x1fa>
 80026be:	687b      	ldr	r3, [r7, #4]
 80026c0:	4a46      	ldr	r2, [pc, #280]	; (80027dc <HAL_GPIO_Init+0x2fc>)
 80026c2:	4293      	cmp	r3, r2
 80026c4:	d007      	beq.n	80026d6 <HAL_GPIO_Init+0x1f6>
 80026c6:	687b      	ldr	r3, [r7, #4]
 80026c8:	4a45      	ldr	r2, [pc, #276]	; (80027e0 <HAL_GPIO_Init+0x300>)
 80026ca:	4293      	cmp	r3, r2
 80026cc:	d101      	bne.n	80026d2 <HAL_GPIO_Init+0x1f2>
 80026ce:	2304      	movs	r3, #4
 80026d0:	e008      	b.n	80026e4 <HAL_GPIO_Init+0x204>
 80026d2:	2307      	movs	r3, #7
 80026d4:	e006      	b.n	80026e4 <HAL_GPIO_Init+0x204>
 80026d6:	2303      	movs	r3, #3
 80026d8:	e004      	b.n	80026e4 <HAL_GPIO_Init+0x204>
 80026da:	2302      	movs	r3, #2
 80026dc:	e002      	b.n	80026e4 <HAL_GPIO_Init+0x204>
 80026de:	2301      	movs	r3, #1
 80026e0:	e000      	b.n	80026e4 <HAL_GPIO_Init+0x204>
 80026e2:	2300      	movs	r3, #0
 80026e4:	69fa      	ldr	r2, [r7, #28]
 80026e6:	f002 0203 	and.w	r2, r2, #3
 80026ea:	0092      	lsls	r2, r2, #2
 80026ec:	4093      	lsls	r3, r2
 80026ee:	69ba      	ldr	r2, [r7, #24]
 80026f0:	4313      	orrs	r3, r2
 80026f2:	61bb      	str	r3, [r7, #24]
        SYSCFG->EXTICR[position >> 2U] = temp;
 80026f4:	4935      	ldr	r1, [pc, #212]	; (80027cc <HAL_GPIO_Init+0x2ec>)
 80026f6:	69fb      	ldr	r3, [r7, #28]
 80026f8:	089b      	lsrs	r3, r3, #2
 80026fa:	3302      	adds	r3, #2
 80026fc:	69ba      	ldr	r2, [r7, #24]
 80026fe:	f841 2023 	str.w	r2, [r1, r3, lsl #2]

        /* Clear EXTI line configuration */
        temp = EXTI->IMR;
 8002702:	4b38      	ldr	r3, [pc, #224]	; (80027e4 <HAL_GPIO_Init+0x304>)
 8002704:	681b      	ldr	r3, [r3, #0]
 8002706:	61bb      	str	r3, [r7, #24]
        temp &= ~((uint32_t)iocurrent);
 8002708:	693b      	ldr	r3, [r7, #16]
 800270a:	43db      	mvns	r3, r3
 800270c:	69ba      	ldr	r2, [r7, #24]
 800270e:	4013      	ands	r3, r2
 8002710:	61bb      	str	r3, [r7, #24]
        if((GPIO_Init->Mode & EXTI_IT) != 0x00U)
 8002712:	683b      	ldr	r3, [r7, #0]
 8002714:	685b      	ldr	r3, [r3, #4]
 8002716:	f403 3380 	and.w	r3, r3, #65536	; 0x10000
 800271a:	2b00      	cmp	r3, #0
 800271c:	d003      	beq.n	8002726 <HAL_GPIO_Init+0x246>
        {
          temp |= iocurrent;
 800271e:	69ba      	ldr	r2, [r7, #24]
 8002720:	693b      	ldr	r3, [r7, #16]
 8002722:	4313      	orrs	r3, r2
 8002724:	61bb      	str	r3, [r7, #24]
        }
        EXTI->IMR = temp;
 8002726:	4a2f      	ldr	r2, [pc, #188]	; (80027e4 <HAL_GPIO_Init+0x304>)
 8002728:	69bb      	ldr	r3, [r7, #24]
 800272a:	6013      	str	r3, [r2, #0]

        temp = EXTI->EMR;
 800272c:	4b2d      	ldr	r3, [pc, #180]	; (80027e4 <HAL_GPIO_Init+0x304>)
 800272e:	685b      	ldr	r3, [r3, #4]
 8002730:	61bb      	str	r3, [r7, #24]
        temp &= ~((uint32_t)iocurrent);
 8002732:	693b      	ldr	r3, [r7, #16]
 8002734:	43db      	mvns	r3, r3
 8002736:	69ba      	ldr	r2, [r7, #24]
 8002738:	4013      	ands	r3, r2
 800273a:	61bb      	str	r3, [r7, #24]
        if((GPIO_Init->Mode & EXTI_EVT) != 0x00U)
 800273c:	683b      	ldr	r3, [r7, #0]
 800273e:	685b      	ldr	r3, [r3, #4]
 8002740:	f403 3300 	and.w	r3, r3, #131072	; 0x20000
 8002744:	2b00      	cmp	r3, #0
 8002746:	d003      	beq.n	8002750 <HAL_GPIO_Init+0x270>
        {
          temp |= iocurrent;
 8002748:	69ba      	ldr	r2, [r7, #24]
 800274a:	693b      	ldr	r3, [r7, #16]
 800274c:	4313      	orrs	r3, r2
 800274e:	61bb      	str	r3, [r7, #24]
        }
        EXTI->EMR = temp;
 8002750:	4a24      	ldr	r2, [pc, #144]	; (80027e4 <HAL_GPIO_Init+0x304>)
 8002752:	69bb      	ldr	r3, [r7, #24]
 8002754:	6053      	str	r3, [r2, #4]

        /* Clear Rising Falling edge configuration */
        temp = EXTI->RTSR;
 8002756:	4b23      	ldr	r3, [pc, #140]	; (80027e4 <HAL_GPIO_Init+0x304>)
 8002758:	689b      	ldr	r3, [r3, #8]
 800275a:	61bb      	str	r3, [r7, #24]
        temp &= ~((uint32_t)iocurrent);
 800275c:	693b      	ldr	r3, [r7, #16]
 800275e:	43db      	mvns	r3, r3
 8002760:	69ba      	ldr	r2, [r7, #24]
 8002762:	4013      	ands	r3, r2
 8002764:	61bb      	str	r3, [r7, #24]
        if((GPIO_Init->Mode & TRIGGER_RISING) != 0x00U)
 8002766:	683b      	ldr	r3, [r7, #0]
 8002768:	685b      	ldr	r3, [r3, #4]
 800276a:	f403 1380 	and.w	r3, r3, #1048576	; 0x100000
 800276e:	2b00      	cmp	r3, #0
 8002770:	d003      	beq.n	800277a <HAL_GPIO_Init+0x29a>
        {
          temp |= iocurrent;
 8002772:	69ba      	ldr	r2, [r7, #24]
 8002774:	693b      	ldr	r3, [r7, #16]
 8002776:	4313      	orrs	r3, r2
 8002778:	61bb      	str	r3, [r7, #24]
        }
        EXTI->RTSR = temp;
 800277a:	4a1a      	ldr	r2, [pc, #104]	; (80027e4 <HAL_GPIO_Init+0x304>)
 800277c:	69bb      	ldr	r3, [r7, #24]
 800277e:	6093      	str	r3, [r2, #8]

        temp = EXTI->FTSR;
 8002780:	4b18      	ldr	r3, [pc, #96]	; (80027e4 <HAL_GPIO_Init+0x304>)
 8002782:	68db      	ldr	r3, [r3, #12]
 8002784:	61bb      	str	r3, [r7, #24]
        temp &= ~((uint32_t)iocurrent);
 8002786:	693b      	ldr	r3, [r7, #16]
 8002788:	43db      	mvns	r3, r3
 800278a:	69ba      	ldr	r2, [r7, #24]
 800278c:	4013      	ands	r3, r2
 800278e:	61bb      	str	r3, [r7, #24]
        if((GPIO_Init->Mode & TRIGGER_FALLING) != 0x00U)
 8002790:	683b      	ldr	r3, [r7, #0]
 8002792:	685b      	ldr	r3, [r3, #4]
 8002794:	f403 1300 	and.w	r3, r3, #2097152	; 0x200000
 8002798:	2b00      	cmp	r3, #0
 800279a:	d003      	beq.n	80027a4 <HAL_GPIO_Init+0x2c4>
        {
          temp |= iocurrent;
 800279c:	69ba      	ldr	r2, [r7, #24]
 800279e:	693b      	ldr	r3, [r7, #16]
 80027a0:	4313      	orrs	r3, r2
 80027a2:	61bb      	str	r3, [r7, #24]
        }
        EXTI->FTSR = temp;
 80027a4:	4a0f      	ldr	r2, [pc, #60]	; (80027e4 <HAL_GPIO_Init+0x304>)
 80027a6:	69bb      	ldr	r3, [r7, #24]
 80027a8:	60d3      	str	r3, [r2, #12]
  for(position = 0U; position < GPIO_NUMBER; position++)
 80027aa:	69fb      	ldr	r3, [r7, #28]
 80027ac:	3301      	adds	r3, #1
 80027ae:	61fb      	str	r3, [r7, #28]
 80027b0:	69fb      	ldr	r3, [r7, #28]
 80027b2:	2b0f      	cmp	r3, #15
 80027b4:	f67f aea2 	bls.w	80024fc <HAL_GPIO_Init+0x1c>
      }
    }
  }
}
 80027b8:	bf00      	nop
 80027ba:	bf00      	nop
 80027bc:	3724      	adds	r7, #36	; 0x24
 80027be:	46bd      	mov	sp, r7
 80027c0:	f85d 7b04 	ldr.w	r7, [sp], #4
 80027c4:	4770      	bx	lr
 80027c6:	bf00      	nop
 80027c8:	40023800 	.word	0x40023800
 80027cc:	40013800 	.word	0x40013800
 80027d0:	40020000 	.word	0x40020000
 80027d4:	40020400 	.word	0x40020400
 80027d8:	40020800 	.word	0x40020800
 80027dc:	40020c00 	.word	0x40020c00
 80027e0:	40021000 	.word	0x40021000
 80027e4:	40013c00 	.word	0x40013c00

080027e8 <HAL_GPIO_WritePin>:
  *            @arg GPIO_PIN_RESET: to clear the port pin
  *            @arg GPIO_PIN_SET: to set the port pin
  * @retval None
  */
void HAL_GPIO_WritePin(GPIO_TypeDef* GPIOx, uint16_t GPIO_Pin, GPIO_PinState PinState)
{
 80027e8:	b480      	push	{r7}
 80027ea:	b083      	sub	sp, #12
 80027ec:	af00      	add	r7, sp, #0
 80027ee:	6078      	str	r0, [r7, #4]
 80027f0:	460b      	mov	r3, r1
 80027f2:	807b      	strh	r3, [r7, #2]
 80027f4:	4613      	mov	r3, r2
 80027f6:	707b      	strb	r3, [r7, #1]
  /* Check the parameters */
  assert_param(IS_GPIO_PIN(GPIO_Pin));
  assert_param(IS_GPIO_PIN_ACTION(PinState));

  if(PinState != GPIO_PIN_RESET)
 80027f8:	787b      	ldrb	r3, [r7, #1]
 80027fa:	2b00      	cmp	r3, #0
 80027fc:	d003      	beq.n	8002806 <HAL_GPIO_WritePin+0x1e>
  {
    GPIOx->BSRR = GPIO_Pin;
 80027fe:	887a      	ldrh	r2, [r7, #2]
 8002800:	687b      	ldr	r3, [r7, #4]
 8002802:	619a      	str	r2, [r3, #24]
  }
  else
  {
    GPIOx->BSRR = (uint32_t)GPIO_Pin << 16U;
  }
}
 8002804:	e003      	b.n	800280e <HAL_GPIO_WritePin+0x26>
    GPIOx->BSRR = (uint32_t)GPIO_Pin << 16U;
 8002806:	887b      	ldrh	r3, [r7, #2]
 8002808:	041a      	lsls	r2, r3, #16
 800280a:	687b      	ldr	r3, [r7, #4]
 800280c:	619a      	str	r2, [r3, #24]
}
 800280e:	bf00      	nop
 8002810:	370c      	adds	r7, #12
 8002812:	46bd      	mov	sp, r7
 8002814:	f85d 7b04 	ldr.w	r7, [sp], #4
 8002818:	4770      	bx	lr
	...

0800281c <HAL_I2C_Init>:
  * @param  hi2c Pointer to a I2C_HandleTypeDef structure that contains
  *                the configuration information for the specified I2C.
  * @retval HAL status
  */
HAL_StatusTypeDef HAL_I2C_Init(I2C_HandleTypeDef *hi2c)
{
 800281c:	b580      	push	{r7, lr}
 800281e:	b084      	sub	sp, #16
 8002820:	af00      	add	r7, sp, #0
 8002822:	6078      	str	r0, [r7, #4]
  uint32_t freqrange;
  uint32_t pclk1;

  /* Check the I2C handle allocation */
  if (hi2c == NULL)
 8002824:	687b      	ldr	r3, [r7, #4]
 8002826:	2b00      	cmp	r3, #0
 8002828:	d101      	bne.n	800282e <HAL_I2C_Init+0x12>
  {
    return HAL_ERROR;
 800282a:	2301      	movs	r3, #1
 800282c:	e12b      	b.n	8002a86 <HAL_I2C_Init+0x26a>
  assert_param(IS_I2C_DUAL_ADDRESS(hi2c->Init.DualAddressMode));
  assert_param(IS_I2C_OWN_ADDRESS2(hi2c->Init.OwnAddress2));
  assert_param(IS_I2C_GENERAL_CALL(hi2c->Init.GeneralCallMode));
  assert_param(IS_I2C_NO_STRETCH(hi2c->Init.NoStretchMode));

  if (hi2c->State == HAL_I2C_STATE_RESET)
 800282e:	687b      	ldr	r3, [r7, #4]
 8002830:	f893 303d 	ldrb.w	r3, [r3, #61]	; 0x3d
 8002834:	b2db      	uxtb	r3, r3
 8002836:	2b00      	cmp	r3, #0
 8002838:	d106      	bne.n	8002848 <HAL_I2C_Init+0x2c>
  {
    /* Allocate lock resource and initialize it */
    hi2c->Lock = HAL_UNLOCKED;
 800283a:	687b      	ldr	r3, [r7, #4]
 800283c:	2200      	movs	r2, #0
 800283e:	f883 203c 	strb.w	r2, [r3, #60]	; 0x3c

    /* Init the low level hardware : GPIO, CLOCK, NVIC */
    hi2c->MspInitCallback(hi2c);
#else
    /* Init the low level hardware : GPIO, CLOCK, NVIC */
    HAL_I2C_MspInit(hi2c);
 8002842:	6878      	ldr	r0, [r7, #4]
 8002844:	f7fe ff00 	bl	8001648 <HAL_I2C_MspInit>
#endif /* USE_HAL_I2C_REGISTER_CALLBACKS */
  }

  hi2c->State = HAL_I2C_STATE_BUSY;
 8002848:	687b      	ldr	r3, [r7, #4]
 800284a:	2224      	movs	r2, #36	; 0x24
 800284c:	f883 203d 	strb.w	r2, [r3, #61]	; 0x3d

  /* Disable the selected I2C peripheral */
  __HAL_I2C_DISABLE(hi2c);
 8002850:	687b      	ldr	r3, [r7, #4]
 8002852:	681b      	ldr	r3, [r3, #0]
 8002854:	681a      	ldr	r2, [r3, #0]
 8002856:	687b      	ldr	r3, [r7, #4]
 8002858:	681b      	ldr	r3, [r3, #0]
 800285a:	f022 0201 	bic.w	r2, r2, #1
 800285e:	601a      	str	r2, [r3, #0]

  /*Reset I2C*/
  hi2c->Instance->CR1 |= I2C_CR1_SWRST;
 8002860:	687b      	ldr	r3, [r7, #4]
 8002862:	681b      	ldr	r3, [r3, #0]
 8002864:	681a      	ldr	r2, [r3, #0]
 8002866:	687b      	ldr	r3, [r7, #4]
 8002868:	681b      	ldr	r3, [r3, #0]
 800286a:	f442 4200 	orr.w	r2, r2, #32768	; 0x8000
 800286e:	601a      	str	r2, [r3, #0]
  hi2c->Instance->CR1 &= ~I2C_CR1_SWRST;
 8002870:	687b      	ldr	r3, [r7, #4]
 8002872:	681b      	ldr	r3, [r3, #0]
 8002874:	681a      	ldr	r2, [r3, #0]
 8002876:	687b      	ldr	r3, [r7, #4]
 8002878:	681b      	ldr	r3, [r3, #0]
 800287a:	f422 4200 	bic.w	r2, r2, #32768	; 0x8000
 800287e:	601a      	str	r2, [r3, #0]

  /* Get PCLK1 frequency */
  pclk1 = HAL_RCC_GetPCLK1Freq();
 8002880:	f003 f8a8 	bl	80059d4 <HAL_RCC_GetPCLK1Freq>
 8002884:	60f8      	str	r0, [r7, #12]

  /* Check the minimum allowed PCLK1 frequency */
  if (I2C_MIN_PCLK_FREQ(pclk1, hi2c->Init.ClockSpeed) == 1U)
 8002886:	687b      	ldr	r3, [r7, #4]
 8002888:	685b      	ldr	r3, [r3, #4]
 800288a:	4a81      	ldr	r2, [pc, #516]	; (8002a90 <HAL_I2C_Init+0x274>)
 800288c:	4293      	cmp	r3, r2
 800288e:	d807      	bhi.n	80028a0 <HAL_I2C_Init+0x84>
 8002890:	68fb      	ldr	r3, [r7, #12]
 8002892:	4a80      	ldr	r2, [pc, #512]	; (8002a94 <HAL_I2C_Init+0x278>)
 8002894:	4293      	cmp	r3, r2
 8002896:	bf94      	ite	ls
 8002898:	2301      	movls	r3, #1
 800289a:	2300      	movhi	r3, #0
 800289c:	b2db      	uxtb	r3, r3
 800289e:	e006      	b.n	80028ae <HAL_I2C_Init+0x92>
 80028a0:	68fb      	ldr	r3, [r7, #12]
 80028a2:	4a7d      	ldr	r2, [pc, #500]	; (8002a98 <HAL_I2C_Init+0x27c>)
 80028a4:	4293      	cmp	r3, r2
 80028a6:	bf94      	ite	ls
 80028a8:	2301      	movls	r3, #1
 80028aa:	2300      	movhi	r3, #0
 80028ac:	b2db      	uxtb	r3, r3
 80028ae:	2b00      	cmp	r3, #0
 80028b0:	d001      	beq.n	80028b6 <HAL_I2C_Init+0x9a>
  {
    return HAL_ERROR;
 80028b2:	2301      	movs	r3, #1
 80028b4:	e0e7      	b.n	8002a86 <HAL_I2C_Init+0x26a>
  }

  /* Calculate frequency range */
  freqrange = I2C_FREQRANGE(pclk1);
 80028b6:	68fb      	ldr	r3, [r7, #12]
 80028b8:	4a78      	ldr	r2, [pc, #480]	; (8002a9c <HAL_I2C_Init+0x280>)
 80028ba:	fba2 2303 	umull	r2, r3, r2, r3
 80028be:	0c9b      	lsrs	r3, r3, #18
 80028c0:	60bb      	str	r3, [r7, #8]

  /*---------------------------- I2Cx CR2 Configuration ----------------------*/
  /* Configure I2Cx: Frequency range */
  MODIFY_REG(hi2c->Instance->CR2, I2C_CR2_FREQ, freqrange);
 80028c2:	687b      	ldr	r3, [r7, #4]
 80028c4:	681b      	ldr	r3, [r3, #0]
 80028c6:	685b      	ldr	r3, [r3, #4]
 80028c8:	f023 013f 	bic.w	r1, r3, #63	; 0x3f
 80028cc:	687b      	ldr	r3, [r7, #4]
 80028ce:	681b      	ldr	r3, [r3, #0]
 80028d0:	68ba      	ldr	r2, [r7, #8]
 80028d2:	430a      	orrs	r2, r1
 80028d4:	605a      	str	r2, [r3, #4]

  /*---------------------------- I2Cx TRISE Configuration --------------------*/
  /* Configure I2Cx: Rise Time */
  MODIFY_REG(hi2c->Instance->TRISE, I2C_TRISE_TRISE, I2C_RISE_TIME(freqrange, hi2c->Init.ClockSpeed));
 80028d6:	687b      	ldr	r3, [r7, #4]
 80028d8:	681b      	ldr	r3, [r3, #0]
 80028da:	6a1b      	ldr	r3, [r3, #32]
 80028dc:	f023 013f 	bic.w	r1, r3, #63	; 0x3f
 80028e0:	687b      	ldr	r3, [r7, #4]
 80028e2:	685b      	ldr	r3, [r3, #4]
 80028e4:	4a6a      	ldr	r2, [pc, #424]	; (8002a90 <HAL_I2C_Init+0x274>)
 80028e6:	4293      	cmp	r3, r2
 80028e8:	d802      	bhi.n	80028f0 <HAL_I2C_Init+0xd4>
 80028ea:	68bb      	ldr	r3, [r7, #8]
 80028ec:	3301      	adds	r3, #1
 80028ee:	e009      	b.n	8002904 <HAL_I2C_Init+0xe8>
 80028f0:	68bb      	ldr	r3, [r7, #8]
 80028f2:	f44f 7296 	mov.w	r2, #300	; 0x12c
 80028f6:	fb02 f303 	mul.w	r3, r2, r3
 80028fa:	4a69      	ldr	r2, [pc, #420]	; (8002aa0 <HAL_I2C_Init+0x284>)
 80028fc:	fba2 2303 	umull	r2, r3, r2, r3
 8002900:	099b      	lsrs	r3, r3, #6
 8002902:	3301      	adds	r3, #1
 8002904:	687a      	ldr	r2, [r7, #4]
 8002906:	6812      	ldr	r2, [r2, #0]
 8002908:	430b      	orrs	r3, r1
 800290a:	6213      	str	r3, [r2, #32]

  /*---------------------------- I2Cx CCR Configuration ----------------------*/
  /* Configure I2Cx: Speed */
  MODIFY_REG(hi2c->Instance->CCR, (I2C_CCR_FS | I2C_CCR_DUTY | I2C_CCR_CCR), I2C_SPEED(pclk1, hi2c->Init.ClockSpeed, hi2c->Init.DutyCycle));
 800290c:	687b      	ldr	r3, [r7, #4]
 800290e:	681b      	ldr	r3, [r3, #0]
 8002910:	69db      	ldr	r3, [r3, #28]
 8002912:	f423 424f 	bic.w	r2, r3, #52992	; 0xcf00
 8002916:	f022 02ff 	bic.w	r2, r2, #255	; 0xff
 800291a:	687b      	ldr	r3, [r7, #4]
 800291c:	685b      	ldr	r3, [r3, #4]
 800291e:	495c      	ldr	r1, [pc, #368]	; (8002a90 <HAL_I2C_Init+0x274>)
 8002920:	428b      	cmp	r3, r1
 8002922:	d819      	bhi.n	8002958 <HAL_I2C_Init+0x13c>
 8002924:	68fb      	ldr	r3, [r7, #12]
 8002926:	1e59      	subs	r1, r3, #1
 8002928:	687b      	ldr	r3, [r7, #4]
 800292a:	685b      	ldr	r3, [r3, #4]
 800292c:	005b      	lsls	r3, r3, #1
 800292e:	fbb1 f3f3 	udiv	r3, r1, r3
 8002932:	1c59      	adds	r1, r3, #1
 8002934:	f640 73fc 	movw	r3, #4092	; 0xffc
 8002938:	400b      	ands	r3, r1
 800293a:	2b00      	cmp	r3, #0
 800293c:	d00a      	beq.n	8002954 <HAL_I2C_Init+0x138>
 800293e:	68fb      	ldr	r3, [r7, #12]
 8002940:	1e59      	subs	r1, r3, #1
 8002942:	687b      	ldr	r3, [r7, #4]
 8002944:	685b      	ldr	r3, [r3, #4]
 8002946:	005b      	lsls	r3, r3, #1
 8002948:	fbb1 f3f3 	udiv	r3, r1, r3
 800294c:	3301      	adds	r3, #1
 800294e:	f3c3 030b 	ubfx	r3, r3, #0, #12
 8002952:	e051      	b.n	80029f8 <HAL_I2C_Init+0x1dc>
 8002954:	2304      	movs	r3, #4
 8002956:	e04f      	b.n	80029f8 <HAL_I2C_Init+0x1dc>
 8002958:	687b      	ldr	r3, [r7, #4]
 800295a:	689b      	ldr	r3, [r3, #8]
 800295c:	2b00      	cmp	r3, #0
 800295e:	d111      	bne.n	8002984 <HAL_I2C_Init+0x168>
 8002960:	68fb      	ldr	r3, [r7, #12]
 8002962:	1e58      	subs	r0, r3, #1
 8002964:	687b      	ldr	r3, [r7, #4]
 8002966:	6859      	ldr	r1, [r3, #4]
 8002968:	460b      	mov	r3, r1
 800296a:	005b      	lsls	r3, r3, #1
 800296c:	440b      	add	r3, r1
 800296e:	fbb0 f3f3 	udiv	r3, r0, r3
 8002972:	3301      	adds	r3, #1
 8002974:	f3c3 030b 	ubfx	r3, r3, #0, #12
 8002978:	2b00      	cmp	r3, #0
 800297a:	bf0c      	ite	eq
 800297c:	2301      	moveq	r3, #1
 800297e:	2300      	movne	r3, #0
 8002980:	b2db      	uxtb	r3, r3
 8002982:	e012      	b.n	80029aa <HAL_I2C_Init+0x18e>
 8002984:	68fb      	ldr	r3, [r7, #12]
 8002986:	1e58      	subs	r0, r3, #1
 8002988:	687b      	ldr	r3, [r7, #4]
 800298a:	6859      	ldr	r1, [r3, #4]
 800298c:	460b      	mov	r3, r1
 800298e:	009b      	lsls	r3, r3, #2
 8002990:	440b      	add	r3, r1
 8002992:	0099      	lsls	r1, r3, #2
 8002994:	440b      	add	r3, r1
 8002996:	fbb0 f3f3 	udiv	r3, r0, r3
 800299a:	3301      	adds	r3, #1
 800299c:	f3c3 030b 	ubfx	r3, r3, #0, #12
 80029a0:	2b00      	cmp	r3, #0
 80029a2:	bf0c      	ite	eq
 80029a4:	2301      	moveq	r3, #1
 80029a6:	2300      	movne	r3, #0
 80029a8:	b2db      	uxtb	r3, r3
 80029aa:	2b00      	cmp	r3, #0
 80029ac:	d001      	beq.n	80029b2 <HAL_I2C_Init+0x196>
 80029ae:	2301      	movs	r3, #1
 80029b0:	e022      	b.n	80029f8 <HAL_I2C_Init+0x1dc>
 80029b2:	687b      	ldr	r3, [r7, #4]
 80029b4:	689b      	ldr	r3, [r3, #8]
 80029b6:	2b00      	cmp	r3, #0
 80029b8:	d10e      	bne.n	80029d8 <HAL_I2C_Init+0x1bc>
 80029ba:	68fb      	ldr	r3, [r7, #12]
 80029bc:	1e58      	subs	r0, r3, #1
 80029be:	687b      	ldr	r3, [r7, #4]
 80029c0:	6859      	ldr	r1, [r3, #4]
 80029c2:	460b      	mov	r3, r1
 80029c4:	005b      	lsls	r3, r3, #1
 80029c6:	440b      	add	r3, r1
 80029c8:	fbb0 f3f3 	udiv	r3, r0, r3
 80029cc:	3301      	adds	r3, #1
 80029ce:	f3c3 030b 	ubfx	r3, r3, #0, #12
 80029d2:	f443 4300 	orr.w	r3, r3, #32768	; 0x8000
 80029d6:	e00f      	b.n	80029f8 <HAL_I2C_Init+0x1dc>
 80029d8:	68fb      	ldr	r3, [r7, #12]
 80029da:	1e58      	subs	r0, r3, #1
 80029dc:	687b      	ldr	r3, [r7, #4]
 80029de:	6859      	ldr	r1, [r3, #4]
 80029e0:	460b      	mov	r3, r1
 80029e2:	009b      	lsls	r3, r3, #2
 80029e4:	440b      	add	r3, r1
 80029e6:	0099      	lsls	r1, r3, #2
 80029e8:	440b      	add	r3, r1
 80029ea:	fbb0 f3f3 	udiv	r3, r0, r3
 80029ee:	3301      	adds	r3, #1
 80029f0:	f3c3 030b 	ubfx	r3, r3, #0, #12
 80029f4:	f443 4340 	orr.w	r3, r3, #49152	; 0xc000
 80029f8:	6879      	ldr	r1, [r7, #4]
 80029fa:	6809      	ldr	r1, [r1, #0]
 80029fc:	4313      	orrs	r3, r2
 80029fe:	61cb      	str	r3, [r1, #28]

  /*---------------------------- I2Cx CR1 Configuration ----------------------*/
  /* Configure I2Cx: Generalcall and NoStretch mode */
  MODIFY_REG(hi2c->Instance->CR1, (I2C_CR1_ENGC | I2C_CR1_NOSTRETCH), (hi2c->Init.GeneralCallMode | hi2c->Init.NoStretchMode));
 8002a00:	687b      	ldr	r3, [r7, #4]
 8002a02:	681b      	ldr	r3, [r3, #0]
 8002a04:	681b      	ldr	r3, [r3, #0]
 8002a06:	f023 01c0 	bic.w	r1, r3, #192	; 0xc0
 8002a0a:	687b      	ldr	r3, [r7, #4]
 8002a0c:	69da      	ldr	r2, [r3, #28]
 8002a0e:	687b      	ldr	r3, [r7, #4]
 8002a10:	6a1b      	ldr	r3, [r3, #32]
 8002a12:	431a      	orrs	r2, r3
 8002a14:	687b      	ldr	r3, [r7, #4]
 8002a16:	681b      	ldr	r3, [r3, #0]
 8002a18:	430a      	orrs	r2, r1
 8002a1a:	601a      	str	r2, [r3, #0]

  /*---------------------------- I2Cx OAR1 Configuration ---------------------*/
  /* Configure I2Cx: Own Address1 and addressing mode */
  MODIFY_REG(hi2c->Instance->OAR1, (I2C_OAR1_ADDMODE | I2C_OAR1_ADD8_9 | I2C_OAR1_ADD1_7 | I2C_OAR1_ADD0), (hi2c->Init.AddressingMode | hi2c->Init.OwnAddress1));
 8002a1c:	687b      	ldr	r3, [r7, #4]
 8002a1e:	681b      	ldr	r3, [r3, #0]
 8002a20:	689b      	ldr	r3, [r3, #8]
 8002a22:	f423 4303 	bic.w	r3, r3, #33536	; 0x8300
 8002a26:	f023 03ff 	bic.w	r3, r3, #255	; 0xff
 8002a2a:	687a      	ldr	r2, [r7, #4]
 8002a2c:	6911      	ldr	r1, [r2, #16]
 8002a2e:	687a      	ldr	r2, [r7, #4]
 8002a30:	68d2      	ldr	r2, [r2, #12]
 8002a32:	4311      	orrs	r1, r2
 8002a34:	687a      	ldr	r2, [r7, #4]
 8002a36:	6812      	ldr	r2, [r2, #0]
 8002a38:	430b      	orrs	r3, r1
 8002a3a:	6093      	str	r3, [r2, #8]

  /*---------------------------- I2Cx OAR2 Configuration ---------------------*/
  /* Configure I2Cx: Dual mode and Own Address2 */
  MODIFY_REG(hi2c->Instance->OAR2, (I2C_OAR2_ENDUAL | I2C_OAR2_ADD2), (hi2c->Init.DualAddressMode | hi2c->Init.OwnAddress2));
 8002a3c:	687b      	ldr	r3, [r7, #4]
 8002a3e:	681b      	ldr	r3, [r3, #0]
 8002a40:	68db      	ldr	r3, [r3, #12]
 8002a42:	f023 01ff 	bic.w	r1, r3, #255	; 0xff
 8002a46:	687b      	ldr	r3, [r7, #4]
 8002a48:	695a      	ldr	r2, [r3, #20]
 8002a4a:	687b      	ldr	r3, [r7, #4]
 8002a4c:	699b      	ldr	r3, [r3, #24]
 8002a4e:	431a      	orrs	r2, r3
 8002a50:	687b      	ldr	r3, [r7, #4]
 8002a52:	681b      	ldr	r3, [r3, #0]
 8002a54:	430a      	orrs	r2, r1
 8002a56:	60da      	str	r2, [r3, #12]

  /* Enable the selected I2C peripheral */
  __HAL_I2C_ENABLE(hi2c);
 8002a58:	687b      	ldr	r3, [r7, #4]
 8002a5a:	681b      	ldr	r3, [r3, #0]
 8002a5c:	681a      	ldr	r2, [r3, #0]
 8002a5e:	687b      	ldr	r3, [r7, #4]
 8002a60:	681b      	ldr	r3, [r3, #0]
 8002a62:	f042 0201 	orr.w	r2, r2, #1
 8002a66:	601a      	str	r2, [r3, #0]

  hi2c->ErrorCode = HAL_I2C_ERROR_NONE;
 8002a68:	687b      	ldr	r3, [r7, #4]
 8002a6a:	2200      	movs	r2, #0
 8002a6c:	641a      	str	r2, [r3, #64]	; 0x40
  hi2c->State = HAL_I2C_STATE_READY;
 8002a6e:	687b      	ldr	r3, [r7, #4]
 8002a70:	2220      	movs	r2, #32
 8002a72:	f883 203d 	strb.w	r2, [r3, #61]	; 0x3d
  hi2c->PreviousState = I2C_STATE_NONE;
 8002a76:	687b      	ldr	r3, [r7, #4]
 8002a78:	2200      	movs	r2, #0
 8002a7a:	631a      	str	r2, [r3, #48]	; 0x30
  hi2c->Mode = HAL_I2C_MODE_NONE;
 8002a7c:	687b      	ldr	r3, [r7, #4]
 8002a7e:	2200      	movs	r2, #0
 8002a80:	f883 203e 	strb.w	r2, [r3, #62]	; 0x3e

  return HAL_OK;
 8002a84:	2300      	movs	r3, #0
}
 8002a86:	4618      	mov	r0, r3
 8002a88:	3710      	adds	r7, #16
 8002a8a:	46bd      	mov	sp, r7
 8002a8c:	bd80      	pop	{r7, pc}
 8002a8e:	bf00      	nop
 8002a90:	000186a0 	.word	0x000186a0
 8002a94:	001e847f 	.word	0x001e847f
 8002a98:	003d08ff 	.word	0x003d08ff
 8002a9c:	431bde83 	.word	0x431bde83
 8002aa0:	10624dd3 	.word	0x10624dd3

08002aa4 <HAL_I2C_Mem_Write>:
  * @param  Size Amount of data to be sent
  * @param  Timeout Timeout duration
  * @retval HAL status
  */
HAL_StatusTypeDef HAL_I2C_Mem_Write(I2C_HandleTypeDef *hi2c, uint16_t DevAddress, uint16_t MemAddress, uint16_t MemAddSize, uint8_t *pData, uint16_t Size, uint32_t Timeout)
{
 8002aa4:	b580      	push	{r7, lr}
 8002aa6:	b088      	sub	sp, #32
 8002aa8:	af02      	add	r7, sp, #8
 8002aaa:	60f8      	str	r0, [r7, #12]
 8002aac:	4608      	mov	r0, r1
 8002aae:	4611      	mov	r1, r2
 8002ab0:	461a      	mov	r2, r3
 8002ab2:	4603      	mov	r3, r0
 8002ab4:	817b      	strh	r3, [r7, #10]
 8002ab6:	460b      	mov	r3, r1
 8002ab8:	813b      	strh	r3, [r7, #8]
 8002aba:	4613      	mov	r3, r2
 8002abc:	80fb      	strh	r3, [r7, #6]
  /* Init tickstart for timeout management*/
  uint32_t tickstart = HAL_GetTick();
 8002abe:	f7ff f82d 	bl	8001b1c <HAL_GetTick>
 8002ac2:	6178      	str	r0, [r7, #20]

  /* Check the parameters */
  assert_param(IS_I2C_MEMADD_SIZE(MemAddSize));

  if (hi2c->State == HAL_I2C_STATE_READY)
 8002ac4:	68fb      	ldr	r3, [r7, #12]
 8002ac6:	f893 303d 	ldrb.w	r3, [r3, #61]	; 0x3d
 8002aca:	b2db      	uxtb	r3, r3
 8002acc:	2b20      	cmp	r3, #32
 8002ace:	f040 80d9 	bne.w	8002c84 <HAL_I2C_Mem_Write+0x1e0>
  {
    /* Wait until BUSY flag is reset */
    if (I2C_WaitOnFlagUntilTimeout(hi2c, I2C_FLAG_BUSY, SET, I2C_TIMEOUT_BUSY_FLAG, tickstart) != HAL_OK)
 8002ad2:	697b      	ldr	r3, [r7, #20]
 8002ad4:	9300      	str	r3, [sp, #0]
 8002ad6:	2319      	movs	r3, #25
 8002ad8:	2201      	movs	r2, #1
 8002ada:	496d      	ldr	r1, [pc, #436]	; (8002c90 <HAL_I2C_Mem_Write+0x1ec>)
 8002adc:	68f8      	ldr	r0, [r7, #12]
 8002ade:	f002 f903 	bl	8004ce8 <I2C_WaitOnFlagUntilTimeout>
 8002ae2:	4603      	mov	r3, r0
 8002ae4:	2b00      	cmp	r3, #0
 8002ae6:	d001      	beq.n	8002aec <HAL_I2C_Mem_Write+0x48>
    {
      return HAL_BUSY;
 8002ae8:	2302      	movs	r3, #2
 8002aea:	e0cc      	b.n	8002c86 <HAL_I2C_Mem_Write+0x1e2>
    }

    /* Process Locked */
    __HAL_LOCK(hi2c);
 8002aec:	68fb      	ldr	r3, [r7, #12]
 8002aee:	f893 303c 	ldrb.w	r3, [r3, #60]	; 0x3c
 8002af2:	2b01      	cmp	r3, #1
 8002af4:	d101      	bne.n	8002afa <HAL_I2C_Mem_Write+0x56>
 8002af6:	2302      	movs	r3, #2
 8002af8:	e0c5      	b.n	8002c86 <HAL_I2C_Mem_Write+0x1e2>
 8002afa:	68fb      	ldr	r3, [r7, #12]
 8002afc:	2201      	movs	r2, #1
 8002afe:	f883 203c 	strb.w	r2, [r3, #60]	; 0x3c

    /* Check if the I2C is already enabled */
    if ((hi2c->Instance->CR1 & I2C_CR1_PE) != I2C_CR1_PE)
 8002b02:	68fb      	ldr	r3, [r7, #12]
 8002b04:	681b      	ldr	r3, [r3, #0]
 8002b06:	681b      	ldr	r3, [r3, #0]
 8002b08:	f003 0301 	and.w	r3, r3, #1
 8002b0c:	2b01      	cmp	r3, #1
 8002b0e:	d007      	beq.n	8002b20 <HAL_I2C_Mem_Write+0x7c>
    {
      /* Enable I2C peripheral */
      __HAL_I2C_ENABLE(hi2c);
 8002b10:	68fb      	ldr	r3, [r7, #12]
 8002b12:	681b      	ldr	r3, [r3, #0]
 8002b14:	681a      	ldr	r2, [r3, #0]
 8002b16:	68fb      	ldr	r3, [r7, #12]
 8002b18:	681b      	ldr	r3, [r3, #0]
 8002b1a:	f042 0201 	orr.w	r2, r2, #1
 8002b1e:	601a      	str	r2, [r3, #0]
    }

    /* Disable Pos */
    CLEAR_BIT(hi2c->Instance->CR1, I2C_CR1_POS);
 8002b20:	68fb      	ldr	r3, [r7, #12]
 8002b22:	681b      	ldr	r3, [r3, #0]
 8002b24:	681a      	ldr	r2, [r3, #0]
 8002b26:	68fb      	ldr	r3, [r7, #12]
 8002b28:	681b      	ldr	r3, [r3, #0]
 8002b2a:	f422 6200 	bic.w	r2, r2, #2048	; 0x800
 8002b2e:	601a      	str	r2, [r3, #0]

    hi2c->State     = HAL_I2C_STATE_BUSY_TX;
 8002b30:	68fb      	ldr	r3, [r7, #12]
 8002b32:	2221      	movs	r2, #33	; 0x21
 8002b34:	f883 203d 	strb.w	r2, [r3, #61]	; 0x3d
    hi2c->Mode      = HAL_I2C_MODE_MEM;
 8002b38:	68fb      	ldr	r3, [r7, #12]
 8002b3a:	2240      	movs	r2, #64	; 0x40
 8002b3c:	f883 203e 	strb.w	r2, [r3, #62]	; 0x3e
    hi2c->ErrorCode = HAL_I2C_ERROR_NONE;
 8002b40:	68fb      	ldr	r3, [r7, #12]
 8002b42:	2200      	movs	r2, #0
 8002b44:	641a      	str	r2, [r3, #64]	; 0x40

    /* Prepare transfer parameters */
    hi2c->pBuffPtr    = pData;
 8002b46:	68fb      	ldr	r3, [r7, #12]
 8002b48:	6a3a      	ldr	r2, [r7, #32]
 8002b4a:	625a      	str	r2, [r3, #36]	; 0x24
    hi2c->XferCount   = Size;
 8002b4c:	68fb      	ldr	r3, [r7, #12]
 8002b4e:	8cba      	ldrh	r2, [r7, #36]	; 0x24
 8002b50:	855a      	strh	r2, [r3, #42]	; 0x2a
    hi2c->XferSize    = hi2c->XferCount;
 8002b52:	68fb      	ldr	r3, [r7, #12]
 8002b54:	8d5b      	ldrh	r3, [r3, #42]	; 0x2a
 8002b56:	b29a      	uxth	r2, r3
 8002b58:	68fb      	ldr	r3, [r7, #12]
 8002b5a:	851a      	strh	r2, [r3, #40]	; 0x28
    hi2c->XferOptions = I2C_NO_OPTION_FRAME;
 8002b5c:	68fb      	ldr	r3, [r7, #12]
 8002b5e:	4a4d      	ldr	r2, [pc, #308]	; (8002c94 <HAL_I2C_Mem_Write+0x1f0>)
 8002b60:	62da      	str	r2, [r3, #44]	; 0x2c

    /* Send Slave Address and Memory Address */
    if (I2C_RequestMemoryWrite(hi2c, DevAddress, MemAddress, MemAddSize, Timeout, tickstart) != HAL_OK)
 8002b62:	88f8      	ldrh	r0, [r7, #6]
 8002b64:	893a      	ldrh	r2, [r7, #8]
 8002b66:	8979      	ldrh	r1, [r7, #10]
 8002b68:	697b      	ldr	r3, [r7, #20]
 8002b6a:	9301      	str	r3, [sp, #4]
 8002b6c:	6abb      	ldr	r3, [r7, #40]	; 0x28
 8002b6e:	9300      	str	r3, [sp, #0]
 8002b70:	4603      	mov	r3, r0
 8002b72:	68f8      	ldr	r0, [r7, #12]
 8002b74:	f001 fe92 	bl	800489c <I2C_RequestMemoryWrite>
 8002b78:	4603      	mov	r3, r0
 8002b7a:	2b00      	cmp	r3, #0
 8002b7c:	d052      	beq.n	8002c24 <HAL_I2C_Mem_Write+0x180>
    {
      return HAL_ERROR;
 8002b7e:	2301      	movs	r3, #1
 8002b80:	e081      	b.n	8002c86 <HAL_I2C_Mem_Write+0x1e2>
    }

    while (hi2c->XferSize > 0U)
    {
      /* Wait until TXE flag is set */
      if (I2C_WaitOnTXEFlagUntilTimeout(hi2c, Timeout, tickstart) != HAL_OK)
 8002b82:	697a      	ldr	r2, [r7, #20]
 8002b84:	6ab9      	ldr	r1, [r7, #40]	; 0x28
 8002b86:	68f8      	ldr	r0, [r7, #12]
 8002b88:	f002 f984 	bl	8004e94 <I2C_WaitOnTXEFlagUntilTimeout>
 8002b8c:	4603      	mov	r3, r0
 8002b8e:	2b00      	cmp	r3, #0
 8002b90:	d00d      	beq.n	8002bae <HAL_I2C_Mem_Write+0x10a>
      {
        if (hi2c->ErrorCode == HAL_I2C_ERROR_AF)
 8002b92:	68fb      	ldr	r3, [r7, #12]
 8002b94:	6c1b      	ldr	r3, [r3, #64]	; 0x40
 8002b96:	2b04      	cmp	r3, #4
 8002b98:	d107      	bne.n	8002baa <HAL_I2C_Mem_Write+0x106>
        {
          /* Generate Stop */
          SET_BIT(hi2c->Instance->CR1, I2C_CR1_STOP);
 8002b9a:	68fb      	ldr	r3, [r7, #12]
 8002b9c:	681b      	ldr	r3, [r3, #0]
 8002b9e:	681a      	ldr	r2, [r3, #0]
 8002ba0:	68fb      	ldr	r3, [r7, #12]
 8002ba2:	681b      	ldr	r3, [r3, #0]
 8002ba4:	f442 7200 	orr.w	r2, r2, #512	; 0x200
 8002ba8:	601a      	str	r2, [r3, #0]
        }
        return HAL_ERROR;
 8002baa:	2301      	movs	r3, #1
 8002bac:	e06b      	b.n	8002c86 <HAL_I2C_Mem_Write+0x1e2>
      }

      /* Write data to DR */
      hi2c->Instance->DR = *hi2c->pBuffPtr;
 8002bae:	68fb      	ldr	r3, [r7, #12]
 8002bb0:	6a5b      	ldr	r3, [r3, #36]	; 0x24
 8002bb2:	781a      	ldrb	r2, [r3, #0]
 8002bb4:	68fb      	ldr	r3, [r7, #12]
 8002bb6:	681b      	ldr	r3, [r3, #0]
 8002bb8:	611a      	str	r2, [r3, #16]

      /* Increment Buffer pointer */
      hi2c->pBuffPtr++;
 8002bba:	68fb      	ldr	r3, [r7, #12]
 8002bbc:	6a5b      	ldr	r3, [r3, #36]	; 0x24
 8002bbe:	1c5a      	adds	r2, r3, #1
 8002bc0:	68fb      	ldr	r3, [r7, #12]
 8002bc2:	625a      	str	r2, [r3, #36]	; 0x24

      /* Update counter */
      hi2c->XferSize--;
 8002bc4:	68fb      	ldr	r3, [r7, #12]
 8002bc6:	8d1b      	ldrh	r3, [r3, #40]	; 0x28
 8002bc8:	3b01      	subs	r3, #1
 8002bca:	b29a      	uxth	r2, r3
 8002bcc:	68fb      	ldr	r3, [r7, #12]
 8002bce:	851a      	strh	r2, [r3, #40]	; 0x28
      hi2c->XferCount--;
 8002bd0:	68fb      	ldr	r3, [r7, #12]
 8002bd2:	8d5b      	ldrh	r3, [r3, #42]	; 0x2a
 8002bd4:	b29b      	uxth	r3, r3
 8002bd6:	3b01      	subs	r3, #1
 8002bd8:	b29a      	uxth	r2, r3
 8002bda:	68fb      	ldr	r3, [r7, #12]
 8002bdc:	855a      	strh	r2, [r3, #42]	; 0x2a

      if ((__HAL_I2C_GET_FLAG(hi2c, I2C_FLAG_BTF) == SET) && (hi2c->XferSize != 0U))
 8002bde:	68fb      	ldr	r3, [r7, #12]
 8002be0:	681b      	ldr	r3, [r3, #0]
 8002be2:	695b      	ldr	r3, [r3, #20]
 8002be4:	f003 0304 	and.w	r3, r3, #4
 8002be8:	2b04      	cmp	r3, #4
 8002bea:	d11b      	bne.n	8002c24 <HAL_I2C_Mem_Write+0x180>
 8002bec:	68fb      	ldr	r3, [r7, #12]
 8002bee:	8d1b      	ldrh	r3, [r3, #40]	; 0x28
 8002bf0:	2b00      	cmp	r3, #0
 8002bf2:	d017      	beq.n	8002c24 <HAL_I2C_Mem_Write+0x180>
      {
        /* Write data to DR */
        hi2c->Instance->DR = *hi2c->pBuffPtr;
 8002bf4:	68fb      	ldr	r3, [r7, #12]
 8002bf6:	6a5b      	ldr	r3, [r3, #36]	; 0x24
 8002bf8:	781a      	ldrb	r2, [r3, #0]
 8002bfa:	68fb      	ldr	r3, [r7, #12]
 8002bfc:	681b      	ldr	r3, [r3, #0]
 8002bfe:	611a      	str	r2, [r3, #16]

        /* Increment Buffer pointer */
        hi2c->pBuffPtr++;
 8002c00:	68fb      	ldr	r3, [r7, #12]
 8002c02:	6a5b      	ldr	r3, [r3, #36]	; 0x24
 8002c04:	1c5a      	adds	r2, r3, #1
 8002c06:	68fb      	ldr	r3, [r7, #12]
 8002c08:	625a      	str	r2, [r3, #36]	; 0x24

        /* Update counter */
        hi2c->XferSize--;
 8002c0a:	68fb      	ldr	r3, [r7, #12]
 8002c0c:	8d1b      	ldrh	r3, [r3, #40]	; 0x28
 8002c0e:	3b01      	subs	r3, #1
 8002c10:	b29a      	uxth	r2, r3
 8002c12:	68fb      	ldr	r3, [r7, #12]
 8002c14:	851a      	strh	r2, [r3, #40]	; 0x28
        hi2c->XferCount--;
 8002c16:	68fb      	ldr	r3, [r7, #12]
 8002c18:	8d5b      	ldrh	r3, [r3, #42]	; 0x2a
 8002c1a:	b29b      	uxth	r3, r3
 8002c1c:	3b01      	subs	r3, #1
 8002c1e:	b29a      	uxth	r2, r3
 8002c20:	68fb      	ldr	r3, [r7, #12]
 8002c22:	855a      	strh	r2, [r3, #42]	; 0x2a
    while (hi2c->XferSize > 0U)
 8002c24:	68fb      	ldr	r3, [r7, #12]
 8002c26:	8d1b      	ldrh	r3, [r3, #40]	; 0x28
 8002c28:	2b00      	cmp	r3, #0
 8002c2a:	d1aa      	bne.n	8002b82 <HAL_I2C_Mem_Write+0xde>
      }
    }

    /* Wait until BTF flag is set */
    if (I2C_WaitOnBTFFlagUntilTimeout(hi2c, Timeout, tickstart) != HAL_OK)
 8002c2c:	697a      	ldr	r2, [r7, #20]
 8002c2e:	6ab9      	ldr	r1, [r7, #40]	; 0x28
 8002c30:	68f8      	ldr	r0, [r7, #12]
 8002c32:	f002 f970 	bl	8004f16 <I2C_WaitOnBTFFlagUntilTimeout>
 8002c36:	4603      	mov	r3, r0
 8002c38:	2b00      	cmp	r3, #0
 8002c3a:	d00d      	beq.n	8002c58 <HAL_I2C_Mem_Write+0x1b4>
    {
      if (hi2c->ErrorCode == HAL_I2C_ERROR_AF)
 8002c3c:	68fb      	ldr	r3, [r7, #12]
 8002c3e:	6c1b      	ldr	r3, [r3, #64]	; 0x40
 8002c40:	2b04      	cmp	r3, #4
 8002c42:	d107      	bne.n	8002c54 <HAL_I2C_Mem_Write+0x1b0>
      {
        /* Generate Stop */
        SET_BIT(hi2c->Instance->CR1, I2C_CR1_STOP);
 8002c44:	68fb      	ldr	r3, [r7, #12]
 8002c46:	681b      	ldr	r3, [r3, #0]
 8002c48:	681a      	ldr	r2, [r3, #0]
 8002c4a:	68fb      	ldr	r3, [r7, #12]
 8002c4c:	681b      	ldr	r3, [r3, #0]
 8002c4e:	f442 7200 	orr.w	r2, r2, #512	; 0x200
 8002c52:	601a      	str	r2, [r3, #0]
      }
      return HAL_ERROR;
 8002c54:	2301      	movs	r3, #1
 8002c56:	e016      	b.n	8002c86 <HAL_I2C_Mem_Write+0x1e2>
    }

    /* Generate Stop */
    SET_BIT(hi2c->Instance->CR1, I2C_CR1_STOP);
 8002c58:	68fb      	ldr	r3, [r7, #12]
 8002c5a:	681b      	ldr	r3, [r3, #0]
 8002c5c:	681a      	ldr	r2, [r3, #0]
 8002c5e:	68fb      	ldr	r3, [r7, #12]
 8002c60:	681b      	ldr	r3, [r3, #0]
 8002c62:	f442 7200 	orr.w	r2, r2, #512	; 0x200
 8002c66:	601a      	str	r2, [r3, #0]

    hi2c->State = HAL_I2C_STATE_READY;
 8002c68:	68fb      	ldr	r3, [r7, #12]
 8002c6a:	2220      	movs	r2, #32
 8002c6c:	f883 203d 	strb.w	r2, [r3, #61]	; 0x3d
    hi2c->Mode = HAL_I2C_MODE_NONE;
 8002c70:	68fb      	ldr	r3, [r7, #12]
 8002c72:	2200      	movs	r2, #0
 8002c74:	f883 203e 	strb.w	r2, [r3, #62]	; 0x3e

    /* Process Unlocked */
    __HAL_UNLOCK(hi2c);
 8002c78:	68fb      	ldr	r3, [r7, #12]
 8002c7a:	2200      	movs	r2, #0
 8002c7c:	f883 203c 	strb.w	r2, [r3, #60]	; 0x3c

    return HAL_OK;
 8002c80:	2300      	movs	r3, #0
 8002c82:	e000      	b.n	8002c86 <HAL_I2C_Mem_Write+0x1e2>
  }
  else
  {
    return HAL_BUSY;
 8002c84:	2302      	movs	r3, #2
  }
}
 8002c86:	4618      	mov	r0, r3
 8002c88:	3718      	adds	r7, #24
 8002c8a:	46bd      	mov	sp, r7
 8002c8c:	bd80      	pop	{r7, pc}
 8002c8e:	bf00      	nop
 8002c90:	00100002 	.word	0x00100002
 8002c94:	ffff0000 	.word	0xffff0000

08002c98 <HAL_I2C_Mem_Read>:
  * @param  Size Amount of data to be sent
  * @param  Timeout Timeout duration
  * @retval HAL status
  */
HAL_StatusTypeDef HAL_I2C_Mem_Read(I2C_HandleTypeDef *hi2c, uint16_t DevAddress, uint16_t MemAddress, uint16_t MemAddSize, uint8_t *pData, uint16_t Size, uint32_t Timeout)
{
 8002c98:	b580      	push	{r7, lr}
 8002c9a:	b08c      	sub	sp, #48	; 0x30
 8002c9c:	af02      	add	r7, sp, #8
 8002c9e:	60f8      	str	r0, [r7, #12]
 8002ca0:	4608      	mov	r0, r1
 8002ca2:	4611      	mov	r1, r2
 8002ca4:	461a      	mov	r2, r3
 8002ca6:	4603      	mov	r3, r0
 8002ca8:	817b      	strh	r3, [r7, #10]
 8002caa:	460b      	mov	r3, r1
 8002cac:	813b      	strh	r3, [r7, #8]
 8002cae:	4613      	mov	r3, r2
 8002cb0:	80fb      	strh	r3, [r7, #6]
  /* Init tickstart for timeout management*/
  uint32_t tickstart = HAL_GetTick();
 8002cb2:	f7fe ff33 	bl	8001b1c <HAL_GetTick>
 8002cb6:	6278      	str	r0, [r7, #36]	; 0x24

  /* Check the parameters */
  assert_param(IS_I2C_MEMADD_SIZE(MemAddSize));

  if (hi2c->State == HAL_I2C_STATE_READY)
 8002cb8:	68fb      	ldr	r3, [r7, #12]
 8002cba:	f893 303d 	ldrb.w	r3, [r3, #61]	; 0x3d
 8002cbe:	b2db      	uxtb	r3, r3
 8002cc0:	2b20      	cmp	r3, #32
 8002cc2:	f040 8208 	bne.w	80030d6 <HAL_I2C_Mem_Read+0x43e>
  {
    /* Wait until BUSY flag is reset */
    if (I2C_WaitOnFlagUntilTimeout(hi2c, I2C_FLAG_BUSY, SET, I2C_TIMEOUT_BUSY_FLAG, tickstart) != HAL_OK)
 8002cc6:	6a7b      	ldr	r3, [r7, #36]	; 0x24
 8002cc8:	9300      	str	r3, [sp, #0]
 8002cca:	2319      	movs	r3, #25
 8002ccc:	2201      	movs	r2, #1
 8002cce:	497b      	ldr	r1, [pc, #492]	; (8002ebc <HAL_I2C_Mem_Read+0x224>)
 8002cd0:	68f8      	ldr	r0, [r7, #12]
 8002cd2:	f002 f809 	bl	8004ce8 <I2C_WaitOnFlagUntilTimeout>
 8002cd6:	4603      	mov	r3, r0
 8002cd8:	2b00      	cmp	r3, #0
 8002cda:	d001      	beq.n	8002ce0 <HAL_I2C_Mem_Read+0x48>
    {
      return HAL_BUSY;
 8002cdc:	2302      	movs	r3, #2
 8002cde:	e1fb      	b.n	80030d8 <HAL_I2C_Mem_Read+0x440>
    }

    /* Process Locked */
    __HAL_LOCK(hi2c);
 8002ce0:	68fb      	ldr	r3, [r7, #12]
 8002ce2:	f893 303c 	ldrb.w	r3, [r3, #60]	; 0x3c
 8002ce6:	2b01      	cmp	r3, #1
 8002ce8:	d101      	bne.n	8002cee <HAL_I2C_Mem_Read+0x56>
 8002cea:	2302      	movs	r3, #2
 8002cec:	e1f4      	b.n	80030d8 <HAL_I2C_Mem_Read+0x440>
 8002cee:	68fb      	ldr	r3, [r7, #12]
 8002cf0:	2201      	movs	r2, #1
 8002cf2:	f883 203c 	strb.w	r2, [r3, #60]	; 0x3c

    /* Check if the I2C is already enabled */
    if ((hi2c->Instance->CR1 & I2C_CR1_PE) != I2C_CR1_PE)
 8002cf6:	68fb      	ldr	r3, [r7, #12]
 8002cf8:	681b      	ldr	r3, [r3, #0]
 8002cfa:	681b      	ldr	r3, [r3, #0]
 8002cfc:	f003 0301 	and.w	r3, r3, #1
 8002d00:	2b01      	cmp	r3, #1
 8002d02:	d007      	beq.n	8002d14 <HAL_I2C_Mem_Read+0x7c>
    {
      /* Enable I2C peripheral */
      __HAL_I2C_ENABLE(hi2c);
 8002d04:	68fb      	ldr	r3, [r7, #12]
 8002d06:	681b      	ldr	r3, [r3, #0]
 8002d08:	681a      	ldr	r2, [r3, #0]
 8002d0a:	68fb      	ldr	r3, [r7, #12]
 8002d0c:	681b      	ldr	r3, [r3, #0]
 8002d0e:	f042 0201 	orr.w	r2, r2, #1
 8002d12:	601a      	str	r2, [r3, #0]
    }

    /* Disable Pos */
    CLEAR_BIT(hi2c->Instance->CR1, I2C_CR1_POS);
 8002d14:	68fb      	ldr	r3, [r7, #12]
 8002d16:	681b      	ldr	r3, [r3, #0]
 8002d18:	681a      	ldr	r2, [r3, #0]
 8002d1a:	68fb      	ldr	r3, [r7, #12]
 8002d1c:	681b      	ldr	r3, [r3, #0]
 8002d1e:	f422 6200 	bic.w	r2, r2, #2048	; 0x800
 8002d22:	601a      	str	r2, [r3, #0]

    hi2c->State     = HAL_I2C_STATE_BUSY_RX;
 8002d24:	68fb      	ldr	r3, [r7, #12]
 8002d26:	2222      	movs	r2, #34	; 0x22
 8002d28:	f883 203d 	strb.w	r2, [r3, #61]	; 0x3d
    hi2c->Mode      = HAL_I2C_MODE_MEM;
 8002d2c:	68fb      	ldr	r3, [r7, #12]
 8002d2e:	2240      	movs	r2, #64	; 0x40
 8002d30:	f883 203e 	strb.w	r2, [r3, #62]	; 0x3e
    hi2c->ErrorCode = HAL_I2C_ERROR_NONE;
 8002d34:	68fb      	ldr	r3, [r7, #12]
 8002d36:	2200      	movs	r2, #0
 8002d38:	641a      	str	r2, [r3, #64]	; 0x40

    /* Prepare transfer parameters */
    hi2c->pBuffPtr    = pData;
 8002d3a:	68fb      	ldr	r3, [r7, #12]
 8002d3c:	6b3a      	ldr	r2, [r7, #48]	; 0x30
 8002d3e:	625a      	str	r2, [r3, #36]	; 0x24
    hi2c->XferCount   = Size;
 8002d40:	68fb      	ldr	r3, [r7, #12]
 8002d42:	8eba      	ldrh	r2, [r7, #52]	; 0x34
 8002d44:	855a      	strh	r2, [r3, #42]	; 0x2a
    hi2c->XferSize    = hi2c->XferCount;
 8002d46:	68fb      	ldr	r3, [r7, #12]
 8002d48:	8d5b      	ldrh	r3, [r3, #42]	; 0x2a
 8002d4a:	b29a      	uxth	r2, r3
 8002d4c:	68fb      	ldr	r3, [r7, #12]
 8002d4e:	851a      	strh	r2, [r3, #40]	; 0x28
    hi2c->XferOptions = I2C_NO_OPTION_FRAME;
 8002d50:	68fb      	ldr	r3, [r7, #12]
 8002d52:	4a5b      	ldr	r2, [pc, #364]	; (8002ec0 <HAL_I2C_Mem_Read+0x228>)
 8002d54:	62da      	str	r2, [r3, #44]	; 0x2c

    /* Send Slave Address and Memory Address */
    if (I2C_RequestMemoryRead(hi2c, DevAddress, MemAddress, MemAddSize, Timeout, tickstart) != HAL_OK)
 8002d56:	88f8      	ldrh	r0, [r7, #6]
 8002d58:	893a      	ldrh	r2, [r7, #8]
 8002d5a:	8979      	ldrh	r1, [r7, #10]
 8002d5c:	6a7b      	ldr	r3, [r7, #36]	; 0x24
 8002d5e:	9301      	str	r3, [sp, #4]
 8002d60:	6bbb      	ldr	r3, [r7, #56]	; 0x38
 8002d62:	9300      	str	r3, [sp, #0]
 8002d64:	4603      	mov	r3, r0
 8002d66:	68f8      	ldr	r0, [r7, #12]
 8002d68:	f001 fe2e 	bl	80049c8 <I2C_RequestMemoryRead>
 8002d6c:	4603      	mov	r3, r0
 8002d6e:	2b00      	cmp	r3, #0
 8002d70:	d001      	beq.n	8002d76 <HAL_I2C_Mem_Read+0xde>
    {
      return HAL_ERROR;
 8002d72:	2301      	movs	r3, #1
 8002d74:	e1b0      	b.n	80030d8 <HAL_I2C_Mem_Read+0x440>
    }

    if (hi2c->XferSize == 0U)
 8002d76:	68fb      	ldr	r3, [r7, #12]
 8002d78:	8d1b      	ldrh	r3, [r3, #40]	; 0x28
 8002d7a:	2b00      	cmp	r3, #0
 8002d7c:	d113      	bne.n	8002da6 <HAL_I2C_Mem_Read+0x10e>
    {
      /* Clear ADDR flag */
      __HAL_I2C_CLEAR_ADDRFLAG(hi2c);
 8002d7e:	2300      	movs	r3, #0
 8002d80:	623b      	str	r3, [r7, #32]
 8002d82:	68fb      	ldr	r3, [r7, #12]
 8002d84:	681b      	ldr	r3, [r3, #0]
 8002d86:	695b      	ldr	r3, [r3, #20]
 8002d88:	623b      	str	r3, [r7, #32]
 8002d8a:	68fb      	ldr	r3, [r7, #12]
 8002d8c:	681b      	ldr	r3, [r3, #0]
 8002d8e:	699b      	ldr	r3, [r3, #24]
 8002d90:	623b      	str	r3, [r7, #32]
 8002d92:	6a3b      	ldr	r3, [r7, #32]

      /* Generate Stop */
      SET_BIT(hi2c->Instance->CR1, I2C_CR1_STOP);
 8002d94:	68fb      	ldr	r3, [r7, #12]
 8002d96:	681b      	ldr	r3, [r3, #0]
 8002d98:	681a      	ldr	r2, [r3, #0]
 8002d9a:	68fb      	ldr	r3, [r7, #12]
 8002d9c:	681b      	ldr	r3, [r3, #0]
 8002d9e:	f442 7200 	orr.w	r2, r2, #512	; 0x200
 8002da2:	601a      	str	r2, [r3, #0]
 8002da4:	e184      	b.n	80030b0 <HAL_I2C_Mem_Read+0x418>
    }
    else if (hi2c->XferSize == 1U)
 8002da6:	68fb      	ldr	r3, [r7, #12]
 8002da8:	8d1b      	ldrh	r3, [r3, #40]	; 0x28
 8002daa:	2b01      	cmp	r3, #1
 8002dac:	d11b      	bne.n	8002de6 <HAL_I2C_Mem_Read+0x14e>
    {
      /* Disable Acknowledge */
      CLEAR_BIT(hi2c->Instance->CR1, I2C_CR1_ACK);
 8002dae:	68fb      	ldr	r3, [r7, #12]
 8002db0:	681b      	ldr	r3, [r3, #0]
 8002db2:	681a      	ldr	r2, [r3, #0]
 8002db4:	68fb      	ldr	r3, [r7, #12]
 8002db6:	681b      	ldr	r3, [r3, #0]
 8002db8:	f422 6280 	bic.w	r2, r2, #1024	; 0x400
 8002dbc:	601a      	str	r2, [r3, #0]

      /* Clear ADDR flag */
      __HAL_I2C_CLEAR_ADDRFLAG(hi2c);
 8002dbe:	2300      	movs	r3, #0
 8002dc0:	61fb      	str	r3, [r7, #28]
 8002dc2:	68fb      	ldr	r3, [r7, #12]
 8002dc4:	681b      	ldr	r3, [r3, #0]
 8002dc6:	695b      	ldr	r3, [r3, #20]
 8002dc8:	61fb      	str	r3, [r7, #28]
 8002dca:	68fb      	ldr	r3, [r7, #12]
 8002dcc:	681b      	ldr	r3, [r3, #0]
 8002dce:	699b      	ldr	r3, [r3, #24]
 8002dd0:	61fb      	str	r3, [r7, #28]
 8002dd2:	69fb      	ldr	r3, [r7, #28]

      /* Generate Stop */
      SET_BIT(hi2c->Instance->CR1, I2C_CR1_STOP);
 8002dd4:	68fb      	ldr	r3, [r7, #12]
 8002dd6:	681b      	ldr	r3, [r3, #0]
 8002dd8:	681a      	ldr	r2, [r3, #0]
 8002dda:	68fb      	ldr	r3, [r7, #12]
 8002ddc:	681b      	ldr	r3, [r3, #0]
 8002dde:	f442 7200 	orr.w	r2, r2, #512	; 0x200
 8002de2:	601a      	str	r2, [r3, #0]
 8002de4:	e164      	b.n	80030b0 <HAL_I2C_Mem_Read+0x418>
    }
    else if (hi2c->XferSize == 2U)
 8002de6:	68fb      	ldr	r3, [r7, #12]
 8002de8:	8d1b      	ldrh	r3, [r3, #40]	; 0x28
 8002dea:	2b02      	cmp	r3, #2
 8002dec:	d11b      	bne.n	8002e26 <HAL_I2C_Mem_Read+0x18e>
    {
      /* Disable Acknowledge */
      CLEAR_BIT(hi2c->Instance->CR1, I2C_CR1_ACK);
 8002dee:	68fb      	ldr	r3, [r7, #12]
 8002df0:	681b      	ldr	r3, [r3, #0]
 8002df2:	681a      	ldr	r2, [r3, #0]
 8002df4:	68fb      	ldr	r3, [r7, #12]
 8002df6:	681b      	ldr	r3, [r3, #0]
 8002df8:	f422 6280 	bic.w	r2, r2, #1024	; 0x400
 8002dfc:	601a      	str	r2, [r3, #0]

      /* Enable Pos */
      SET_BIT(hi2c->Instance->CR1, I2C_CR1_POS);
 8002dfe:	68fb      	ldr	r3, [r7, #12]
 8002e00:	681b      	ldr	r3, [r3, #0]
 8002e02:	681a      	ldr	r2, [r3, #0]
 8002e04:	68fb      	ldr	r3, [r7, #12]
 8002e06:	681b      	ldr	r3, [r3, #0]
 8002e08:	f442 6200 	orr.w	r2, r2, #2048	; 0x800
 8002e0c:	601a      	str	r2, [r3, #0]

      /* Clear ADDR flag */
      __HAL_I2C_CLEAR_ADDRFLAG(hi2c);
 8002e0e:	2300      	movs	r3, #0
 8002e10:	61bb      	str	r3, [r7, #24]
 8002e12:	68fb      	ldr	r3, [r7, #12]
 8002e14:	681b      	ldr	r3, [r3, #0]
 8002e16:	695b      	ldr	r3, [r3, #20]
 8002e18:	61bb      	str	r3, [r7, #24]
 8002e1a:	68fb      	ldr	r3, [r7, #12]
 8002e1c:	681b      	ldr	r3, [r3, #0]
 8002e1e:	699b      	ldr	r3, [r3, #24]
 8002e20:	61bb      	str	r3, [r7, #24]
 8002e22:	69bb      	ldr	r3, [r7, #24]
 8002e24:	e144      	b.n	80030b0 <HAL_I2C_Mem_Read+0x418>
    }
    else
    {
      /* Clear ADDR flag */
      __HAL_I2C_CLEAR_ADDRFLAG(hi2c);
 8002e26:	2300      	movs	r3, #0
 8002e28:	617b      	str	r3, [r7, #20]
 8002e2a:	68fb      	ldr	r3, [r7, #12]
 8002e2c:	681b      	ldr	r3, [r3, #0]
 8002e2e:	695b      	ldr	r3, [r3, #20]
 8002e30:	617b      	str	r3, [r7, #20]
 8002e32:	68fb      	ldr	r3, [r7, #12]
 8002e34:	681b      	ldr	r3, [r3, #0]
 8002e36:	699b      	ldr	r3, [r3, #24]
 8002e38:	617b      	str	r3, [r7, #20]
 8002e3a:	697b      	ldr	r3, [r7, #20]
    }

    while (hi2c->XferSize > 0U)
 8002e3c:	e138      	b.n	80030b0 <HAL_I2C_Mem_Read+0x418>
    {
      if (hi2c->XferSize <= 3U)
 8002e3e:	68fb      	ldr	r3, [r7, #12]
 8002e40:	8d1b      	ldrh	r3, [r3, #40]	; 0x28
 8002e42:	2b03      	cmp	r3, #3
 8002e44:	f200 80f1 	bhi.w	800302a <HAL_I2C_Mem_Read+0x392>
      {
        /* One byte */
        if (hi2c->XferSize == 1U)
 8002e48:	68fb      	ldr	r3, [r7, #12]
 8002e4a:	8d1b      	ldrh	r3, [r3, #40]	; 0x28
 8002e4c:	2b01      	cmp	r3, #1
 8002e4e:	d123      	bne.n	8002e98 <HAL_I2C_Mem_Read+0x200>
        {
          /* Wait until RXNE flag is set */
          if (I2C_WaitOnRXNEFlagUntilTimeout(hi2c, Timeout, tickstart) != HAL_OK)
 8002e50:	6a7a      	ldr	r2, [r7, #36]	; 0x24
 8002e52:	6bb9      	ldr	r1, [r7, #56]	; 0x38
 8002e54:	68f8      	ldr	r0, [r7, #12]
 8002e56:	f002 f8d1 	bl	8004ffc <I2C_WaitOnRXNEFlagUntilTimeout>
 8002e5a:	4603      	mov	r3, r0
 8002e5c:	2b00      	cmp	r3, #0
 8002e5e:	d001      	beq.n	8002e64 <HAL_I2C_Mem_Read+0x1cc>
          {
            return HAL_ERROR;
 8002e60:	2301      	movs	r3, #1
 8002e62:	e139      	b.n	80030d8 <HAL_I2C_Mem_Read+0x440>
          }

          /* Read data from DR */
          *hi2c->pBuffPtr = (uint8_t)hi2c->Instance->DR;
 8002e64:	68fb      	ldr	r3, [r7, #12]
 8002e66:	681b      	ldr	r3, [r3, #0]
 8002e68:	691a      	ldr	r2, [r3, #16]
 8002e6a:	68fb      	ldr	r3, [r7, #12]
 8002e6c:	6a5b      	ldr	r3, [r3, #36]	; 0x24
 8002e6e:	b2d2      	uxtb	r2, r2
 8002e70:	701a      	strb	r2, [r3, #0]

          /* Increment Buffer pointer */
          hi2c->pBuffPtr++;
 8002e72:	68fb      	ldr	r3, [r7, #12]
 8002e74:	6a5b      	ldr	r3, [r3, #36]	; 0x24
 8002e76:	1c5a      	adds	r2, r3, #1
 8002e78:	68fb      	ldr	r3, [r7, #12]
 8002e7a:	625a      	str	r2, [r3, #36]	; 0x24

          /* Update counter */
          hi2c->XferSize--;
 8002e7c:	68fb      	ldr	r3, [r7, #12]
 8002e7e:	8d1b      	ldrh	r3, [r3, #40]	; 0x28
 8002e80:	3b01      	subs	r3, #1
 8002e82:	b29a      	uxth	r2, r3
 8002e84:	68fb      	ldr	r3, [r7, #12]
 8002e86:	851a      	strh	r2, [r3, #40]	; 0x28
          hi2c->XferCount--;
 8002e88:	68fb      	ldr	r3, [r7, #12]
 8002e8a:	8d5b      	ldrh	r3, [r3, #42]	; 0x2a
 8002e8c:	b29b      	uxth	r3, r3
 8002e8e:	3b01      	subs	r3, #1
 8002e90:	b29a      	uxth	r2, r3
 8002e92:	68fb      	ldr	r3, [r7, #12]
 8002e94:	855a      	strh	r2, [r3, #42]	; 0x2a
 8002e96:	e10b      	b.n	80030b0 <HAL_I2C_Mem_Read+0x418>
        }
        /* Two bytes */
        else if (hi2c->XferSize == 2U)
 8002e98:	68fb      	ldr	r3, [r7, #12]
 8002e9a:	8d1b      	ldrh	r3, [r3, #40]	; 0x28
 8002e9c:	2b02      	cmp	r3, #2
 8002e9e:	d14e      	bne.n	8002f3e <HAL_I2C_Mem_Read+0x2a6>
        {
          /* Wait until BTF flag is set */
          if (I2C_WaitOnFlagUntilTimeout(hi2c, I2C_FLAG_BTF, RESET, Timeout, tickstart) != HAL_OK)
 8002ea0:	6a7b      	ldr	r3, [r7, #36]	; 0x24
 8002ea2:	9300      	str	r3, [sp, #0]
 8002ea4:	6bbb      	ldr	r3, [r7, #56]	; 0x38
 8002ea6:	2200      	movs	r2, #0
 8002ea8:	4906      	ldr	r1, [pc, #24]	; (8002ec4 <HAL_I2C_Mem_Read+0x22c>)
 8002eaa:	68f8      	ldr	r0, [r7, #12]
 8002eac:	f001 ff1c 	bl	8004ce8 <I2C_WaitOnFlagUntilTimeout>
 8002eb0:	4603      	mov	r3, r0
 8002eb2:	2b00      	cmp	r3, #0
 8002eb4:	d008      	beq.n	8002ec8 <HAL_I2C_Mem_Read+0x230>
          {
            return HAL_ERROR;
 8002eb6:	2301      	movs	r3, #1
 8002eb8:	e10e      	b.n	80030d8 <HAL_I2C_Mem_Read+0x440>
 8002eba:	bf00      	nop
 8002ebc:	00100002 	.word	0x00100002
 8002ec0:	ffff0000 	.word	0xffff0000
 8002ec4:	00010004 	.word	0x00010004
          }

          /* Generate Stop */
          SET_BIT(hi2c->Instance->CR1, I2C_CR1_STOP);
 8002ec8:	68fb      	ldr	r3, [r7, #12]
 8002eca:	681b      	ldr	r3, [r3, #0]
 8002ecc:	681a      	ldr	r2, [r3, #0]
 8002ece:	68fb      	ldr	r3, [r7, #12]
 8002ed0:	681b      	ldr	r3, [r3, #0]
 8002ed2:	f442 7200 	orr.w	r2, r2, #512	; 0x200
 8002ed6:	601a      	str	r2, [r3, #0]

          /* Read data from DR */
          *hi2c->pBuffPtr = (uint8_t)hi2c->Instance->DR;
 8002ed8:	68fb      	ldr	r3, [r7, #12]
 8002eda:	681b      	ldr	r3, [r3, #0]
 8002edc:	691a      	ldr	r2, [r3, #16]
 8002ede:	68fb      	ldr	r3, [r7, #12]
 8002ee0:	6a5b      	ldr	r3, [r3, #36]	; 0x24
 8002ee2:	b2d2      	uxtb	r2, r2
 8002ee4:	701a      	strb	r2, [r3, #0]

          /* Increment Buffer pointer */
          hi2c->pBuffPtr++;
 8002ee6:	68fb      	ldr	r3, [r7, #12]
 8002ee8:	6a5b      	ldr	r3, [r3, #36]	; 0x24
 8002eea:	1c5a      	adds	r2, r3, #1
 8002eec:	68fb      	ldr	r3, [r7, #12]
 8002eee:	625a      	str	r2, [r3, #36]	; 0x24

          /* Update counter */
          hi2c->XferSize--;
 8002ef0:	68fb      	ldr	r3, [r7, #12]
 8002ef2:	8d1b      	ldrh	r3, [r3, #40]	; 0x28
 8002ef4:	3b01      	subs	r3, #1
 8002ef6:	b29a      	uxth	r2, r3
 8002ef8:	68fb      	ldr	r3, [r7, #12]
 8002efa:	851a      	strh	r2, [r3, #40]	; 0x28
          hi2c->XferCount--;
 8002efc:	68fb      	ldr	r3, [r7, #12]
 8002efe:	8d5b      	ldrh	r3, [r3, #42]	; 0x2a
 8002f00:	b29b      	uxth	r3, r3
 8002f02:	3b01      	subs	r3, #1
 8002f04:	b29a      	uxth	r2, r3
 8002f06:	68fb      	ldr	r3, [r7, #12]
 8002f08:	855a      	strh	r2, [r3, #42]	; 0x2a

          /* Read data from DR */
          *hi2c->pBuffPtr = (uint8_t)hi2c->Instance->DR;
 8002f0a:	68fb      	ldr	r3, [r7, #12]
 8002f0c:	681b      	ldr	r3, [r3, #0]
 8002f0e:	691a      	ldr	r2, [r3, #16]
 8002f10:	68fb      	ldr	r3, [r7, #12]
 8002f12:	6a5b      	ldr	r3, [r3, #36]	; 0x24
 8002f14:	b2d2      	uxtb	r2, r2
 8002f16:	701a      	strb	r2, [r3, #0]

          /* Increment Buffer pointer */
          hi2c->pBuffPtr++;
 8002f18:	68fb      	ldr	r3, [r7, #12]
 8002f1a:	6a5b      	ldr	r3, [r3, #36]	; 0x24
 8002f1c:	1c5a      	adds	r2, r3, #1
 8002f1e:	68fb      	ldr	r3, [r7, #12]
 8002f20:	625a      	str	r2, [r3, #36]	; 0x24

          /* Update counter */
          hi2c->XferSize--;
 8002f22:	68fb      	ldr	r3, [r7, #12]
 8002f24:	8d1b      	ldrh	r3, [r3, #40]	; 0x28
 8002f26:	3b01      	subs	r3, #1
 8002f28:	b29a      	uxth	r2, r3
 8002f2a:	68fb      	ldr	r3, [r7, #12]
 8002f2c:	851a      	strh	r2, [r3, #40]	; 0x28
          hi2c->XferCount--;
 8002f2e:	68fb      	ldr	r3, [r7, #12]
 8002f30:	8d5b      	ldrh	r3, [r3, #42]	; 0x2a
 8002f32:	b29b      	uxth	r3, r3
 8002f34:	3b01      	subs	r3, #1
 8002f36:	b29a      	uxth	r2, r3
 8002f38:	68fb      	ldr	r3, [r7, #12]
 8002f3a:	855a      	strh	r2, [r3, #42]	; 0x2a
 8002f3c:	e0b8      	b.n	80030b0 <HAL_I2C_Mem_Read+0x418>
        }
        /* 3 Last bytes */
        else
        {
          /* Wait until BTF flag is set */
          if (I2C_WaitOnFlagUntilTimeout(hi2c, I2C_FLAG_BTF, RESET, Timeout, tickstart) != HAL_OK)
 8002f3e:	6a7b      	ldr	r3, [r7, #36]	; 0x24
 8002f40:	9300      	str	r3, [sp, #0]
 8002f42:	6bbb      	ldr	r3, [r7, #56]	; 0x38
 8002f44:	2200      	movs	r2, #0
 8002f46:	4966      	ldr	r1, [pc, #408]	; (80030e0 <HAL_I2C_Mem_Read+0x448>)
 8002f48:	68f8      	ldr	r0, [r7, #12]
 8002f4a:	f001 fecd 	bl	8004ce8 <I2C_WaitOnFlagUntilTimeout>
 8002f4e:	4603      	mov	r3, r0
 8002f50:	2b00      	cmp	r3, #0
 8002f52:	d001      	beq.n	8002f58 <HAL_I2C_Mem_Read+0x2c0>
          {
            return HAL_ERROR;
 8002f54:	2301      	movs	r3, #1
 8002f56:	e0bf      	b.n	80030d8 <HAL_I2C_Mem_Read+0x440>
          }

          /* Disable Acknowledge */
          CLEAR_BIT(hi2c->Instance->CR1, I2C_CR1_ACK);
 8002f58:	68fb      	ldr	r3, [r7, #12]
 8002f5a:	681b      	ldr	r3, [r3, #0]
 8002f5c:	681a      	ldr	r2, [r3, #0]
 8002f5e:	68fb      	ldr	r3, [r7, #12]
 8002f60:	681b      	ldr	r3, [r3, #0]
 8002f62:	f422 6280 	bic.w	r2, r2, #1024	; 0x400
 8002f66:	601a      	str	r2, [r3, #0]

          /* Read data from DR */
          *hi2c->pBuffPtr = (uint8_t)hi2c->Instance->DR;
 8002f68:	68fb      	ldr	r3, [r7, #12]
 8002f6a:	681b      	ldr	r3, [r3, #0]
 8002f6c:	691a      	ldr	r2, [r3, #16]
 8002f6e:	68fb      	ldr	r3, [r7, #12]
 8002f70:	6a5b      	ldr	r3, [r3, #36]	; 0x24
 8002f72:	b2d2      	uxtb	r2, r2
 8002f74:	701a      	strb	r2, [r3, #0]

          /* Increment Buffer pointer */
          hi2c->pBuffPtr++;
 8002f76:	68fb      	ldr	r3, [r7, #12]
 8002f78:	6a5b      	ldr	r3, [r3, #36]	; 0x24
 8002f7a:	1c5a      	adds	r2, r3, #1
 8002f7c:	68fb      	ldr	r3, [r7, #12]
 8002f7e:	625a      	str	r2, [r3, #36]	; 0x24

          /* Update counter */
          hi2c->XferSize--;
 8002f80:	68fb      	ldr	r3, [r7, #12]
 8002f82:	8d1b      	ldrh	r3, [r3, #40]	; 0x28
 8002f84:	3b01      	subs	r3, #1
 8002f86:	b29a      	uxth	r2, r3
 8002f88:	68fb      	ldr	r3, [r7, #12]
 8002f8a:	851a      	strh	r2, [r3, #40]	; 0x28
          hi2c->XferCount--;
 8002f8c:	68fb      	ldr	r3, [r7, #12]
 8002f8e:	8d5b      	ldrh	r3, [r3, #42]	; 0x2a
 8002f90:	b29b      	uxth	r3, r3
 8002f92:	3b01      	subs	r3, #1
 8002f94:	b29a      	uxth	r2, r3
 8002f96:	68fb      	ldr	r3, [r7, #12]
 8002f98:	855a      	strh	r2, [r3, #42]	; 0x2a

          /* Wait until BTF flag is set */
          if (I2C_WaitOnFlagUntilTimeout(hi2c, I2C_FLAG_BTF, RESET, Timeout, tickstart) != HAL_OK)
 8002f9a:	6a7b      	ldr	r3, [r7, #36]	; 0x24
 8002f9c:	9300      	str	r3, [sp, #0]
 8002f9e:	6bbb      	ldr	r3, [r7, #56]	; 0x38
 8002fa0:	2200      	movs	r2, #0
 8002fa2:	494f      	ldr	r1, [pc, #316]	; (80030e0 <HAL_I2C_Mem_Read+0x448>)
 8002fa4:	68f8      	ldr	r0, [r7, #12]
 8002fa6:	f001 fe9f 	bl	8004ce8 <I2C_WaitOnFlagUntilTimeout>
 8002faa:	4603      	mov	r3, r0
 8002fac:	2b00      	cmp	r3, #0
 8002fae:	d001      	beq.n	8002fb4 <HAL_I2C_Mem_Read+0x31c>
          {
            return HAL_ERROR;
 8002fb0:	2301      	movs	r3, #1
 8002fb2:	e091      	b.n	80030d8 <HAL_I2C_Mem_Read+0x440>
          }

          /* Generate Stop */
          SET_BIT(hi2c->Instance->CR1, I2C_CR1_STOP);
 8002fb4:	68fb      	ldr	r3, [r7, #12]
 8002fb6:	681b      	ldr	r3, [r3, #0]
 8002fb8:	681a      	ldr	r2, [r3, #0]
 8002fba:	68fb      	ldr	r3, [r7, #12]
 8002fbc:	681b      	ldr	r3, [r3, #0]
 8002fbe:	f442 7200 	orr.w	r2, r2, #512	; 0x200
 8002fc2:	601a      	str	r2, [r3, #0]

          /* Read data from DR */
          *hi2c->pBuffPtr = (uint8_t)hi2c->Instance->DR;
 8002fc4:	68fb      	ldr	r3, [r7, #12]
 8002fc6:	681b      	ldr	r3, [r3, #0]
 8002fc8:	691a      	ldr	r2, [r3, #16]
 8002fca:	68fb      	ldr	r3, [r7, #12]
 8002fcc:	6a5b      	ldr	r3, [r3, #36]	; 0x24
 8002fce:	b2d2      	uxtb	r2, r2
 8002fd0:	701a      	strb	r2, [r3, #0]

          /* Increment Buffer pointer */
          hi2c->pBuffPtr++;
 8002fd2:	68fb      	ldr	r3, [r7, #12]
 8002fd4:	6a5b      	ldr	r3, [r3, #36]	; 0x24
 8002fd6:	1c5a      	adds	r2, r3, #1
 8002fd8:	68fb      	ldr	r3, [r7, #12]
 8002fda:	625a      	str	r2, [r3, #36]	; 0x24

          /* Update counter */
          hi2c->XferSize--;
 8002fdc:	68fb      	ldr	r3, [r7, #12]
 8002fde:	8d1b      	ldrh	r3, [r3, #40]	; 0x28
 8002fe0:	3b01      	subs	r3, #1
 8002fe2:	b29a      	uxth	r2, r3
 8002fe4:	68fb      	ldr	r3, [r7, #12]
 8002fe6:	851a      	strh	r2, [r3, #40]	; 0x28
          hi2c->XferCount--;
 8002fe8:	68fb      	ldr	r3, [r7, #12]
 8002fea:	8d5b      	ldrh	r3, [r3, #42]	; 0x2a
 8002fec:	b29b      	uxth	r3, r3
 8002fee:	3b01      	subs	r3, #1
 8002ff0:	b29a      	uxth	r2, r3
 8002ff2:	68fb      	ldr	r3, [r7, #12]
 8002ff4:	855a      	strh	r2, [r3, #42]	; 0x2a

          /* Read data from DR */
          *hi2c->pBuffPtr = (uint8_t)hi2c->Instance->DR;
 8002ff6:	68fb      	ldr	r3, [r7, #12]
 8002ff8:	681b      	ldr	r3, [r3, #0]
 8002ffa:	691a      	ldr	r2, [r3, #16]
 8002ffc:	68fb      	ldr	r3, [r7, #12]
 8002ffe:	6a5b      	ldr	r3, [r3, #36]	; 0x24
 8003000:	b2d2      	uxtb	r2, r2
 8003002:	701a      	strb	r2, [r3, #0]

          /* Increment Buffer pointer */
          hi2c->pBuffPtr++;
 8003004:	68fb      	ldr	r3, [r7, #12]
 8003006:	6a5b      	ldr	r3, [r3, #36]	; 0x24
 8003008:	1c5a      	adds	r2, r3, #1
 800300a:	68fb      	ldr	r3, [r7, #12]
 800300c:	625a      	str	r2, [r3, #36]	; 0x24

          /* Update counter */
          hi2c->XferSize--;
 800300e:	68fb      	ldr	r3, [r7, #12]
 8003010:	8d1b      	ldrh	r3, [r3, #40]	; 0x28
 8003012:	3b01      	subs	r3, #1
 8003014:	b29a      	uxth	r2, r3
 8003016:	68fb      	ldr	r3, [r7, #12]
 8003018:	851a      	strh	r2, [r3, #40]	; 0x28
          hi2c->XferCount--;
 800301a:	68fb      	ldr	r3, [r7, #12]
 800301c:	8d5b      	ldrh	r3, [r3, #42]	; 0x2a
 800301e:	b29b      	uxth	r3, r3
 8003020:	3b01      	subs	r3, #1
 8003022:	b29a      	uxth	r2, r3
 8003024:	68fb      	ldr	r3, [r7, #12]
 8003026:	855a      	strh	r2, [r3, #42]	; 0x2a
 8003028:	e042      	b.n	80030b0 <HAL_I2C_Mem_Read+0x418>
        }
      }
      else
      {
        /* Wait until RXNE flag is set */
        if (I2C_WaitOnRXNEFlagUntilTimeout(hi2c, Timeout, tickstart) != HAL_OK)
 800302a:	6a7a      	ldr	r2, [r7, #36]	; 0x24
 800302c:	6bb9      	ldr	r1, [r7, #56]	; 0x38
 800302e:	68f8      	ldr	r0, [r7, #12]
 8003030:	f001 ffe4 	bl	8004ffc <I2C_WaitOnRXNEFlagUntilTimeout>
 8003034:	4603      	mov	r3, r0
 8003036:	2b00      	cmp	r3, #0
 8003038:	d001      	beq.n	800303e <HAL_I2C_Mem_Read+0x3a6>
        {
          return HAL_ERROR;
 800303a:	2301      	movs	r3, #1
 800303c:	e04c      	b.n	80030d8 <HAL_I2C_Mem_Read+0x440>
        }

        /* Read data from DR */
        *hi2c->pBuffPtr = (uint8_t)hi2c->Instance->DR;
 800303e:	68fb      	ldr	r3, [r7, #12]
 8003040:	681b      	ldr	r3, [r3, #0]
 8003042:	691a      	ldr	r2, [r3, #16]
 8003044:	68fb      	ldr	r3, [r7, #12]
 8003046:	6a5b      	ldr	r3, [r3, #36]	; 0x24
 8003048:	b2d2      	uxtb	r2, r2
 800304a:	701a      	strb	r2, [r3, #0]

        /* Increment Buffer pointer */
        hi2c->pBuffPtr++;
 800304c:	68fb      	ldr	r3, [r7, #12]
 800304e:	6a5b      	ldr	r3, [r3, #36]	; 0x24
 8003050:	1c5a      	adds	r2, r3, #1
 8003052:	68fb      	ldr	r3, [r7, #12]
 8003054:	625a      	str	r2, [r3, #36]	; 0x24

        /* Update counter */
        hi2c->XferSize--;
 8003056:	68fb      	ldr	r3, [r7, #12]
 8003058:	8d1b      	ldrh	r3, [r3, #40]	; 0x28
 800305a:	3b01      	subs	r3, #1
 800305c:	b29a      	uxth	r2, r3
 800305e:	68fb      	ldr	r3, [r7, #12]
 8003060:	851a      	strh	r2, [r3, #40]	; 0x28
        hi2c->XferCount--;
 8003062:	68fb      	ldr	r3, [r7, #12]
 8003064:	8d5b      	ldrh	r3, [r3, #42]	; 0x2a
 8003066:	b29b      	uxth	r3, r3
 8003068:	3b01      	subs	r3, #1
 800306a:	b29a      	uxth	r2, r3
 800306c:	68fb      	ldr	r3, [r7, #12]
 800306e:	855a      	strh	r2, [r3, #42]	; 0x2a

        if (__HAL_I2C_GET_FLAG(hi2c, I2C_FLAG_BTF) == SET)
 8003070:	68fb      	ldr	r3, [r7, #12]
 8003072:	681b      	ldr	r3, [r3, #0]
 8003074:	695b      	ldr	r3, [r3, #20]
 8003076:	f003 0304 	and.w	r3, r3, #4
 800307a:	2b04      	cmp	r3, #4
 800307c:	d118      	bne.n	80030b0 <HAL_I2C_Mem_Read+0x418>
        {
          /* Read data from DR */
          *hi2c->pBuffPtr = (uint8_t)hi2c->Instance->DR;
 800307e:	68fb      	ldr	r3, [r7, #12]
 8003080:	681b      	ldr	r3, [r3, #0]
 8003082:	691a      	ldr	r2, [r3, #16]
 8003084:	68fb      	ldr	r3, [r7, #12]
 8003086:	6a5b      	ldr	r3, [r3, #36]	; 0x24
 8003088:	b2d2      	uxtb	r2, r2
 800308a:	701a      	strb	r2, [r3, #0]

          /* Increment Buffer pointer */
          hi2c->pBuffPtr++;
 800308c:	68fb      	ldr	r3, [r7, #12]
 800308e:	6a5b      	ldr	r3, [r3, #36]	; 0x24
 8003090:	1c5a      	adds	r2, r3, #1
 8003092:	68fb      	ldr	r3, [r7, #12]
 8003094:	625a      	str	r2, [r3, #36]	; 0x24

          /* Update counter */
          hi2c->XferSize--;
 8003096:	68fb      	ldr	r3, [r7, #12]
 8003098:	8d1b      	ldrh	r3, [r3, #40]	; 0x28
 800309a:	3b01      	subs	r3, #1
 800309c:	b29a      	uxth	r2, r3
 800309e:	68fb      	ldr	r3, [r7, #12]
 80030a0:	851a      	strh	r2, [r3, #40]	; 0x28
          hi2c->XferCount--;
 80030a2:	68fb      	ldr	r3, [r7, #12]
 80030a4:	8d5b      	ldrh	r3, [r3, #42]	; 0x2a
 80030a6:	b29b      	uxth	r3, r3
 80030a8:	3b01      	subs	r3, #1
 80030aa:	b29a      	uxth	r2, r3
 80030ac:	68fb      	ldr	r3, [r7, #12]
 80030ae:	855a      	strh	r2, [r3, #42]	; 0x2a
    while (hi2c->XferSize > 0U)
 80030b0:	68fb      	ldr	r3, [r7, #12]
 80030b2:	8d1b      	ldrh	r3, [r3, #40]	; 0x28
 80030b4:	2b00      	cmp	r3, #0
 80030b6:	f47f aec2 	bne.w	8002e3e <HAL_I2C_Mem_Read+0x1a6>
        }
      }
    }

    hi2c->State = HAL_I2C_STATE_READY;
 80030ba:	68fb      	ldr	r3, [r7, #12]
 80030bc:	2220      	movs	r2, #32
 80030be:	f883 203d 	strb.w	r2, [r3, #61]	; 0x3d
    hi2c->Mode = HAL_I2C_MODE_NONE;
 80030c2:	68fb      	ldr	r3, [r7, #12]
 80030c4:	2200      	movs	r2, #0
 80030c6:	f883 203e 	strb.w	r2, [r3, #62]	; 0x3e

    /* Process Unlocked */
    __HAL_UNLOCK(hi2c);
 80030ca:	68fb      	ldr	r3, [r7, #12]
 80030cc:	2200      	movs	r2, #0
 80030ce:	f883 203c 	strb.w	r2, [r3, #60]	; 0x3c

    return HAL_OK;
 80030d2:	2300      	movs	r3, #0
 80030d4:	e000      	b.n	80030d8 <HAL_I2C_Mem_Read+0x440>
  }
  else
  {
    return HAL_BUSY;
 80030d6:	2302      	movs	r3, #2
  }
}
 80030d8:	4618      	mov	r0, r3
 80030da:	3728      	adds	r7, #40	; 0x28
 80030dc:	46bd      	mov	sp, r7
 80030de:	bd80      	pop	{r7, pc}
 80030e0:	00010004 	.word	0x00010004

080030e4 <HAL_I2C_EV_IRQHandler>:
  * @param  hi2c Pointer to a I2C_HandleTypeDef structure that contains
  *                the configuration information for the specified I2C.
  * @retval None
  */
void HAL_I2C_EV_IRQHandler(I2C_HandleTypeDef *hi2c)
{
 80030e4:	b580      	push	{r7, lr}
 80030e6:	b088      	sub	sp, #32
 80030e8:	af00      	add	r7, sp, #0
 80030ea:	6078      	str	r0, [r7, #4]
  uint32_t sr1itflags;
  uint32_t sr2itflags               = 0U;
 80030ec:	2300      	movs	r3, #0
 80030ee:	61bb      	str	r3, [r7, #24]
  uint32_t itsources                = READ_REG(hi2c->Instance->CR2);
 80030f0:	687b      	ldr	r3, [r7, #4]
 80030f2:	681b      	ldr	r3, [r3, #0]
 80030f4:	685b      	ldr	r3, [r3, #4]
 80030f6:	617b      	str	r3, [r7, #20]
  uint32_t CurrentXferOptions       = hi2c->XferOptions;
 80030f8:	687b      	ldr	r3, [r7, #4]
 80030fa:	6adb      	ldr	r3, [r3, #44]	; 0x2c
 80030fc:	613b      	str	r3, [r7, #16]
  HAL_I2C_ModeTypeDef CurrentMode   = hi2c->Mode;
 80030fe:	687b      	ldr	r3, [r7, #4]
 8003100:	f893 303e 	ldrb.w	r3, [r3, #62]	; 0x3e
 8003104:	73fb      	strb	r3, [r7, #15]
  HAL_I2C_StateTypeDef CurrentState = hi2c->State;
 8003106:	687b      	ldr	r3, [r7, #4]
 8003108:	f893 303d 	ldrb.w	r3, [r3, #61]	; 0x3d
 800310c:	73bb      	strb	r3, [r7, #14]

  /* Master or Memory mode selected */
  if ((CurrentMode == HAL_I2C_MODE_MASTER) || (CurrentMode == HAL_I2C_MODE_MEM))
 800310e:	7bfb      	ldrb	r3, [r7, #15]
 8003110:	2b10      	cmp	r3, #16
 8003112:	d003      	beq.n	800311c <HAL_I2C_EV_IRQHandler+0x38>
 8003114:	7bfb      	ldrb	r3, [r7, #15]
 8003116:	2b40      	cmp	r3, #64	; 0x40
 8003118:	f040 80c1 	bne.w	800329e <HAL_I2C_EV_IRQHandler+0x1ba>
  {
    sr2itflags   = READ_REG(hi2c->Instance->SR2);
 800311c:	687b      	ldr	r3, [r7, #4]
 800311e:	681b      	ldr	r3, [r3, #0]
 8003120:	699b      	ldr	r3, [r3, #24]
 8003122:	61bb      	str	r3, [r7, #24]
    sr1itflags   = READ_REG(hi2c->Instance->SR1);
 8003124:	687b      	ldr	r3, [r7, #4]
 8003126:	681b      	ldr	r3, [r3, #0]
 8003128:	695b      	ldr	r3, [r3, #20]
 800312a:	61fb      	str	r3, [r7, #28]

    /* Exit IRQ event until Start Bit detected in case of Other frame requested */
    if ((I2C_CHECK_FLAG(sr1itflags, I2C_FLAG_SB) == RESET) && (IS_I2C_TRANSFER_OTHER_OPTIONS_REQUEST(CurrentXferOptions) == 1U))
 800312c:	69fb      	ldr	r3, [r7, #28]
 800312e:	f003 0301 	and.w	r3, r3, #1
 8003132:	2b00      	cmp	r3, #0
 8003134:	d10d      	bne.n	8003152 <HAL_I2C_EV_IRQHandler+0x6e>
 8003136:	693b      	ldr	r3, [r7, #16]
 8003138:	f5b3 0f2a 	cmp.w	r3, #11141120	; 0xaa0000
 800313c:	d003      	beq.n	8003146 <HAL_I2C_EV_IRQHandler+0x62>
 800313e:	693b      	ldr	r3, [r7, #16]
 8003140:	f1b3 4f2a 	cmp.w	r3, #2852126720	; 0xaa000000
 8003144:	d101      	bne.n	800314a <HAL_I2C_EV_IRQHandler+0x66>
 8003146:	2301      	movs	r3, #1
 8003148:	e000      	b.n	800314c <HAL_I2C_EV_IRQHandler+0x68>
 800314a:	2300      	movs	r3, #0
 800314c:	2b01      	cmp	r3, #1
 800314e:	f000 8132 	beq.w	80033b6 <HAL_I2C_EV_IRQHandler+0x2d2>
    {
      return;
    }

    /* SB Set ----------------------------------------------------------------*/
    if ((I2C_CHECK_FLAG(sr1itflags, I2C_FLAG_SB) != RESET) && (I2C_CHECK_IT_SOURCE(itsources, I2C_IT_EVT) != RESET))
 8003152:	69fb      	ldr	r3, [r7, #28]
 8003154:	f003 0301 	and.w	r3, r3, #1
 8003158:	2b00      	cmp	r3, #0
 800315a:	d00c      	beq.n	8003176 <HAL_I2C_EV_IRQHandler+0x92>
 800315c:	697b      	ldr	r3, [r7, #20]
 800315e:	0a5b      	lsrs	r3, r3, #9
 8003160:	f003 0301 	and.w	r3, r3, #1
 8003164:	2b00      	cmp	r3, #0
 8003166:	d006      	beq.n	8003176 <HAL_I2C_EV_IRQHandler+0x92>
    {
      /* Convert OTHER_xxx XferOptions if any */
      I2C_ConvertOtherXferOptions(hi2c);
 8003168:	6878      	ldr	r0, [r7, #4]
 800316a:	f001 ffcc 	bl	8005106 <I2C_ConvertOtherXferOptions>

      I2C_Master_SB(hi2c);
 800316e:	6878      	ldr	r0, [r7, #4]
 8003170:	f000 fd79 	bl	8003c66 <I2C_Master_SB>
 8003174:	e092      	b.n	800329c <HAL_I2C_EV_IRQHandler+0x1b8>
    }
    /* ADD10 Set -------------------------------------------------------------*/
    else if ((I2C_CHECK_FLAG(sr1itflags, I2C_FLAG_ADD10) != RESET) && (I2C_CHECK_IT_SOURCE(itsources, I2C_IT_EVT) != RESET))
 8003176:	69fb      	ldr	r3, [r7, #28]
 8003178:	08db      	lsrs	r3, r3, #3
 800317a:	f003 0301 	and.w	r3, r3, #1
 800317e:	2b00      	cmp	r3, #0
 8003180:	d009      	beq.n	8003196 <HAL_I2C_EV_IRQHandler+0xb2>
 8003182:	697b      	ldr	r3, [r7, #20]
 8003184:	0a5b      	lsrs	r3, r3, #9
 8003186:	f003 0301 	and.w	r3, r3, #1
 800318a:	2b00      	cmp	r3, #0
 800318c:	d003      	beq.n	8003196 <HAL_I2C_EV_IRQHandler+0xb2>
    {
      I2C_Master_ADD10(hi2c);
 800318e:	6878      	ldr	r0, [r7, #4]
 8003190:	f000 fdef 	bl	8003d72 <I2C_Master_ADD10>
 8003194:	e082      	b.n	800329c <HAL_I2C_EV_IRQHandler+0x1b8>
    }
    /* ADDR Set --------------------------------------------------------------*/
    else if ((I2C_CHECK_FLAG(sr1itflags, I2C_FLAG_ADDR) != RESET) && (I2C_CHECK_IT_SOURCE(itsources, I2C_IT_EVT) != RESET))
 8003196:	69fb      	ldr	r3, [r7, #28]
 8003198:	085b      	lsrs	r3, r3, #1
 800319a:	f003 0301 	and.w	r3, r3, #1
 800319e:	2b00      	cmp	r3, #0
 80031a0:	d009      	beq.n	80031b6 <HAL_I2C_EV_IRQHandler+0xd2>
 80031a2:	697b      	ldr	r3, [r7, #20]
 80031a4:	0a5b      	lsrs	r3, r3, #9
 80031a6:	f003 0301 	and.w	r3, r3, #1
 80031aa:	2b00      	cmp	r3, #0
 80031ac:	d003      	beq.n	80031b6 <HAL_I2C_EV_IRQHandler+0xd2>
    {
      I2C_Master_ADDR(hi2c);
 80031ae:	6878      	ldr	r0, [r7, #4]
 80031b0:	f000 fe09 	bl	8003dc6 <I2C_Master_ADDR>
 80031b4:	e072      	b.n	800329c <HAL_I2C_EV_IRQHandler+0x1b8>
    }
    /* I2C in mode Transmitter -----------------------------------------------*/
    else if (I2C_CHECK_FLAG(sr2itflags, I2C_FLAG_TRA) != RESET)
 80031b6:	69bb      	ldr	r3, [r7, #24]
 80031b8:	089b      	lsrs	r3, r3, #2
 80031ba:	f003 0301 	and.w	r3, r3, #1
 80031be:	2b00      	cmp	r3, #0
 80031c0:	d03b      	beq.n	800323a <HAL_I2C_EV_IRQHandler+0x156>
    {
      /* Do not check buffer and BTF flag if a Xfer DMA is on going */
      if (READ_BIT(hi2c->Instance->CR2, I2C_CR2_DMAEN) != I2C_CR2_DMAEN)
 80031c2:	687b      	ldr	r3, [r7, #4]
 80031c4:	681b      	ldr	r3, [r3, #0]
 80031c6:	685b      	ldr	r3, [r3, #4]
 80031c8:	f403 6300 	and.w	r3, r3, #2048	; 0x800
 80031cc:	f5b3 6f00 	cmp.w	r3, #2048	; 0x800
 80031d0:	f000 80f3 	beq.w	80033ba <HAL_I2C_EV_IRQHandler+0x2d6>
      {
        /* TXE set and BTF reset -----------------------------------------------*/
        if ((I2C_CHECK_FLAG(sr1itflags, I2C_FLAG_TXE) != RESET) && (I2C_CHECK_IT_SOURCE(itsources, I2C_IT_BUF) != RESET) && (I2C_CHECK_FLAG(sr1itflags, I2C_FLAG_BTF) == RESET))
 80031d4:	69fb      	ldr	r3, [r7, #28]
 80031d6:	09db      	lsrs	r3, r3, #7
 80031d8:	f003 0301 	and.w	r3, r3, #1
 80031dc:	2b00      	cmp	r3, #0
 80031de:	d00f      	beq.n	8003200 <HAL_I2C_EV_IRQHandler+0x11c>
 80031e0:	697b      	ldr	r3, [r7, #20]
 80031e2:	0a9b      	lsrs	r3, r3, #10
 80031e4:	f003 0301 	and.w	r3, r3, #1
 80031e8:	2b00      	cmp	r3, #0
 80031ea:	d009      	beq.n	8003200 <HAL_I2C_EV_IRQHandler+0x11c>
 80031ec:	69fb      	ldr	r3, [r7, #28]
 80031ee:	089b      	lsrs	r3, r3, #2
 80031f0:	f003 0301 	and.w	r3, r3, #1
 80031f4:	2b00      	cmp	r3, #0
 80031f6:	d103      	bne.n	8003200 <HAL_I2C_EV_IRQHandler+0x11c>
        {
          I2C_MasterTransmit_TXE(hi2c);
 80031f8:	6878      	ldr	r0, [r7, #4]
 80031fa:	f000 f9f3 	bl	80035e4 <I2C_MasterTransmit_TXE>
 80031fe:	e04d      	b.n	800329c <HAL_I2C_EV_IRQHandler+0x1b8>
        }
        /* BTF set -------------------------------------------------------------*/
        else if ((I2C_CHECK_FLAG(sr1itflags, I2C_FLAG_BTF) != RESET) && (I2C_CHECK_IT_SOURCE(itsources, I2C_IT_EVT) != RESET))
 8003200:	69fb      	ldr	r3, [r7, #28]
 8003202:	089b      	lsrs	r3, r3, #2
 8003204:	f003 0301 	and.w	r3, r3, #1
 8003208:	2b00      	cmp	r3, #0
 800320a:	f000 80d6 	beq.w	80033ba <HAL_I2C_EV_IRQHandler+0x2d6>
 800320e:	697b      	ldr	r3, [r7, #20]
 8003210:	0a5b      	lsrs	r3, r3, #9
 8003212:	f003 0301 	and.w	r3, r3, #1
 8003216:	2b00      	cmp	r3, #0
 8003218:	f000 80cf 	beq.w	80033ba <HAL_I2C_EV_IRQHandler+0x2d6>
        {
          if (CurrentState == HAL_I2C_STATE_BUSY_TX)
 800321c:	7bbb      	ldrb	r3, [r7, #14]
 800321e:	2b21      	cmp	r3, #33	; 0x21
 8003220:	d103      	bne.n	800322a <HAL_I2C_EV_IRQHandler+0x146>
          {
            I2C_MasterTransmit_BTF(hi2c);
 8003222:	6878      	ldr	r0, [r7, #4]
 8003224:	f000 fa7a 	bl	800371c <I2C_MasterTransmit_BTF>
    if ((I2C_CHECK_FLAG(sr1itflags, I2C_FLAG_SB) != RESET) && (I2C_CHECK_IT_SOURCE(itsources, I2C_IT_EVT) != RESET))
 8003228:	e0c7      	b.n	80033ba <HAL_I2C_EV_IRQHandler+0x2d6>
          }
          else /* HAL_I2C_MODE_MEM */
          {
            if (CurrentMode == HAL_I2C_MODE_MEM)
 800322a:	7bfb      	ldrb	r3, [r7, #15]
 800322c:	2b40      	cmp	r3, #64	; 0x40
 800322e:	f040 80c4 	bne.w	80033ba <HAL_I2C_EV_IRQHandler+0x2d6>
            {
              I2C_MemoryTransmit_TXE_BTF(hi2c);
 8003232:	6878      	ldr	r0, [r7, #4]
 8003234:	f000 fae8 	bl	8003808 <I2C_MemoryTransmit_TXE_BTF>
    if ((I2C_CHECK_FLAG(sr1itflags, I2C_FLAG_SB) != RESET) && (I2C_CHECK_IT_SOURCE(itsources, I2C_IT_EVT) != RESET))
 8003238:	e0bf      	b.n	80033ba <HAL_I2C_EV_IRQHandler+0x2d6>
    }
    /* I2C in mode Receiver --------------------------------------------------*/
    else
    {
      /* Do not check buffer and BTF flag if a Xfer DMA is on going */
      if (READ_BIT(hi2c->Instance->CR2, I2C_CR2_DMAEN) != I2C_CR2_DMAEN)
 800323a:	687b      	ldr	r3, [r7, #4]
 800323c:	681b      	ldr	r3, [r3, #0]
 800323e:	685b      	ldr	r3, [r3, #4]
 8003240:	f403 6300 	and.w	r3, r3, #2048	; 0x800
 8003244:	f5b3 6f00 	cmp.w	r3, #2048	; 0x800
 8003248:	f000 80b7 	beq.w	80033ba <HAL_I2C_EV_IRQHandler+0x2d6>
      {
        /* RXNE set and BTF reset -----------------------------------------------*/
        if ((I2C_CHECK_FLAG(sr1itflags, I2C_FLAG_RXNE) != RESET) && (I2C_CHECK_IT_SOURCE(itsources, I2C_IT_BUF) != RESET) && (I2C_CHECK_FLAG(sr1itflags, I2C_FLAG_BTF) == RESET))
 800324c:	69fb      	ldr	r3, [r7, #28]
 800324e:	099b      	lsrs	r3, r3, #6
 8003250:	f003 0301 	and.w	r3, r3, #1
 8003254:	2b00      	cmp	r3, #0
 8003256:	d00f      	beq.n	8003278 <HAL_I2C_EV_IRQHandler+0x194>
 8003258:	697b      	ldr	r3, [r7, #20]
 800325a:	0a9b      	lsrs	r3, r3, #10
 800325c:	f003 0301 	and.w	r3, r3, #1
 8003260:	2b00      	cmp	r3, #0
 8003262:	d009      	beq.n	8003278 <HAL_I2C_EV_IRQHandler+0x194>
 8003264:	69fb      	ldr	r3, [r7, #28]
 8003266:	089b      	lsrs	r3, r3, #2
 8003268:	f003 0301 	and.w	r3, r3, #1
 800326c:	2b00      	cmp	r3, #0
 800326e:	d103      	bne.n	8003278 <HAL_I2C_EV_IRQHandler+0x194>
        {
          I2C_MasterReceive_RXNE(hi2c);
 8003270:	6878      	ldr	r0, [r7, #4]
 8003272:	f000 fb5d 	bl	8003930 <I2C_MasterReceive_RXNE>
 8003276:	e011      	b.n	800329c <HAL_I2C_EV_IRQHandler+0x1b8>
        }
        /* BTF set -------------------------------------------------------------*/
        else if ((I2C_CHECK_FLAG(sr1itflags, I2C_FLAG_BTF) != RESET) && (I2C_CHECK_IT_SOURCE(itsources, I2C_IT_EVT) != RESET))
 8003278:	69fb      	ldr	r3, [r7, #28]
 800327a:	089b      	lsrs	r3, r3, #2
 800327c:	f003 0301 	and.w	r3, r3, #1
 8003280:	2b00      	cmp	r3, #0
 8003282:	f000 809a 	beq.w	80033ba <HAL_I2C_EV_IRQHandler+0x2d6>
 8003286:	697b      	ldr	r3, [r7, #20]
 8003288:	0a5b      	lsrs	r3, r3, #9
 800328a:	f003 0301 	and.w	r3, r3, #1
 800328e:	2b00      	cmp	r3, #0
 8003290:	f000 8093 	beq.w	80033ba <HAL_I2C_EV_IRQHandler+0x2d6>
        {
          I2C_MasterReceive_BTF(hi2c);
 8003294:	6878      	ldr	r0, [r7, #4]
 8003296:	f000 fbfc 	bl	8003a92 <I2C_MasterReceive_BTF>
    if ((I2C_CHECK_FLAG(sr1itflags, I2C_FLAG_SB) != RESET) && (I2C_CHECK_IT_SOURCE(itsources, I2C_IT_EVT) != RESET))
 800329a:	e08e      	b.n	80033ba <HAL_I2C_EV_IRQHandler+0x2d6>
 800329c:	e08d      	b.n	80033ba <HAL_I2C_EV_IRQHandler+0x2d6>
  /* Slave mode selected */
  else
  {
    /* If an error is detected, read only SR1 register to prevent */
    /* a clear of ADDR flags by reading SR2 after reading SR1 in Error treatment */
    if (hi2c->ErrorCode != HAL_I2C_ERROR_NONE)
 800329e:	687b      	ldr	r3, [r7, #4]
 80032a0:	6c1b      	ldr	r3, [r3, #64]	; 0x40
 80032a2:	2b00      	cmp	r3, #0
 80032a4:	d004      	beq.n	80032b0 <HAL_I2C_EV_IRQHandler+0x1cc>
    {
      sr1itflags   = READ_REG(hi2c->Instance->SR1);
 80032a6:	687b      	ldr	r3, [r7, #4]
 80032a8:	681b      	ldr	r3, [r3, #0]
 80032aa:	695b      	ldr	r3, [r3, #20]
 80032ac:	61fb      	str	r3, [r7, #28]
 80032ae:	e007      	b.n	80032c0 <HAL_I2C_EV_IRQHandler+0x1dc>
    }
    else
    {
      sr2itflags   = READ_REG(hi2c->Instance->SR2);
 80032b0:	687b      	ldr	r3, [r7, #4]
 80032b2:	681b      	ldr	r3, [r3, #0]
 80032b4:	699b      	ldr	r3, [r3, #24]
 80032b6:	61bb      	str	r3, [r7, #24]
      sr1itflags   = READ_REG(hi2c->Instance->SR1);
 80032b8:	687b      	ldr	r3, [r7, #4]
 80032ba:	681b      	ldr	r3, [r3, #0]
 80032bc:	695b      	ldr	r3, [r3, #20]
 80032be:	61fb      	str	r3, [r7, #28]
    }

    /* ADDR set --------------------------------------------------------------*/
    if ((I2C_CHECK_FLAG(sr1itflags, I2C_FLAG_ADDR) != RESET) && (I2C_CHECK_IT_SOURCE(itsources, I2C_IT_EVT) != RESET))
 80032c0:	69fb      	ldr	r3, [r7, #28]
 80032c2:	085b      	lsrs	r3, r3, #1
 80032c4:	f003 0301 	and.w	r3, r3, #1
 80032c8:	2b00      	cmp	r3, #0
 80032ca:	d012      	beq.n	80032f2 <HAL_I2C_EV_IRQHandler+0x20e>
 80032cc:	697b      	ldr	r3, [r7, #20]
 80032ce:	0a5b      	lsrs	r3, r3, #9
 80032d0:	f003 0301 	and.w	r3, r3, #1
 80032d4:	2b00      	cmp	r3, #0
 80032d6:	d00c      	beq.n	80032f2 <HAL_I2C_EV_IRQHandler+0x20e>
    {
      /* Now time to read SR2, this will clear ADDR flag automatically */
      if (hi2c->ErrorCode != HAL_I2C_ERROR_NONE)
 80032d8:	687b      	ldr	r3, [r7, #4]
 80032da:	6c1b      	ldr	r3, [r3, #64]	; 0x40
 80032dc:	2b00      	cmp	r3, #0
 80032de:	d003      	beq.n	80032e8 <HAL_I2C_EV_IRQHandler+0x204>
      {
        sr2itflags   = READ_REG(hi2c->Instance->SR2);
 80032e0:	687b      	ldr	r3, [r7, #4]
 80032e2:	681b      	ldr	r3, [r3, #0]
 80032e4:	699b      	ldr	r3, [r3, #24]
 80032e6:	61bb      	str	r3, [r7, #24]
      }
      I2C_Slave_ADDR(hi2c, sr2itflags);
 80032e8:	69b9      	ldr	r1, [r7, #24]
 80032ea:	6878      	ldr	r0, [r7, #4]
 80032ec:	f000 ffba 	bl	8004264 <I2C_Slave_ADDR>
 80032f0:	e066      	b.n	80033c0 <HAL_I2C_EV_IRQHandler+0x2dc>
    }
    /* STOPF set --------------------------------------------------------------*/
    else if ((I2C_CHECK_FLAG(sr1itflags, I2C_FLAG_STOPF) != RESET) && (I2C_CHECK_IT_SOURCE(itsources, I2C_IT_EVT) != RESET))
 80032f2:	69fb      	ldr	r3, [r7, #28]
 80032f4:	091b      	lsrs	r3, r3, #4
 80032f6:	f003 0301 	and.w	r3, r3, #1
 80032fa:	2b00      	cmp	r3, #0
 80032fc:	d009      	beq.n	8003312 <HAL_I2C_EV_IRQHandler+0x22e>
 80032fe:	697b      	ldr	r3, [r7, #20]
 8003300:	0a5b      	lsrs	r3, r3, #9
 8003302:	f003 0301 	and.w	r3, r3, #1
 8003306:	2b00      	cmp	r3, #0
 8003308:	d003      	beq.n	8003312 <HAL_I2C_EV_IRQHandler+0x22e>
    {
      I2C_Slave_STOPF(hi2c);
 800330a:	6878      	ldr	r0, [r7, #4]
 800330c:	f000 fff4 	bl	80042f8 <I2C_Slave_STOPF>
 8003310:	e056      	b.n	80033c0 <HAL_I2C_EV_IRQHandler+0x2dc>
    }
    /* I2C in mode Transmitter -----------------------------------------------*/
    else if ((CurrentState == HAL_I2C_STATE_BUSY_TX) || (CurrentState == HAL_I2C_STATE_BUSY_TX_LISTEN))
 8003312:	7bbb      	ldrb	r3, [r7, #14]
 8003314:	2b21      	cmp	r3, #33	; 0x21
 8003316:	d002      	beq.n	800331e <HAL_I2C_EV_IRQHandler+0x23a>
 8003318:	7bbb      	ldrb	r3, [r7, #14]
 800331a:	2b29      	cmp	r3, #41	; 0x29
 800331c:	d125      	bne.n	800336a <HAL_I2C_EV_IRQHandler+0x286>
    {
      /* TXE set and BTF reset -----------------------------------------------*/
      if ((I2C_CHECK_FLAG(sr1itflags, I2C_FLAG_TXE) != RESET) && (I2C_CHECK_IT_SOURCE(itsources, I2C_IT_BUF) != RESET) && (I2C_CHECK_FLAG(sr1itflags, I2C_FLAG_BTF) == RESET))
 800331e:	69fb      	ldr	r3, [r7, #28]
 8003320:	09db      	lsrs	r3, r3, #7
 8003322:	f003 0301 	and.w	r3, r3, #1
 8003326:	2b00      	cmp	r3, #0
 8003328:	d00f      	beq.n	800334a <HAL_I2C_EV_IRQHandler+0x266>
 800332a:	697b      	ldr	r3, [r7, #20]
 800332c:	0a9b      	lsrs	r3, r3, #10
 800332e:	f003 0301 	and.w	r3, r3, #1
 8003332:	2b00      	cmp	r3, #0
 8003334:	d009      	beq.n	800334a <HAL_I2C_EV_IRQHandler+0x266>
 8003336:	69fb      	ldr	r3, [r7, #28]
 8003338:	089b      	lsrs	r3, r3, #2
 800333a:	f003 0301 	and.w	r3, r3, #1
 800333e:	2b00      	cmp	r3, #0
 8003340:	d103      	bne.n	800334a <HAL_I2C_EV_IRQHandler+0x266>
      {
        I2C_SlaveTransmit_TXE(hi2c);
 8003342:	6878      	ldr	r0, [r7, #4]
 8003344:	f000 fed0 	bl	80040e8 <I2C_SlaveTransmit_TXE>
      if ((I2C_CHECK_FLAG(sr1itflags, I2C_FLAG_TXE) != RESET) && (I2C_CHECK_IT_SOURCE(itsources, I2C_IT_BUF) != RESET) && (I2C_CHECK_FLAG(sr1itflags, I2C_FLAG_BTF) == RESET))
 8003348:	e039      	b.n	80033be <HAL_I2C_EV_IRQHandler+0x2da>
      }
      /* BTF set -------------------------------------------------------------*/
      else if ((I2C_CHECK_FLAG(sr1itflags, I2C_FLAG_BTF) != RESET) && (I2C_CHECK_IT_SOURCE(itsources, I2C_IT_EVT) != RESET))
 800334a:	69fb      	ldr	r3, [r7, #28]
 800334c:	089b      	lsrs	r3, r3, #2
 800334e:	f003 0301 	and.w	r3, r3, #1
 8003352:	2b00      	cmp	r3, #0
 8003354:	d033      	beq.n	80033be <HAL_I2C_EV_IRQHandler+0x2da>
 8003356:	697b      	ldr	r3, [r7, #20]
 8003358:	0a5b      	lsrs	r3, r3, #9
 800335a:	f003 0301 	and.w	r3, r3, #1
 800335e:	2b00      	cmp	r3, #0
 8003360:	d02d      	beq.n	80033be <HAL_I2C_EV_IRQHandler+0x2da>
      {
        I2C_SlaveTransmit_BTF(hi2c);
 8003362:	6878      	ldr	r0, [r7, #4]
 8003364:	f000 fefd 	bl	8004162 <I2C_SlaveTransmit_BTF>
      if ((I2C_CHECK_FLAG(sr1itflags, I2C_FLAG_TXE) != RESET) && (I2C_CHECK_IT_SOURCE(itsources, I2C_IT_BUF) != RESET) && (I2C_CHECK_FLAG(sr1itflags, I2C_FLAG_BTF) == RESET))
 8003368:	e029      	b.n	80033be <HAL_I2C_EV_IRQHandler+0x2da>
    }
    /* I2C in mode Receiver --------------------------------------------------*/
    else
    {
      /* RXNE set and BTF reset ----------------------------------------------*/
      if ((I2C_CHECK_FLAG(sr1itflags, I2C_FLAG_RXNE) != RESET) && (I2C_CHECK_IT_SOURCE(itsources, I2C_IT_BUF) != RESET) && (I2C_CHECK_FLAG(sr1itflags, I2C_FLAG_BTF) == RESET))
 800336a:	69fb      	ldr	r3, [r7, #28]
 800336c:	099b      	lsrs	r3, r3, #6
 800336e:	f003 0301 	and.w	r3, r3, #1
 8003372:	2b00      	cmp	r3, #0
 8003374:	d00f      	beq.n	8003396 <HAL_I2C_EV_IRQHandler+0x2b2>
 8003376:	697b      	ldr	r3, [r7, #20]
 8003378:	0a9b      	lsrs	r3, r3, #10
 800337a:	f003 0301 	and.w	r3, r3, #1
 800337e:	2b00      	cmp	r3, #0
 8003380:	d009      	beq.n	8003396 <HAL_I2C_EV_IRQHandler+0x2b2>
 8003382:	69fb      	ldr	r3, [r7, #28]
 8003384:	089b      	lsrs	r3, r3, #2
 8003386:	f003 0301 	and.w	r3, r3, #1
 800338a:	2b00      	cmp	r3, #0
 800338c:	d103      	bne.n	8003396 <HAL_I2C_EV_IRQHandler+0x2b2>
      {
        I2C_SlaveReceive_RXNE(hi2c);
 800338e:	6878      	ldr	r0, [r7, #4]
 8003390:	f000 ff08 	bl	80041a4 <I2C_SlaveReceive_RXNE>
 8003394:	e014      	b.n	80033c0 <HAL_I2C_EV_IRQHandler+0x2dc>
      }
      /* BTF set -------------------------------------------------------------*/
      else if ((I2C_CHECK_FLAG(sr1itflags, I2C_FLAG_BTF) != RESET) && (I2C_CHECK_IT_SOURCE(itsources, I2C_IT_EVT) != RESET))
 8003396:	69fb      	ldr	r3, [r7, #28]
 8003398:	089b      	lsrs	r3, r3, #2
 800339a:	f003 0301 	and.w	r3, r3, #1
 800339e:	2b00      	cmp	r3, #0
 80033a0:	d00e      	beq.n	80033c0 <HAL_I2C_EV_IRQHandler+0x2dc>
 80033a2:	697b      	ldr	r3, [r7, #20]
 80033a4:	0a5b      	lsrs	r3, r3, #9
 80033a6:	f003 0301 	and.w	r3, r3, #1
 80033aa:	2b00      	cmp	r3, #0
 80033ac:	d008      	beq.n	80033c0 <HAL_I2C_EV_IRQHandler+0x2dc>
      {
        I2C_SlaveReceive_BTF(hi2c);
 80033ae:	6878      	ldr	r0, [r7, #4]
 80033b0:	f000 ff36 	bl	8004220 <I2C_SlaveReceive_BTF>
 80033b4:	e004      	b.n	80033c0 <HAL_I2C_EV_IRQHandler+0x2dc>
      return;
 80033b6:	bf00      	nop
 80033b8:	e002      	b.n	80033c0 <HAL_I2C_EV_IRQHandler+0x2dc>
    if ((I2C_CHECK_FLAG(sr1itflags, I2C_FLAG_SB) != RESET) && (I2C_CHECK_IT_SOURCE(itsources, I2C_IT_EVT) != RESET))
 80033ba:	bf00      	nop
 80033bc:	e000      	b.n	80033c0 <HAL_I2C_EV_IRQHandler+0x2dc>
      if ((I2C_CHECK_FLAG(sr1itflags, I2C_FLAG_TXE) != RESET) && (I2C_CHECK_IT_SOURCE(itsources, I2C_IT_BUF) != RESET) && (I2C_CHECK_FLAG(sr1itflags, I2C_FLAG_BTF) == RESET))
 80033be:	bf00      	nop
      {
        /* Do nothing */
      }
    }
  }
}
 80033c0:	3720      	adds	r7, #32
 80033c2:	46bd      	mov	sp, r7
 80033c4:	bd80      	pop	{r7, pc}

080033c6 <HAL_I2C_ER_IRQHandler>:
  * @param  hi2c Pointer to a I2C_HandleTypeDef structure that contains
  *                the configuration information for the specified I2C.
  * @retval None
  */
void HAL_I2C_ER_IRQHandler(I2C_HandleTypeDef *hi2c)
{
 80033c6:	b580      	push	{r7, lr}
 80033c8:	b08a      	sub	sp, #40	; 0x28
 80033ca:	af00      	add	r7, sp, #0
 80033cc:	6078      	str	r0, [r7, #4]
  HAL_I2C_ModeTypeDef tmp1;
  uint32_t tmp2;
  HAL_I2C_StateTypeDef tmp3;
  uint32_t tmp4;
  uint32_t sr1itflags = READ_REG(hi2c->Instance->SR1);
 80033ce:	687b      	ldr	r3, [r7, #4]
 80033d0:	681b      	ldr	r3, [r3, #0]
 80033d2:	695b      	ldr	r3, [r3, #20]
 80033d4:	623b      	str	r3, [r7, #32]
  uint32_t itsources  = READ_REG(hi2c->Instance->CR2);
 80033d6:	687b      	ldr	r3, [r7, #4]
 80033d8:	681b      	ldr	r3, [r3, #0]
 80033da:	685b      	ldr	r3, [r3, #4]
 80033dc:	61fb      	str	r3, [r7, #28]
  uint32_t error      = HAL_I2C_ERROR_NONE;
 80033de:	2300      	movs	r3, #0
 80033e0:	627b      	str	r3, [r7, #36]	; 0x24
  HAL_I2C_ModeTypeDef CurrentMode   = hi2c->Mode;
 80033e2:	687b      	ldr	r3, [r7, #4]
 80033e4:	f893 303e 	ldrb.w	r3, [r3, #62]	; 0x3e
 80033e8:	76fb      	strb	r3, [r7, #27]

  /* I2C Bus error interrupt occurred ----------------------------------------*/
  if ((I2C_CHECK_FLAG(sr1itflags, I2C_FLAG_BERR) != RESET) && (I2C_CHECK_IT_SOURCE(itsources, I2C_IT_ERR) != RESET))
 80033ea:	6a3b      	ldr	r3, [r7, #32]
 80033ec:	0a1b      	lsrs	r3, r3, #8
 80033ee:	f003 0301 	and.w	r3, r3, #1
 80033f2:	2b00      	cmp	r3, #0
 80033f4:	d00e      	beq.n	8003414 <HAL_I2C_ER_IRQHandler+0x4e>
 80033f6:	69fb      	ldr	r3, [r7, #28]
 80033f8:	0a1b      	lsrs	r3, r3, #8
 80033fa:	f003 0301 	and.w	r3, r3, #1
 80033fe:	2b00      	cmp	r3, #0
 8003400:	d008      	beq.n	8003414 <HAL_I2C_ER_IRQHandler+0x4e>
  {
    error |= HAL_I2C_ERROR_BERR;
 8003402:	6a7b      	ldr	r3, [r7, #36]	; 0x24
 8003404:	f043 0301 	orr.w	r3, r3, #1
 8003408:	627b      	str	r3, [r7, #36]	; 0x24

    /* Clear BERR flag */
    __HAL_I2C_CLEAR_FLAG(hi2c, I2C_FLAG_BERR);
 800340a:	687b      	ldr	r3, [r7, #4]
 800340c:	681b      	ldr	r3, [r3, #0]
 800340e:	f46f 7280 	mvn.w	r2, #256	; 0x100
 8003412:	615a      	str	r2, [r3, #20]
  }

  /* I2C Arbitration Lost error interrupt occurred ---------------------------*/
  if ((I2C_CHECK_FLAG(sr1itflags, I2C_FLAG_ARLO) != RESET) && (I2C_CHECK_IT_SOURCE(itsources, I2C_IT_ERR) != RESET))
 8003414:	6a3b      	ldr	r3, [r7, #32]
 8003416:	0a5b      	lsrs	r3, r3, #9
 8003418:	f003 0301 	and.w	r3, r3, #1
 800341c:	2b00      	cmp	r3, #0
 800341e:	d00e      	beq.n	800343e <HAL_I2C_ER_IRQHandler+0x78>
 8003420:	69fb      	ldr	r3, [r7, #28]
 8003422:	0a1b      	lsrs	r3, r3, #8
 8003424:	f003 0301 	and.w	r3, r3, #1
 8003428:	2b00      	cmp	r3, #0
 800342a:	d008      	beq.n	800343e <HAL_I2C_ER_IRQHandler+0x78>
  {
    error |= HAL_I2C_ERROR_ARLO;
 800342c:	6a7b      	ldr	r3, [r7, #36]	; 0x24
 800342e:	f043 0302 	orr.w	r3, r3, #2
 8003432:	627b      	str	r3, [r7, #36]	; 0x24

    /* Clear ARLO flag */
    __HAL_I2C_CLEAR_FLAG(hi2c, I2C_FLAG_ARLO);
 8003434:	687b      	ldr	r3, [r7, #4]
 8003436:	681b      	ldr	r3, [r3, #0]
 8003438:	f46f 7200 	mvn.w	r2, #512	; 0x200
 800343c:	615a      	str	r2, [r3, #20]
  }

  /* I2C Acknowledge failure error interrupt occurred ------------------------*/
  if ((I2C_CHECK_FLAG(sr1itflags, I2C_FLAG_AF) != RESET) && (I2C_CHECK_IT_SOURCE(itsources, I2C_IT_ERR) != RESET))
 800343e:	6a3b      	ldr	r3, [r7, #32]
 8003440:	0a9b      	lsrs	r3, r3, #10
 8003442:	f003 0301 	and.w	r3, r3, #1
 8003446:	2b00      	cmp	r3, #0
 8003448:	d03f      	beq.n	80034ca <HAL_I2C_ER_IRQHandler+0x104>
 800344a:	69fb      	ldr	r3, [r7, #28]
 800344c:	0a1b      	lsrs	r3, r3, #8
 800344e:	f003 0301 	and.w	r3, r3, #1
 8003452:	2b00      	cmp	r3, #0
 8003454:	d039      	beq.n	80034ca <HAL_I2C_ER_IRQHandler+0x104>
  {
    tmp1 = CurrentMode;
 8003456:	7efb      	ldrb	r3, [r7, #27]
 8003458:	76bb      	strb	r3, [r7, #26]
    tmp2 = hi2c->XferCount;
 800345a:	687b      	ldr	r3, [r7, #4]
 800345c:	8d5b      	ldrh	r3, [r3, #42]	; 0x2a
 800345e:	b29b      	uxth	r3, r3
 8003460:	617b      	str	r3, [r7, #20]
    tmp3 = hi2c->State;
 8003462:	687b      	ldr	r3, [r7, #4]
 8003464:	f893 303d 	ldrb.w	r3, [r3, #61]	; 0x3d
 8003468:	74fb      	strb	r3, [r7, #19]
    tmp4 = hi2c->PreviousState;
 800346a:	687b      	ldr	r3, [r7, #4]
 800346c:	6b1b      	ldr	r3, [r3, #48]	; 0x30
 800346e:	60fb      	str	r3, [r7, #12]
    if ((tmp1 == HAL_I2C_MODE_SLAVE) && (tmp2 == 0U) && \
 8003470:	7ebb      	ldrb	r3, [r7, #26]
 8003472:	2b20      	cmp	r3, #32
 8003474:	d112      	bne.n	800349c <HAL_I2C_ER_IRQHandler+0xd6>
 8003476:	697b      	ldr	r3, [r7, #20]
 8003478:	2b00      	cmp	r3, #0
 800347a:	d10f      	bne.n	800349c <HAL_I2C_ER_IRQHandler+0xd6>
 800347c:	7cfb      	ldrb	r3, [r7, #19]
 800347e:	2b21      	cmp	r3, #33	; 0x21
 8003480:	d008      	beq.n	8003494 <HAL_I2C_ER_IRQHandler+0xce>
        ((tmp3 == HAL_I2C_STATE_BUSY_TX) || (tmp3 == HAL_I2C_STATE_BUSY_TX_LISTEN) || \
 8003482:	7cfb      	ldrb	r3, [r7, #19]
 8003484:	2b29      	cmp	r3, #41	; 0x29
 8003486:	d005      	beq.n	8003494 <HAL_I2C_ER_IRQHandler+0xce>
 8003488:	7cfb      	ldrb	r3, [r7, #19]
 800348a:	2b28      	cmp	r3, #40	; 0x28
 800348c:	d106      	bne.n	800349c <HAL_I2C_ER_IRQHandler+0xd6>
         ((tmp3 == HAL_I2C_STATE_LISTEN) && (tmp4 == I2C_STATE_SLAVE_BUSY_TX))))
 800348e:	68fb      	ldr	r3, [r7, #12]
 8003490:	2b21      	cmp	r3, #33	; 0x21
 8003492:	d103      	bne.n	800349c <HAL_I2C_ER_IRQHandler+0xd6>
    {
      I2C_Slave_AF(hi2c);
 8003494:	6878      	ldr	r0, [r7, #4]
 8003496:	f001 f85f 	bl	8004558 <I2C_Slave_AF>
 800349a:	e016      	b.n	80034ca <HAL_I2C_ER_IRQHandler+0x104>
    }
    else
    {
      /* Clear AF flag */
      __HAL_I2C_CLEAR_FLAG(hi2c, I2C_FLAG_AF);
 800349c:	687b      	ldr	r3, [r7, #4]
 800349e:	681b      	ldr	r3, [r3, #0]
 80034a0:	f46f 6280 	mvn.w	r2, #1024	; 0x400
 80034a4:	615a      	str	r2, [r3, #20]

      error |= HAL_I2C_ERROR_AF;
 80034a6:	6a7b      	ldr	r3, [r7, #36]	; 0x24
 80034a8:	f043 0304 	orr.w	r3, r3, #4
 80034ac:	627b      	str	r3, [r7, #36]	; 0x24

      /* Do not generate a STOP in case of Slave receive non acknowledge during transfer (mean not at the end of transfer) */
      if ((CurrentMode == HAL_I2C_MODE_MASTER) || (CurrentMode == HAL_I2C_MODE_MEM))
 80034ae:	7efb      	ldrb	r3, [r7, #27]
 80034b0:	2b10      	cmp	r3, #16
 80034b2:	d002      	beq.n	80034ba <HAL_I2C_ER_IRQHandler+0xf4>
 80034b4:	7efb      	ldrb	r3, [r7, #27]
 80034b6:	2b40      	cmp	r3, #64	; 0x40
 80034b8:	d107      	bne.n	80034ca <HAL_I2C_ER_IRQHandler+0x104>
      {
        /* Generate Stop */
        SET_BIT(hi2c->Instance->CR1, I2C_CR1_STOP);
 80034ba:	687b      	ldr	r3, [r7, #4]
 80034bc:	681b      	ldr	r3, [r3, #0]
 80034be:	681a      	ldr	r2, [r3, #0]
 80034c0:	687b      	ldr	r3, [r7, #4]
 80034c2:	681b      	ldr	r3, [r3, #0]
 80034c4:	f442 7200 	orr.w	r2, r2, #512	; 0x200
 80034c8:	601a      	str	r2, [r3, #0]
      }
    }
  }

  /* I2C Over-Run/Under-Run interrupt occurred -------------------------------*/
  if ((I2C_CHECK_FLAG(sr1itflags, I2C_FLAG_OVR) != RESET) && (I2C_CHECK_IT_SOURCE(itsources, I2C_IT_ERR) != RESET))
 80034ca:	6a3b      	ldr	r3, [r7, #32]
 80034cc:	0adb      	lsrs	r3, r3, #11
 80034ce:	f003 0301 	and.w	r3, r3, #1
 80034d2:	2b00      	cmp	r3, #0
 80034d4:	d00e      	beq.n	80034f4 <HAL_I2C_ER_IRQHandler+0x12e>
 80034d6:	69fb      	ldr	r3, [r7, #28]
 80034d8:	0a1b      	lsrs	r3, r3, #8
 80034da:	f003 0301 	and.w	r3, r3, #1
 80034de:	2b00      	cmp	r3, #0
 80034e0:	d008      	beq.n	80034f4 <HAL_I2C_ER_IRQHandler+0x12e>
  {
    error |= HAL_I2C_ERROR_OVR;
 80034e2:	6a7b      	ldr	r3, [r7, #36]	; 0x24
 80034e4:	f043 0308 	orr.w	r3, r3, #8
 80034e8:	627b      	str	r3, [r7, #36]	; 0x24
    /* Clear OVR flag */
    __HAL_I2C_CLEAR_FLAG(hi2c, I2C_FLAG_OVR);
 80034ea:	687b      	ldr	r3, [r7, #4]
 80034ec:	681b      	ldr	r3, [r3, #0]
 80034ee:	f46f 6200 	mvn.w	r2, #2048	; 0x800
 80034f2:	615a      	str	r2, [r3, #20]
  }

  /* Call the Error Callback in case of Error detected -----------------------*/
  if (error != HAL_I2C_ERROR_NONE)
 80034f4:	6a7b      	ldr	r3, [r7, #36]	; 0x24
 80034f6:	2b00      	cmp	r3, #0
 80034f8:	d008      	beq.n	800350c <HAL_I2C_ER_IRQHandler+0x146>
  {
    hi2c->ErrorCode |= error;
 80034fa:	687b      	ldr	r3, [r7, #4]
 80034fc:	6c1a      	ldr	r2, [r3, #64]	; 0x40
 80034fe:	6a7b      	ldr	r3, [r7, #36]	; 0x24
 8003500:	431a      	orrs	r2, r3
 8003502:	687b      	ldr	r3, [r7, #4]
 8003504:	641a      	str	r2, [r3, #64]	; 0x40
    I2C_ITError(hi2c);
 8003506:	6878      	ldr	r0, [r7, #4]
 8003508:	f001 f896 	bl	8004638 <I2C_ITError>
  }
}
 800350c:	bf00      	nop
 800350e:	3728      	adds	r7, #40	; 0x28
 8003510:	46bd      	mov	sp, r7
 8003512:	bd80      	pop	{r7, pc}

08003514 <HAL_I2C_MasterTxCpltCallback>:
  * @param  hi2c Pointer to a I2C_HandleTypeDef structure that contains
  *                the configuration information for the specified I2C.
  * @retval None
  */
__weak void HAL_I2C_MasterTxCpltCallback(I2C_HandleTypeDef *hi2c)
{
 8003514:	b480      	push	{r7}
 8003516:	b083      	sub	sp, #12
 8003518:	af00      	add	r7, sp, #0
 800351a:	6078      	str	r0, [r7, #4]
  UNUSED(hi2c);

  /* NOTE : This function should not be modified, when the callback is needed,
            the HAL_I2C_MasterTxCpltCallback could be implemented in the user file
   */
}
 800351c:	bf00      	nop
 800351e:	370c      	adds	r7, #12
 8003520:	46bd      	mov	sp, r7
 8003522:	f85d 7b04 	ldr.w	r7, [sp], #4
 8003526:	4770      	bx	lr

08003528 <HAL_I2C_MasterRxCpltCallback>:
  * @param  hi2c Pointer to a I2C_HandleTypeDef structure that contains
  *                the configuration information for the specified I2C.
  * @retval None
  */
__weak void HAL_I2C_MasterRxCpltCallback(I2C_HandleTypeDef *hi2c)
{
 8003528:	b480      	push	{r7}
 800352a:	b083      	sub	sp, #12
 800352c:	af00      	add	r7, sp, #0
 800352e:	6078      	str	r0, [r7, #4]
  UNUSED(hi2c);

  /* NOTE : This function should not be modified, when the callback is needed,
            the HAL_I2C_MasterRxCpltCallback could be implemented in the user file
   */
}
 8003530:	bf00      	nop
 8003532:	370c      	adds	r7, #12
 8003534:	46bd      	mov	sp, r7
 8003536:	f85d 7b04 	ldr.w	r7, [sp], #4
 800353a:	4770      	bx	lr

0800353c <HAL_I2C_SlaveTxCpltCallback>:
  * @param  hi2c Pointer to a I2C_HandleTypeDef structure that contains
  *                the configuration information for the specified I2C.
  * @retval None
  */
__weak void HAL_I2C_SlaveTxCpltCallback(I2C_HandleTypeDef *hi2c)
{
 800353c:	b480      	push	{r7}
 800353e:	b083      	sub	sp, #12
 8003540:	af00      	add	r7, sp, #0
 8003542:	6078      	str	r0, [r7, #4]
  UNUSED(hi2c);

  /* NOTE : This function should not be modified, when the callback is needed,
            the HAL_I2C_SlaveTxCpltCallback could be implemented in the user file
   */
}
 8003544:	bf00      	nop
 8003546:	370c      	adds	r7, #12
 8003548:	46bd      	mov	sp, r7
 800354a:	f85d 7b04 	ldr.w	r7, [sp], #4
 800354e:	4770      	bx	lr

08003550 <HAL_I2C_SlaveRxCpltCallback>:
  * @param  hi2c Pointer to a I2C_HandleTypeDef structure that contains
  *                the configuration information for the specified I2C.
  * @retval None
  */
__weak void HAL_I2C_SlaveRxCpltCallback(I2C_HandleTypeDef *hi2c)
{
 8003550:	b480      	push	{r7}
 8003552:	b083      	sub	sp, #12
 8003554:	af00      	add	r7, sp, #0
 8003556:	6078      	str	r0, [r7, #4]
  UNUSED(hi2c);

  /* NOTE : This function should not be modified, when the callback is needed,
            the HAL_I2C_SlaveRxCpltCallback could be implemented in the user file
   */
}
 8003558:	bf00      	nop
 800355a:	370c      	adds	r7, #12
 800355c:	46bd      	mov	sp, r7
 800355e:	f85d 7b04 	ldr.w	r7, [sp], #4
 8003562:	4770      	bx	lr

08003564 <HAL_I2C_AddrCallback>:
  * @param  TransferDirection Master request Transfer Direction (Write/Read), value of @ref I2C_XferDirection_definition
  * @param  AddrMatchCode Address Match Code
  * @retval None
  */
__weak void HAL_I2C_AddrCallback(I2C_HandleTypeDef *hi2c, uint8_t TransferDirection, uint16_t AddrMatchCode)
{
 8003564:	b480      	push	{r7}
 8003566:	b083      	sub	sp, #12
 8003568:	af00      	add	r7, sp, #0
 800356a:	6078      	str	r0, [r7, #4]
 800356c:	460b      	mov	r3, r1
 800356e:	70fb      	strb	r3, [r7, #3]
 8003570:	4613      	mov	r3, r2
 8003572:	803b      	strh	r3, [r7, #0]
  UNUSED(AddrMatchCode);

  /* NOTE : This function should not be modified, when the callback is needed,
            the HAL_I2C_AddrCallback() could be implemented in the user file
   */
}
 8003574:	bf00      	nop
 8003576:	370c      	adds	r7, #12
 8003578:	46bd      	mov	sp, r7
 800357a:	f85d 7b04 	ldr.w	r7, [sp], #4
 800357e:	4770      	bx	lr

08003580 <HAL_I2C_ListenCpltCallback>:
  * @param  hi2c Pointer to a I2C_HandleTypeDef structure that contains
  *                the configuration information for the specified I2C.
  * @retval None
  */
__weak void HAL_I2C_ListenCpltCallback(I2C_HandleTypeDef *hi2c)
{
 8003580:	b480      	push	{r7}
 8003582:	b083      	sub	sp, #12
 8003584:	af00      	add	r7, sp, #0
 8003586:	6078      	str	r0, [r7, #4]
  UNUSED(hi2c);

  /* NOTE : This function should not be modified, when the callback is needed,
            the HAL_I2C_ListenCpltCallback() could be implemented in the user file
  */
}
 8003588:	bf00      	nop
 800358a:	370c      	adds	r7, #12
 800358c:	46bd      	mov	sp, r7
 800358e:	f85d 7b04 	ldr.w	r7, [sp], #4
 8003592:	4770      	bx	lr

08003594 <HAL_I2C_MemTxCpltCallback>:
  * @param  hi2c Pointer to a I2C_HandleTypeDef structure that contains
  *                the configuration information for the specified I2C.
  * @retval None
  */
__weak void HAL_I2C_MemTxCpltCallback(I2C_HandleTypeDef *hi2c)
{
 8003594:	b480      	push	{r7}
 8003596:	b083      	sub	sp, #12
 8003598:	af00      	add	r7, sp, #0
 800359a:	6078      	str	r0, [r7, #4]
  UNUSED(hi2c);

  /* NOTE : This function should not be modified, when the callback is needed,
            the HAL_I2C_MemTxCpltCallback could be implemented in the user file
   */
}
 800359c:	bf00      	nop
 800359e:	370c      	adds	r7, #12
 80035a0:	46bd      	mov	sp, r7
 80035a2:	f85d 7b04 	ldr.w	r7, [sp], #4
 80035a6:	4770      	bx	lr

080035a8 <HAL_I2C_MemRxCpltCallback>:
  * @param  hi2c Pointer to a I2C_HandleTypeDef structure that contains
  *                the configuration information for the specified I2C.
  * @retval None
  */
__weak void HAL_I2C_MemRxCpltCallback(I2C_HandleTypeDef *hi2c)
{
 80035a8:	b480      	push	{r7}
 80035aa:	b083      	sub	sp, #12
 80035ac:	af00      	add	r7, sp, #0
 80035ae:	6078      	str	r0, [r7, #4]
  UNUSED(hi2c);

  /* NOTE : This function should not be modified, when the callback is needed,
            the HAL_I2C_MemRxCpltCallback could be implemented in the user file
   */
}
 80035b0:	bf00      	nop
 80035b2:	370c      	adds	r7, #12
 80035b4:	46bd      	mov	sp, r7
 80035b6:	f85d 7b04 	ldr.w	r7, [sp], #4
 80035ba:	4770      	bx	lr

080035bc <HAL_I2C_ErrorCallback>:
  * @param  hi2c Pointer to a I2C_HandleTypeDef structure that contains
  *                the configuration information for the specified I2C.
  * @retval None
  */
__weak void HAL_I2C_ErrorCallback(I2C_HandleTypeDef *hi2c)
{
 80035bc:	b480      	push	{r7}
 80035be:	b083      	sub	sp, #12
 80035c0:	af00      	add	r7, sp, #0
 80035c2:	6078      	str	r0, [r7, #4]
  UNUSED(hi2c);

  /* NOTE : This function should not be modified, when the callback is needed,
            the HAL_I2C_ErrorCallback could be implemented in the user file
   */
}
 80035c4:	bf00      	nop
 80035c6:	370c      	adds	r7, #12
 80035c8:	46bd      	mov	sp, r7
 80035ca:	f85d 7b04 	ldr.w	r7, [sp], #4
 80035ce:	4770      	bx	lr

080035d0 <HAL_I2C_AbortCpltCallback>:
  * @param  hi2c Pointer to a I2C_HandleTypeDef structure that contains
  *                the configuration information for the specified I2C.
  * @retval None
  */
__weak void HAL_I2C_AbortCpltCallback(I2C_HandleTypeDef *hi2c)
{
 80035d0:	b480      	push	{r7}
 80035d2:	b083      	sub	sp, #12
 80035d4:	af00      	add	r7, sp, #0
 80035d6:	6078      	str	r0, [r7, #4]
  UNUSED(hi2c);

  /* NOTE : This function should not be modified, when the callback is needed,
            the HAL_I2C_AbortCpltCallback could be implemented in the user file
   */
}
 80035d8:	bf00      	nop
 80035da:	370c      	adds	r7, #12
 80035dc:	46bd      	mov	sp, r7
 80035de:	f85d 7b04 	ldr.w	r7, [sp], #4
 80035e2:	4770      	bx	lr

080035e4 <I2C_MasterTransmit_TXE>:
  * @param  hi2c Pointer to a I2C_HandleTypeDef structure that contains
  *         the configuration information for I2C module
  * @retval None
  */
static void I2C_MasterTransmit_TXE(I2C_HandleTypeDef *hi2c)
{
 80035e4:	b580      	push	{r7, lr}
 80035e6:	b084      	sub	sp, #16
 80035e8:	af00      	add	r7, sp, #0
 80035ea:	6078      	str	r0, [r7, #4]
  /* Declaration of temporary variables to prevent undefined behavior of volatile usage */
  HAL_I2C_StateTypeDef CurrentState = hi2c->State;
 80035ec:	687b      	ldr	r3, [r7, #4]
 80035ee:	f893 303d 	ldrb.w	r3, [r3, #61]	; 0x3d
 80035f2:	73fb      	strb	r3, [r7, #15]
  HAL_I2C_ModeTypeDef CurrentMode   = hi2c->Mode;
 80035f4:	687b      	ldr	r3, [r7, #4]
 80035f6:	f893 303e 	ldrb.w	r3, [r3, #62]	; 0x3e
 80035fa:	73bb      	strb	r3, [r7, #14]
  uint32_t CurrentXferOptions       = hi2c->XferOptions;
 80035fc:	687b      	ldr	r3, [r7, #4]
 80035fe:	6adb      	ldr	r3, [r3, #44]	; 0x2c
 8003600:	60bb      	str	r3, [r7, #8]

  if ((hi2c->XferSize == 0U) && (CurrentState == HAL_I2C_STATE_BUSY_TX))
 8003602:	687b      	ldr	r3, [r7, #4]
 8003604:	8d1b      	ldrh	r3, [r3, #40]	; 0x28
 8003606:	2b00      	cmp	r3, #0
 8003608:	d150      	bne.n	80036ac <I2C_MasterTransmit_TXE+0xc8>
 800360a:	7bfb      	ldrb	r3, [r7, #15]
 800360c:	2b21      	cmp	r3, #33	; 0x21
 800360e:	d14d      	bne.n	80036ac <I2C_MasterTransmit_TXE+0xc8>
  {
    /* Call TxCpltCallback() directly if no stop mode is set */
    if ((CurrentXferOptions != I2C_FIRST_AND_LAST_FRAME) && (CurrentXferOptions != I2C_LAST_FRAME) && (CurrentXferOptions != I2C_NO_OPTION_FRAME))
 8003610:	68bb      	ldr	r3, [r7, #8]
 8003612:	2b08      	cmp	r3, #8
 8003614:	d01d      	beq.n	8003652 <I2C_MasterTransmit_TXE+0x6e>
 8003616:	68bb      	ldr	r3, [r7, #8]
 8003618:	2b20      	cmp	r3, #32
 800361a:	d01a      	beq.n	8003652 <I2C_MasterTransmit_TXE+0x6e>
 800361c:	68bb      	ldr	r3, [r7, #8]
 800361e:	f513 3f80 	cmn.w	r3, #65536	; 0x10000
 8003622:	d016      	beq.n	8003652 <I2C_MasterTransmit_TXE+0x6e>
    {
      __HAL_I2C_DISABLE_IT(hi2c, I2C_IT_EVT | I2C_IT_BUF | I2C_IT_ERR);
 8003624:	687b      	ldr	r3, [r7, #4]
 8003626:	681b      	ldr	r3, [r3, #0]
 8003628:	685a      	ldr	r2, [r3, #4]
 800362a:	687b      	ldr	r3, [r7, #4]
 800362c:	681b      	ldr	r3, [r3, #0]
 800362e:	f422 62e0 	bic.w	r2, r2, #1792	; 0x700
 8003632:	605a      	str	r2, [r3, #4]

      hi2c->PreviousState = I2C_STATE_MASTER_BUSY_TX;
 8003634:	687b      	ldr	r3, [r7, #4]
 8003636:	2211      	movs	r2, #17
 8003638:	631a      	str	r2, [r3, #48]	; 0x30
      hi2c->Mode = HAL_I2C_MODE_NONE;
 800363a:	687b      	ldr	r3, [r7, #4]
 800363c:	2200      	movs	r2, #0
 800363e:	f883 203e 	strb.w	r2, [r3, #62]	; 0x3e
      hi2c->State = HAL_I2C_STATE_READY;
 8003642:	687b      	ldr	r3, [r7, #4]
 8003644:	2220      	movs	r2, #32
 8003646:	f883 203d 	strb.w	r2, [r3, #61]	; 0x3d

#if (USE_HAL_I2C_REGISTER_CALLBACKS == 1)
      hi2c->MasterTxCpltCallback(hi2c);
#else
      HAL_I2C_MasterTxCpltCallback(hi2c);
 800364a:	6878      	ldr	r0, [r7, #4]
 800364c:	f7ff ff62 	bl	8003514 <HAL_I2C_MasterTxCpltCallback>
    if ((CurrentXferOptions != I2C_FIRST_AND_LAST_FRAME) && (CurrentXferOptions != I2C_LAST_FRAME) && (CurrentXferOptions != I2C_NO_OPTION_FRAME))
 8003650:	e060      	b.n	8003714 <I2C_MasterTransmit_TXE+0x130>
#endif /* USE_HAL_I2C_REGISTER_CALLBACKS */
    }
    else /* Generate Stop condition then Call TxCpltCallback() */
    {
      /* Disable EVT, BUF and ERR interrupt */
      __HAL_I2C_DISABLE_IT(hi2c, I2C_IT_EVT | I2C_IT_BUF | I2C_IT_ERR);
 8003652:	687b      	ldr	r3, [r7, #4]
 8003654:	681b      	ldr	r3, [r3, #0]
 8003656:	685a      	ldr	r2, [r3, #4]
 8003658:	687b      	ldr	r3, [r7, #4]
 800365a:	681b      	ldr	r3, [r3, #0]
 800365c:	f422 62e0 	bic.w	r2, r2, #1792	; 0x700
 8003660:	605a      	str	r2, [r3, #4]

      /* Generate Stop */
      SET_BIT(hi2c->Instance->CR1, I2C_CR1_STOP);
 8003662:	687b      	ldr	r3, [r7, #4]
 8003664:	681b      	ldr	r3, [r3, #0]
 8003666:	681a      	ldr	r2, [r3, #0]
 8003668:	687b      	ldr	r3, [r7, #4]
 800366a:	681b      	ldr	r3, [r3, #0]
 800366c:	f442 7200 	orr.w	r2, r2, #512	; 0x200
 8003670:	601a      	str	r2, [r3, #0]

      hi2c->PreviousState = I2C_STATE_NONE;
 8003672:	687b      	ldr	r3, [r7, #4]
 8003674:	2200      	movs	r2, #0
 8003676:	631a      	str	r2, [r3, #48]	; 0x30
      hi2c->State = HAL_I2C_STATE_READY;
 8003678:	687b      	ldr	r3, [r7, #4]
 800367a:	2220      	movs	r2, #32
 800367c:	f883 203d 	strb.w	r2, [r3, #61]	; 0x3d

      if (hi2c->Mode == HAL_I2C_MODE_MEM)
 8003680:	687b      	ldr	r3, [r7, #4]
 8003682:	f893 303e 	ldrb.w	r3, [r3, #62]	; 0x3e
 8003686:	b2db      	uxtb	r3, r3
 8003688:	2b40      	cmp	r3, #64	; 0x40
 800368a:	d107      	bne.n	800369c <I2C_MasterTransmit_TXE+0xb8>
      {
        hi2c->Mode = HAL_I2C_MODE_NONE;
 800368c:	687b      	ldr	r3, [r7, #4]
 800368e:	2200      	movs	r2, #0
 8003690:	f883 203e 	strb.w	r2, [r3, #62]	; 0x3e
#if (USE_HAL_I2C_REGISTER_CALLBACKS == 1)
        hi2c->MemTxCpltCallback(hi2c);
#else
        HAL_I2C_MemTxCpltCallback(hi2c);
 8003694:	6878      	ldr	r0, [r7, #4]
 8003696:	f7ff ff7d 	bl	8003594 <HAL_I2C_MemTxCpltCallback>
    if ((CurrentXferOptions != I2C_FIRST_AND_LAST_FRAME) && (CurrentXferOptions != I2C_LAST_FRAME) && (CurrentXferOptions != I2C_NO_OPTION_FRAME))
 800369a:	e03b      	b.n	8003714 <I2C_MasterTransmit_TXE+0x130>
#endif /* USE_HAL_I2C_REGISTER_CALLBACKS */
      }
      else
      {
        hi2c->Mode = HAL_I2C_MODE_NONE;
 800369c:	687b      	ldr	r3, [r7, #4]
 800369e:	2200      	movs	r2, #0
 80036a0:	f883 203e 	strb.w	r2, [r3, #62]	; 0x3e
#if (USE_HAL_I2C_REGISTER_CALLBACKS == 1)
        hi2c->MasterTxCpltCallback(hi2c);
#else
        HAL_I2C_MasterTxCpltCallback(hi2c);
 80036a4:	6878      	ldr	r0, [r7, #4]
 80036a6:	f7ff ff35 	bl	8003514 <HAL_I2C_MasterTxCpltCallback>
    if ((CurrentXferOptions != I2C_FIRST_AND_LAST_FRAME) && (CurrentXferOptions != I2C_LAST_FRAME) && (CurrentXferOptions != I2C_NO_OPTION_FRAME))
 80036aa:	e033      	b.n	8003714 <I2C_MasterTransmit_TXE+0x130>
#endif /* USE_HAL_I2C_REGISTER_CALLBACKS */
      }
    }
  }
  else if ((CurrentState == HAL_I2C_STATE_BUSY_TX) || \
 80036ac:	7bfb      	ldrb	r3, [r7, #15]
 80036ae:	2b21      	cmp	r3, #33	; 0x21
 80036b0:	d005      	beq.n	80036be <I2C_MasterTransmit_TXE+0xda>
 80036b2:	7bbb      	ldrb	r3, [r7, #14]
 80036b4:	2b40      	cmp	r3, #64	; 0x40
 80036b6:	d12d      	bne.n	8003714 <I2C_MasterTransmit_TXE+0x130>
           ((CurrentMode == HAL_I2C_MODE_MEM) && (CurrentState == HAL_I2C_STATE_BUSY_RX)))
 80036b8:	7bfb      	ldrb	r3, [r7, #15]
 80036ba:	2b22      	cmp	r3, #34	; 0x22
 80036bc:	d12a      	bne.n	8003714 <I2C_MasterTransmit_TXE+0x130>
  {
    if (hi2c->XferCount == 0U)
 80036be:	687b      	ldr	r3, [r7, #4]
 80036c0:	8d5b      	ldrh	r3, [r3, #42]	; 0x2a
 80036c2:	b29b      	uxth	r3, r3
 80036c4:	2b00      	cmp	r3, #0
 80036c6:	d108      	bne.n	80036da <I2C_MasterTransmit_TXE+0xf6>
    {
      /* Disable BUF interrupt */
      __HAL_I2C_DISABLE_IT(hi2c, I2C_IT_BUF);
 80036c8:	687b      	ldr	r3, [r7, #4]
 80036ca:	681b      	ldr	r3, [r3, #0]
 80036cc:	685a      	ldr	r2, [r3, #4]
 80036ce:	687b      	ldr	r3, [r7, #4]
 80036d0:	681b      	ldr	r3, [r3, #0]
 80036d2:	f422 6280 	bic.w	r2, r2, #1024	; 0x400
 80036d6:	605a      	str	r2, [r3, #4]
  }
  else
  {
    /* Do nothing */
  }
}
 80036d8:	e01c      	b.n	8003714 <I2C_MasterTransmit_TXE+0x130>
      if (hi2c->Mode == HAL_I2C_MODE_MEM)
 80036da:	687b      	ldr	r3, [r7, #4]
 80036dc:	f893 303e 	ldrb.w	r3, [r3, #62]	; 0x3e
 80036e0:	b2db      	uxtb	r3, r3
 80036e2:	2b40      	cmp	r3, #64	; 0x40
 80036e4:	d103      	bne.n	80036ee <I2C_MasterTransmit_TXE+0x10a>
        I2C_MemoryTransmit_TXE_BTF(hi2c);
 80036e6:	6878      	ldr	r0, [r7, #4]
 80036e8:	f000 f88e 	bl	8003808 <I2C_MemoryTransmit_TXE_BTF>
}
 80036ec:	e012      	b.n	8003714 <I2C_MasterTransmit_TXE+0x130>
        hi2c->Instance->DR = *hi2c->pBuffPtr;
 80036ee:	687b      	ldr	r3, [r7, #4]
 80036f0:	6a5b      	ldr	r3, [r3, #36]	; 0x24
 80036f2:	781a      	ldrb	r2, [r3, #0]
 80036f4:	687b      	ldr	r3, [r7, #4]
 80036f6:	681b      	ldr	r3, [r3, #0]
 80036f8:	611a      	str	r2, [r3, #16]
        hi2c->pBuffPtr++;
 80036fa:	687b      	ldr	r3, [r7, #4]
 80036fc:	6a5b      	ldr	r3, [r3, #36]	; 0x24
 80036fe:	1c5a      	adds	r2, r3, #1
 8003700:	687b      	ldr	r3, [r7, #4]
 8003702:	625a      	str	r2, [r3, #36]	; 0x24
        hi2c->XferCount--;
 8003704:	687b      	ldr	r3, [r7, #4]
 8003706:	8d5b      	ldrh	r3, [r3, #42]	; 0x2a
 8003708:	b29b      	uxth	r3, r3
 800370a:	3b01      	subs	r3, #1
 800370c:	b29a      	uxth	r2, r3
 800370e:	687b      	ldr	r3, [r7, #4]
 8003710:	855a      	strh	r2, [r3, #42]	; 0x2a
}
 8003712:	e7ff      	b.n	8003714 <I2C_MasterTransmit_TXE+0x130>
 8003714:	bf00      	nop
 8003716:	3710      	adds	r7, #16
 8003718:	46bd      	mov	sp, r7
 800371a:	bd80      	pop	{r7, pc}

0800371c <I2C_MasterTransmit_BTF>:
  * @param  hi2c Pointer to a I2C_HandleTypeDef structure that contains
  *         the configuration information for I2C module
  * @retval None
  */
static void I2C_MasterTransmit_BTF(I2C_HandleTypeDef *hi2c)
{
 800371c:	b580      	push	{r7, lr}
 800371e:	b084      	sub	sp, #16
 8003720:	af00      	add	r7, sp, #0
 8003722:	6078      	str	r0, [r7, #4]
  /* Declaration of temporary variables to prevent undefined behavior of volatile usage */
  uint32_t CurrentXferOptions = hi2c->XferOptions;
 8003724:	687b      	ldr	r3, [r7, #4]
 8003726:	6adb      	ldr	r3, [r3, #44]	; 0x2c
 8003728:	60fb      	str	r3, [r7, #12]

  if (hi2c->State == HAL_I2C_STATE_BUSY_TX)
 800372a:	687b      	ldr	r3, [r7, #4]
 800372c:	f893 303d 	ldrb.w	r3, [r3, #61]	; 0x3d
 8003730:	b2db      	uxtb	r3, r3
 8003732:	2b21      	cmp	r3, #33	; 0x21
 8003734:	d164      	bne.n	8003800 <I2C_MasterTransmit_BTF+0xe4>
  {
    if (hi2c->XferCount != 0U)
 8003736:	687b      	ldr	r3, [r7, #4]
 8003738:	8d5b      	ldrh	r3, [r3, #42]	; 0x2a
 800373a:	b29b      	uxth	r3, r3
 800373c:	2b00      	cmp	r3, #0
 800373e:	d012      	beq.n	8003766 <I2C_MasterTransmit_BTF+0x4a>
    {
      /* Write data to DR */
      hi2c->Instance->DR = *hi2c->pBuffPtr;
 8003740:	687b      	ldr	r3, [r7, #4]
 8003742:	6a5b      	ldr	r3, [r3, #36]	; 0x24
 8003744:	781a      	ldrb	r2, [r3, #0]
 8003746:	687b      	ldr	r3, [r7, #4]
 8003748:	681b      	ldr	r3, [r3, #0]
 800374a:	611a      	str	r2, [r3, #16]

      /* Increment Buffer pointer */
      hi2c->pBuffPtr++;
 800374c:	687b      	ldr	r3, [r7, #4]
 800374e:	6a5b      	ldr	r3, [r3, #36]	; 0x24
 8003750:	1c5a      	adds	r2, r3, #1
 8003752:	687b      	ldr	r3, [r7, #4]
 8003754:	625a      	str	r2, [r3, #36]	; 0x24

      /* Update counter */
      hi2c->XferCount--;
 8003756:	687b      	ldr	r3, [r7, #4]
 8003758:	8d5b      	ldrh	r3, [r3, #42]	; 0x2a
 800375a:	b29b      	uxth	r3, r3
 800375c:	3b01      	subs	r3, #1
 800375e:	b29a      	uxth	r2, r3
 8003760:	687b      	ldr	r3, [r7, #4]
 8003762:	855a      	strh	r2, [r3, #42]	; 0x2a
  }
  else
  {
    /* Do nothing */
  }
}
 8003764:	e04c      	b.n	8003800 <I2C_MasterTransmit_BTF+0xe4>
      if ((CurrentXferOptions != I2C_FIRST_AND_LAST_FRAME) && (CurrentXferOptions != I2C_LAST_FRAME) && (CurrentXferOptions != I2C_NO_OPTION_FRAME))
 8003766:	68fb      	ldr	r3, [r7, #12]
 8003768:	2b08      	cmp	r3, #8
 800376a:	d01d      	beq.n	80037a8 <I2C_MasterTransmit_BTF+0x8c>
 800376c:	68fb      	ldr	r3, [r7, #12]
 800376e:	2b20      	cmp	r3, #32
 8003770:	d01a      	beq.n	80037a8 <I2C_MasterTransmit_BTF+0x8c>
 8003772:	68fb      	ldr	r3, [r7, #12]
 8003774:	f513 3f80 	cmn.w	r3, #65536	; 0x10000
 8003778:	d016      	beq.n	80037a8 <I2C_MasterTransmit_BTF+0x8c>
        __HAL_I2C_DISABLE_IT(hi2c, I2C_IT_EVT | I2C_IT_BUF | I2C_IT_ERR);
 800377a:	687b      	ldr	r3, [r7, #4]
 800377c:	681b      	ldr	r3, [r3, #0]
 800377e:	685a      	ldr	r2, [r3, #4]
 8003780:	687b      	ldr	r3, [r7, #4]
 8003782:	681b      	ldr	r3, [r3, #0]
 8003784:	f422 62e0 	bic.w	r2, r2, #1792	; 0x700
 8003788:	605a      	str	r2, [r3, #4]
        hi2c->PreviousState = I2C_STATE_MASTER_BUSY_TX;
 800378a:	687b      	ldr	r3, [r7, #4]
 800378c:	2211      	movs	r2, #17
 800378e:	631a      	str	r2, [r3, #48]	; 0x30
        hi2c->Mode = HAL_I2C_MODE_NONE;
 8003790:	687b      	ldr	r3, [r7, #4]
 8003792:	2200      	movs	r2, #0
 8003794:	f883 203e 	strb.w	r2, [r3, #62]	; 0x3e
        hi2c->State = HAL_I2C_STATE_READY;
 8003798:	687b      	ldr	r3, [r7, #4]
 800379a:	2220      	movs	r2, #32
 800379c:	f883 203d 	strb.w	r2, [r3, #61]	; 0x3d
        HAL_I2C_MasterTxCpltCallback(hi2c);
 80037a0:	6878      	ldr	r0, [r7, #4]
 80037a2:	f7ff feb7 	bl	8003514 <HAL_I2C_MasterTxCpltCallback>
}
 80037a6:	e02b      	b.n	8003800 <I2C_MasterTransmit_BTF+0xe4>
        __HAL_I2C_DISABLE_IT(hi2c, I2C_IT_EVT | I2C_IT_BUF | I2C_IT_ERR);
 80037a8:	687b      	ldr	r3, [r7, #4]
 80037aa:	681b      	ldr	r3, [r3, #0]
 80037ac:	685a      	ldr	r2, [r3, #4]
 80037ae:	687b      	ldr	r3, [r7, #4]
 80037b0:	681b      	ldr	r3, [r3, #0]
 80037b2:	f422 62e0 	bic.w	r2, r2, #1792	; 0x700
 80037b6:	605a      	str	r2, [r3, #4]
        SET_BIT(hi2c->Instance->CR1, I2C_CR1_STOP);
 80037b8:	687b      	ldr	r3, [r7, #4]
 80037ba:	681b      	ldr	r3, [r3, #0]
 80037bc:	681a      	ldr	r2, [r3, #0]
 80037be:	687b      	ldr	r3, [r7, #4]
 80037c0:	681b      	ldr	r3, [r3, #0]
 80037c2:	f442 7200 	orr.w	r2, r2, #512	; 0x200
 80037c6:	601a      	str	r2, [r3, #0]
        hi2c->PreviousState = I2C_STATE_NONE;
 80037c8:	687b      	ldr	r3, [r7, #4]
 80037ca:	2200      	movs	r2, #0
 80037cc:	631a      	str	r2, [r3, #48]	; 0x30
        hi2c->State = HAL_I2C_STATE_READY;
 80037ce:	687b      	ldr	r3, [r7, #4]
 80037d0:	2220      	movs	r2, #32
 80037d2:	f883 203d 	strb.w	r2, [r3, #61]	; 0x3d
        if (hi2c->Mode == HAL_I2C_MODE_MEM)
 80037d6:	687b      	ldr	r3, [r7, #4]
 80037d8:	f893 303e 	ldrb.w	r3, [r3, #62]	; 0x3e
 80037dc:	b2db      	uxtb	r3, r3
 80037de:	2b40      	cmp	r3, #64	; 0x40
 80037e0:	d107      	bne.n	80037f2 <I2C_MasterTransmit_BTF+0xd6>
          hi2c->Mode = HAL_I2C_MODE_NONE;
 80037e2:	687b      	ldr	r3, [r7, #4]
 80037e4:	2200      	movs	r2, #0
 80037e6:	f883 203e 	strb.w	r2, [r3, #62]	; 0x3e
          HAL_I2C_MemTxCpltCallback(hi2c);
 80037ea:	6878      	ldr	r0, [r7, #4]
 80037ec:	f7ff fed2 	bl	8003594 <HAL_I2C_MemTxCpltCallback>
}
 80037f0:	e006      	b.n	8003800 <I2C_MasterTransmit_BTF+0xe4>
          hi2c->Mode = HAL_I2C_MODE_NONE;
 80037f2:	687b      	ldr	r3, [r7, #4]
 80037f4:	2200      	movs	r2, #0
 80037f6:	f883 203e 	strb.w	r2, [r3, #62]	; 0x3e
          HAL_I2C_MasterTxCpltCallback(hi2c);
 80037fa:	6878      	ldr	r0, [r7, #4]
 80037fc:	f7ff fe8a 	bl	8003514 <HAL_I2C_MasterTxCpltCallback>
}
 8003800:	bf00      	nop
 8003802:	3710      	adds	r7, #16
 8003804:	46bd      	mov	sp, r7
 8003806:	bd80      	pop	{r7, pc}

08003808 <I2C_MemoryTransmit_TXE_BTF>:
  * @param  hi2c Pointer to a I2C_HandleTypeDef structure that contains
  *         the configuration information for I2C module
  * @retval None
  */
static void I2C_MemoryTransmit_TXE_BTF(I2C_HandleTypeDef *hi2c)
{
 8003808:	b580      	push	{r7, lr}
 800380a:	b084      	sub	sp, #16
 800380c:	af00      	add	r7, sp, #0
 800380e:	6078      	str	r0, [r7, #4]
  /* Declaration of temporary variables to prevent undefined behavior of volatile usage */
  HAL_I2C_StateTypeDef CurrentState = hi2c->State;
 8003810:	687b      	ldr	r3, [r7, #4]
 8003812:	f893 303d 	ldrb.w	r3, [r3, #61]	; 0x3d
 8003816:	73fb      	strb	r3, [r7, #15]

  if (hi2c->EventCount == 0U)
 8003818:	687b      	ldr	r3, [r7, #4]
 800381a:	6d1b      	ldr	r3, [r3, #80]	; 0x50
 800381c:	2b00      	cmp	r3, #0
 800381e:	d11d      	bne.n	800385c <I2C_MemoryTransmit_TXE_BTF+0x54>
  {
    /* If Memory address size is 8Bit */
    if (hi2c->MemaddSize == I2C_MEMADD_SIZE_8BIT)
 8003820:	687b      	ldr	r3, [r7, #4]
 8003822:	6cdb      	ldr	r3, [r3, #76]	; 0x4c
 8003824:	2b01      	cmp	r3, #1
 8003826:	d10b      	bne.n	8003840 <I2C_MemoryTransmit_TXE_BTF+0x38>
    {
      /* Send Memory Address */
      hi2c->Instance->DR = I2C_MEM_ADD_LSB(hi2c->Memaddress);
 8003828:	687b      	ldr	r3, [r7, #4]
 800382a:	6c9b      	ldr	r3, [r3, #72]	; 0x48
 800382c:	b2da      	uxtb	r2, r3
 800382e:	687b      	ldr	r3, [r7, #4]
 8003830:	681b      	ldr	r3, [r3, #0]
 8003832:	611a      	str	r2, [r3, #16]

      hi2c->EventCount += 2U;
 8003834:	687b      	ldr	r3, [r7, #4]
 8003836:	6d1b      	ldr	r3, [r3, #80]	; 0x50
 8003838:	1c9a      	adds	r2, r3, #2
 800383a:	687b      	ldr	r3, [r7, #4]
 800383c:	651a      	str	r2, [r3, #80]	; 0x50
  }
  else
  {
    /* Do nothing */
  }
}
 800383e:	e073      	b.n	8003928 <I2C_MemoryTransmit_TXE_BTF+0x120>
      hi2c->Instance->DR = I2C_MEM_ADD_MSB(hi2c->Memaddress);
 8003840:	687b      	ldr	r3, [r7, #4]
 8003842:	6c9b      	ldr	r3, [r3, #72]	; 0x48
 8003844:	b29b      	uxth	r3, r3
 8003846:	121b      	asrs	r3, r3, #8
 8003848:	b2da      	uxtb	r2, r3
 800384a:	687b      	ldr	r3, [r7, #4]
 800384c:	681b      	ldr	r3, [r3, #0]
 800384e:	611a      	str	r2, [r3, #16]
      hi2c->EventCount++;
 8003850:	687b      	ldr	r3, [r7, #4]
 8003852:	6d1b      	ldr	r3, [r3, #80]	; 0x50
 8003854:	1c5a      	adds	r2, r3, #1
 8003856:	687b      	ldr	r3, [r7, #4]
 8003858:	651a      	str	r2, [r3, #80]	; 0x50
}
 800385a:	e065      	b.n	8003928 <I2C_MemoryTransmit_TXE_BTF+0x120>
  else if (hi2c->EventCount == 1U)
 800385c:	687b      	ldr	r3, [r7, #4]
 800385e:	6d1b      	ldr	r3, [r3, #80]	; 0x50
 8003860:	2b01      	cmp	r3, #1
 8003862:	d10b      	bne.n	800387c <I2C_MemoryTransmit_TXE_BTF+0x74>
    hi2c->Instance->DR = I2C_MEM_ADD_LSB(hi2c->Memaddress);
 8003864:	687b      	ldr	r3, [r7, #4]
 8003866:	6c9b      	ldr	r3, [r3, #72]	; 0x48
 8003868:	b2da      	uxtb	r2, r3
 800386a:	687b      	ldr	r3, [r7, #4]
 800386c:	681b      	ldr	r3, [r3, #0]
 800386e:	611a      	str	r2, [r3, #16]
    hi2c->EventCount++;
 8003870:	687b      	ldr	r3, [r7, #4]
 8003872:	6d1b      	ldr	r3, [r3, #80]	; 0x50
 8003874:	1c5a      	adds	r2, r3, #1
 8003876:	687b      	ldr	r3, [r7, #4]
 8003878:	651a      	str	r2, [r3, #80]	; 0x50
}
 800387a:	e055      	b.n	8003928 <I2C_MemoryTransmit_TXE_BTF+0x120>
  else if (hi2c->EventCount == 2U)
 800387c:	687b      	ldr	r3, [r7, #4]
 800387e:	6d1b      	ldr	r3, [r3, #80]	; 0x50
 8003880:	2b02      	cmp	r3, #2
 8003882:	d151      	bne.n	8003928 <I2C_MemoryTransmit_TXE_BTF+0x120>
    if (CurrentState == HAL_I2C_STATE_BUSY_RX)
 8003884:	7bfb      	ldrb	r3, [r7, #15]
 8003886:	2b22      	cmp	r3, #34	; 0x22
 8003888:	d10d      	bne.n	80038a6 <I2C_MemoryTransmit_TXE_BTF+0x9e>
      hi2c->Instance->CR1 |= I2C_CR1_START;
 800388a:	687b      	ldr	r3, [r7, #4]
 800388c:	681b      	ldr	r3, [r3, #0]
 800388e:	681a      	ldr	r2, [r3, #0]
 8003890:	687b      	ldr	r3, [r7, #4]
 8003892:	681b      	ldr	r3, [r3, #0]
 8003894:	f442 7280 	orr.w	r2, r2, #256	; 0x100
 8003898:	601a      	str	r2, [r3, #0]
      hi2c->EventCount++;
 800389a:	687b      	ldr	r3, [r7, #4]
 800389c:	6d1b      	ldr	r3, [r3, #80]	; 0x50
 800389e:	1c5a      	adds	r2, r3, #1
 80038a0:	687b      	ldr	r3, [r7, #4]
 80038a2:	651a      	str	r2, [r3, #80]	; 0x50
}
 80038a4:	e040      	b.n	8003928 <I2C_MemoryTransmit_TXE_BTF+0x120>
    else if ((hi2c->XferCount > 0U) && (CurrentState == HAL_I2C_STATE_BUSY_TX))
 80038a6:	687b      	ldr	r3, [r7, #4]
 80038a8:	8d5b      	ldrh	r3, [r3, #42]	; 0x2a
 80038aa:	b29b      	uxth	r3, r3
 80038ac:	2b00      	cmp	r3, #0
 80038ae:	d015      	beq.n	80038dc <I2C_MemoryTransmit_TXE_BTF+0xd4>
 80038b0:	7bfb      	ldrb	r3, [r7, #15]
 80038b2:	2b21      	cmp	r3, #33	; 0x21
 80038b4:	d112      	bne.n	80038dc <I2C_MemoryTransmit_TXE_BTF+0xd4>
      hi2c->Instance->DR = *hi2c->pBuffPtr;
 80038b6:	687b      	ldr	r3, [r7, #4]
 80038b8:	6a5b      	ldr	r3, [r3, #36]	; 0x24
 80038ba:	781a      	ldrb	r2, [r3, #0]
 80038bc:	687b      	ldr	r3, [r7, #4]
 80038be:	681b      	ldr	r3, [r3, #0]
 80038c0:	611a      	str	r2, [r3, #16]
      hi2c->pBuffPtr++;
 80038c2:	687b      	ldr	r3, [r7, #4]
 80038c4:	6a5b      	ldr	r3, [r3, #36]	; 0x24
 80038c6:	1c5a      	adds	r2, r3, #1
 80038c8:	687b      	ldr	r3, [r7, #4]
 80038ca:	625a      	str	r2, [r3, #36]	; 0x24
      hi2c->XferCount--;
 80038cc:	687b      	ldr	r3, [r7, #4]
 80038ce:	8d5b      	ldrh	r3, [r3, #42]	; 0x2a
 80038d0:	b29b      	uxth	r3, r3
 80038d2:	3b01      	subs	r3, #1
 80038d4:	b29a      	uxth	r2, r3
 80038d6:	687b      	ldr	r3, [r7, #4]
 80038d8:	855a      	strh	r2, [r3, #42]	; 0x2a
}
 80038da:	e025      	b.n	8003928 <I2C_MemoryTransmit_TXE_BTF+0x120>
    else if ((hi2c->XferCount == 0U) && (CurrentState == HAL_I2C_STATE_BUSY_TX))
 80038dc:	687b      	ldr	r3, [r7, #4]
 80038de:	8d5b      	ldrh	r3, [r3, #42]	; 0x2a
 80038e0:	b29b      	uxth	r3, r3
 80038e2:	2b00      	cmp	r3, #0
 80038e4:	d120      	bne.n	8003928 <I2C_MemoryTransmit_TXE_BTF+0x120>
 80038e6:	7bfb      	ldrb	r3, [r7, #15]
 80038e8:	2b21      	cmp	r3, #33	; 0x21
 80038ea:	d11d      	bne.n	8003928 <I2C_MemoryTransmit_TXE_BTF+0x120>
      __HAL_I2C_DISABLE_IT(hi2c, I2C_IT_EVT | I2C_IT_BUF | I2C_IT_ERR);
 80038ec:	687b      	ldr	r3, [r7, #4]
 80038ee:	681b      	ldr	r3, [r3, #0]
 80038f0:	685a      	ldr	r2, [r3, #4]
 80038f2:	687b      	ldr	r3, [r7, #4]
 80038f4:	681b      	ldr	r3, [r3, #0]
 80038f6:	f422 62e0 	bic.w	r2, r2, #1792	; 0x700
 80038fa:	605a      	str	r2, [r3, #4]
      SET_BIT(hi2c->Instance->CR1, I2C_CR1_STOP);
 80038fc:	687b      	ldr	r3, [r7, #4]
 80038fe:	681b      	ldr	r3, [r3, #0]
 8003900:	681a      	ldr	r2, [r3, #0]
 8003902:	687b      	ldr	r3, [r7, #4]
 8003904:	681b      	ldr	r3, [r3, #0]
 8003906:	f442 7200 	orr.w	r2, r2, #512	; 0x200
 800390a:	601a      	str	r2, [r3, #0]
      hi2c->PreviousState = I2C_STATE_NONE;
 800390c:	687b      	ldr	r3, [r7, #4]
 800390e:	2200      	movs	r2, #0
 8003910:	631a      	str	r2, [r3, #48]	; 0x30
      hi2c->State = HAL_I2C_STATE_READY;
 8003912:	687b      	ldr	r3, [r7, #4]
 8003914:	2220      	movs	r2, #32
 8003916:	f883 203d 	strb.w	r2, [r3, #61]	; 0x3d
      hi2c->Mode = HAL_I2C_MODE_NONE;
 800391a:	687b      	ldr	r3, [r7, #4]
 800391c:	2200      	movs	r2, #0
 800391e:	f883 203e 	strb.w	r2, [r3, #62]	; 0x3e
      HAL_I2C_MemTxCpltCallback(hi2c);
 8003922:	6878      	ldr	r0, [r7, #4]
 8003924:	f7ff fe36 	bl	8003594 <HAL_I2C_MemTxCpltCallback>
}
 8003928:	bf00      	nop
 800392a:	3710      	adds	r7, #16
 800392c:	46bd      	mov	sp, r7
 800392e:	bd80      	pop	{r7, pc}

08003930 <I2C_MasterReceive_RXNE>:
  * @param  hi2c Pointer to a I2C_HandleTypeDef structure that contains
  *         the configuration information for I2C module
  * @retval None
  */
static void I2C_MasterReceive_RXNE(I2C_HandleTypeDef *hi2c)
{
 8003930:	b580      	push	{r7, lr}
 8003932:	b084      	sub	sp, #16
 8003934:	af00      	add	r7, sp, #0
 8003936:	6078      	str	r0, [r7, #4]
  if (hi2c->State == HAL_I2C_STATE_BUSY_RX)
 8003938:	687b      	ldr	r3, [r7, #4]
 800393a:	f893 303d 	ldrb.w	r3, [r3, #61]	; 0x3d
 800393e:	b2db      	uxtb	r3, r3
 8003940:	2b22      	cmp	r3, #34	; 0x22
 8003942:	f040 80a2 	bne.w	8003a8a <I2C_MasterReceive_RXNE+0x15a>
  {
    uint32_t tmp;

    tmp = hi2c->XferCount;
 8003946:	687b      	ldr	r3, [r7, #4]
 8003948:	8d5b      	ldrh	r3, [r3, #42]	; 0x2a
 800394a:	b29b      	uxth	r3, r3
 800394c:	60fb      	str	r3, [r7, #12]
    if (tmp > 3U)
 800394e:	68fb      	ldr	r3, [r7, #12]
 8003950:	2b03      	cmp	r3, #3
 8003952:	d921      	bls.n	8003998 <I2C_MasterReceive_RXNE+0x68>
    {
      /* Read data from DR */
      *hi2c->pBuffPtr = (uint8_t)hi2c->Instance->DR;
 8003954:	687b      	ldr	r3, [r7, #4]
 8003956:	681b      	ldr	r3, [r3, #0]
 8003958:	691a      	ldr	r2, [r3, #16]
 800395a:	687b      	ldr	r3, [r7, #4]
 800395c:	6a5b      	ldr	r3, [r3, #36]	; 0x24
 800395e:	b2d2      	uxtb	r2, r2
 8003960:	701a      	strb	r2, [r3, #0]

      /* Increment Buffer pointer */
      hi2c->pBuffPtr++;
 8003962:	687b      	ldr	r3, [r7, #4]
 8003964:	6a5b      	ldr	r3, [r3, #36]	; 0x24
 8003966:	1c5a      	adds	r2, r3, #1
 8003968:	687b      	ldr	r3, [r7, #4]
 800396a:	625a      	str	r2, [r3, #36]	; 0x24

      /* Update counter */
      hi2c->XferCount--;
 800396c:	687b      	ldr	r3, [r7, #4]
 800396e:	8d5b      	ldrh	r3, [r3, #42]	; 0x2a
 8003970:	b29b      	uxth	r3, r3
 8003972:	3b01      	subs	r3, #1
 8003974:	b29a      	uxth	r2, r3
 8003976:	687b      	ldr	r3, [r7, #4]
 8003978:	855a      	strh	r2, [r3, #42]	; 0x2a

      if (hi2c->XferCount == (uint16_t)3)
 800397a:	687b      	ldr	r3, [r7, #4]
 800397c:	8d5b      	ldrh	r3, [r3, #42]	; 0x2a
 800397e:	b29b      	uxth	r3, r3
 8003980:	2b03      	cmp	r3, #3
 8003982:	f040 8082 	bne.w	8003a8a <I2C_MasterReceive_RXNE+0x15a>
      {
        /* Disable BUF interrupt, this help to treat correctly the last 4 bytes
        on BTF subroutine */
        /* Disable BUF interrupt */
        __HAL_I2C_DISABLE_IT(hi2c, I2C_IT_BUF);
 8003986:	687b      	ldr	r3, [r7, #4]
 8003988:	681b      	ldr	r3, [r3, #0]
 800398a:	685a      	ldr	r2, [r3, #4]
 800398c:	687b      	ldr	r3, [r7, #4]
 800398e:	681b      	ldr	r3, [r3, #0]
 8003990:	f422 6280 	bic.w	r2, r2, #1024	; 0x400
 8003994:	605a      	str	r2, [r3, #4]
    else
    {
      /* Do nothing */
    }
  }
}
 8003996:	e078      	b.n	8003a8a <I2C_MasterReceive_RXNE+0x15a>
    else if ((hi2c->XferOptions != I2C_FIRST_AND_NEXT_FRAME) && ((tmp == 1U) || (tmp == 0U)))
 8003998:	687b      	ldr	r3, [r7, #4]
 800399a:	6adb      	ldr	r3, [r3, #44]	; 0x2c
 800399c:	2b02      	cmp	r3, #2
 800399e:	d074      	beq.n	8003a8a <I2C_MasterReceive_RXNE+0x15a>
 80039a0:	68fb      	ldr	r3, [r7, #12]
 80039a2:	2b01      	cmp	r3, #1
 80039a4:	d002      	beq.n	80039ac <I2C_MasterReceive_RXNE+0x7c>
 80039a6:	68fb      	ldr	r3, [r7, #12]
 80039a8:	2b00      	cmp	r3, #0
 80039aa:	d16e      	bne.n	8003a8a <I2C_MasterReceive_RXNE+0x15a>
      if (I2C_WaitOnSTOPRequestThroughIT(hi2c) == HAL_OK)
 80039ac:	6878      	ldr	r0, [r7, #4]
 80039ae:	f001 faf3 	bl	8004f98 <I2C_WaitOnSTOPRequestThroughIT>
 80039b2:	4603      	mov	r3, r0
 80039b4:	2b00      	cmp	r3, #0
 80039b6:	d142      	bne.n	8003a3e <I2C_MasterReceive_RXNE+0x10e>
        CLEAR_BIT(hi2c->Instance->CR1, I2C_CR1_ACK);
 80039b8:	687b      	ldr	r3, [r7, #4]
 80039ba:	681b      	ldr	r3, [r3, #0]
 80039bc:	681a      	ldr	r2, [r3, #0]
 80039be:	687b      	ldr	r3, [r7, #4]
 80039c0:	681b      	ldr	r3, [r3, #0]
 80039c2:	f422 6280 	bic.w	r2, r2, #1024	; 0x400
 80039c6:	601a      	str	r2, [r3, #0]
        __HAL_I2C_DISABLE_IT(hi2c, I2C_IT_EVT | I2C_IT_BUF | I2C_IT_ERR);
 80039c8:	687b      	ldr	r3, [r7, #4]
 80039ca:	681b      	ldr	r3, [r3, #0]
 80039cc:	685a      	ldr	r2, [r3, #4]
 80039ce:	687b      	ldr	r3, [r7, #4]
 80039d0:	681b      	ldr	r3, [r3, #0]
 80039d2:	f422 62e0 	bic.w	r2, r2, #1792	; 0x700
 80039d6:	605a      	str	r2, [r3, #4]
        *hi2c->pBuffPtr = (uint8_t)hi2c->Instance->DR;
 80039d8:	687b      	ldr	r3, [r7, #4]
 80039da:	681b      	ldr	r3, [r3, #0]
 80039dc:	691a      	ldr	r2, [r3, #16]
 80039de:	687b      	ldr	r3, [r7, #4]
 80039e0:	6a5b      	ldr	r3, [r3, #36]	; 0x24
 80039e2:	b2d2      	uxtb	r2, r2
 80039e4:	701a      	strb	r2, [r3, #0]
        hi2c->pBuffPtr++;
 80039e6:	687b      	ldr	r3, [r7, #4]
 80039e8:	6a5b      	ldr	r3, [r3, #36]	; 0x24
 80039ea:	1c5a      	adds	r2, r3, #1
 80039ec:	687b      	ldr	r3, [r7, #4]
 80039ee:	625a      	str	r2, [r3, #36]	; 0x24
        hi2c->XferCount--;
 80039f0:	687b      	ldr	r3, [r7, #4]
 80039f2:	8d5b      	ldrh	r3, [r3, #42]	; 0x2a
 80039f4:	b29b      	uxth	r3, r3
 80039f6:	3b01      	subs	r3, #1
 80039f8:	b29a      	uxth	r2, r3
 80039fa:	687b      	ldr	r3, [r7, #4]
 80039fc:	855a      	strh	r2, [r3, #42]	; 0x2a
        hi2c->State = HAL_I2C_STATE_READY;
 80039fe:	687b      	ldr	r3, [r7, #4]
 8003a00:	2220      	movs	r2, #32
 8003a02:	f883 203d 	strb.w	r2, [r3, #61]	; 0x3d
        if (hi2c->Mode == HAL_I2C_MODE_MEM)
 8003a06:	687b      	ldr	r3, [r7, #4]
 8003a08:	f893 303e 	ldrb.w	r3, [r3, #62]	; 0x3e
 8003a0c:	b2db      	uxtb	r3, r3
 8003a0e:	2b40      	cmp	r3, #64	; 0x40
 8003a10:	d10a      	bne.n	8003a28 <I2C_MasterReceive_RXNE+0xf8>
          hi2c->Mode = HAL_I2C_MODE_NONE;
 8003a12:	687b      	ldr	r3, [r7, #4]
 8003a14:	2200      	movs	r2, #0
 8003a16:	f883 203e 	strb.w	r2, [r3, #62]	; 0x3e
          hi2c->PreviousState = I2C_STATE_NONE;
 8003a1a:	687b      	ldr	r3, [r7, #4]
 8003a1c:	2200      	movs	r2, #0
 8003a1e:	631a      	str	r2, [r3, #48]	; 0x30
          HAL_I2C_MemRxCpltCallback(hi2c);
 8003a20:	6878      	ldr	r0, [r7, #4]
 8003a22:	f7ff fdc1 	bl	80035a8 <HAL_I2C_MemRxCpltCallback>
}
 8003a26:	e030      	b.n	8003a8a <I2C_MasterReceive_RXNE+0x15a>
          hi2c->Mode = HAL_I2C_MODE_NONE;
 8003a28:	687b      	ldr	r3, [r7, #4]
 8003a2a:	2200      	movs	r2, #0
 8003a2c:	f883 203e 	strb.w	r2, [r3, #62]	; 0x3e
          hi2c->PreviousState = I2C_STATE_MASTER_BUSY_RX;
 8003a30:	687b      	ldr	r3, [r7, #4]
 8003a32:	2212      	movs	r2, #18
 8003a34:	631a      	str	r2, [r3, #48]	; 0x30
          HAL_I2C_MasterRxCpltCallback(hi2c);
 8003a36:	6878      	ldr	r0, [r7, #4]
 8003a38:	f7ff fd76 	bl	8003528 <HAL_I2C_MasterRxCpltCallback>
}
 8003a3c:	e025      	b.n	8003a8a <I2C_MasterReceive_RXNE+0x15a>
        __HAL_I2C_DISABLE_IT(hi2c, I2C_IT_EVT | I2C_IT_BUF | I2C_IT_ERR);
 8003a3e:	687b      	ldr	r3, [r7, #4]
 8003a40:	681b      	ldr	r3, [r3, #0]
 8003a42:	685a      	ldr	r2, [r3, #4]
 8003a44:	687b      	ldr	r3, [r7, #4]
 8003a46:	681b      	ldr	r3, [r3, #0]
 8003a48:	f422 62e0 	bic.w	r2, r2, #1792	; 0x700
 8003a4c:	605a      	str	r2, [r3, #4]
        *hi2c->pBuffPtr = (uint8_t)hi2c->Instance->DR;
 8003a4e:	687b      	ldr	r3, [r7, #4]
 8003a50:	681b      	ldr	r3, [r3, #0]
 8003a52:	691a      	ldr	r2, [r3, #16]
 8003a54:	687b      	ldr	r3, [r7, #4]
 8003a56:	6a5b      	ldr	r3, [r3, #36]	; 0x24
 8003a58:	b2d2      	uxtb	r2, r2
 8003a5a:	701a      	strb	r2, [r3, #0]
        hi2c->pBuffPtr++;
 8003a5c:	687b      	ldr	r3, [r7, #4]
 8003a5e:	6a5b      	ldr	r3, [r3, #36]	; 0x24
 8003a60:	1c5a      	adds	r2, r3, #1
 8003a62:	687b      	ldr	r3, [r7, #4]
 8003a64:	625a      	str	r2, [r3, #36]	; 0x24
        hi2c->XferCount--;
 8003a66:	687b      	ldr	r3, [r7, #4]
 8003a68:	8d5b      	ldrh	r3, [r3, #42]	; 0x2a
 8003a6a:	b29b      	uxth	r3, r3
 8003a6c:	3b01      	subs	r3, #1
 8003a6e:	b29a      	uxth	r2, r3
 8003a70:	687b      	ldr	r3, [r7, #4]
 8003a72:	855a      	strh	r2, [r3, #42]	; 0x2a
        hi2c->State = HAL_I2C_STATE_READY;
 8003a74:	687b      	ldr	r3, [r7, #4]
 8003a76:	2220      	movs	r2, #32
 8003a78:	f883 203d 	strb.w	r2, [r3, #61]	; 0x3d
        hi2c->Mode = HAL_I2C_MODE_NONE;
 8003a7c:	687b      	ldr	r3, [r7, #4]
 8003a7e:	2200      	movs	r2, #0
 8003a80:	f883 203e 	strb.w	r2, [r3, #62]	; 0x3e
        HAL_I2C_ErrorCallback(hi2c);
 8003a84:	6878      	ldr	r0, [r7, #4]
 8003a86:	f7ff fd99 	bl	80035bc <HAL_I2C_ErrorCallback>
}
 8003a8a:	bf00      	nop
 8003a8c:	3710      	adds	r7, #16
 8003a8e:	46bd      	mov	sp, r7
 8003a90:	bd80      	pop	{r7, pc}

08003a92 <I2C_MasterReceive_BTF>:
  * @param  hi2c Pointer to a I2C_HandleTypeDef structure that contains
  *         the configuration information for I2C module
  * @retval None
  */
static void I2C_MasterReceive_BTF(I2C_HandleTypeDef *hi2c)
{
 8003a92:	b580      	push	{r7, lr}
 8003a94:	b084      	sub	sp, #16
 8003a96:	af00      	add	r7, sp, #0
 8003a98:	6078      	str	r0, [r7, #4]
  /* Declaration of temporary variables to prevent undefined behavior of volatile usage */
  uint32_t CurrentXferOptions = hi2c->XferOptions;
 8003a9a:	687b      	ldr	r3, [r7, #4]
 8003a9c:	6adb      	ldr	r3, [r3, #44]	; 0x2c
 8003a9e:	60fb      	str	r3, [r7, #12]

  if (hi2c->XferCount == 4U)
 8003aa0:	687b      	ldr	r3, [r7, #4]
 8003aa2:	8d5b      	ldrh	r3, [r3, #42]	; 0x2a
 8003aa4:	b29b      	uxth	r3, r3
 8003aa6:	2b04      	cmp	r3, #4
 8003aa8:	d11b      	bne.n	8003ae2 <I2C_MasterReceive_BTF+0x50>
  {
    /* Disable BUF interrupt, this help to treat correctly the last 2 bytes
       on BTF subroutine if there is a reception delay between N-1 and N byte */
    __HAL_I2C_DISABLE_IT(hi2c, I2C_IT_BUF);
 8003aaa:	687b      	ldr	r3, [r7, #4]
 8003aac:	681b      	ldr	r3, [r3, #0]
 8003aae:	685a      	ldr	r2, [r3, #4]
 8003ab0:	687b      	ldr	r3, [r7, #4]
 8003ab2:	681b      	ldr	r3, [r3, #0]
 8003ab4:	f422 6280 	bic.w	r2, r2, #1024	; 0x400
 8003ab8:	605a      	str	r2, [r3, #4]

    /* Read data from DR */
    *hi2c->pBuffPtr = (uint8_t)hi2c->Instance->DR;
 8003aba:	687b      	ldr	r3, [r7, #4]
 8003abc:	681b      	ldr	r3, [r3, #0]
 8003abe:	691a      	ldr	r2, [r3, #16]
 8003ac0:	687b      	ldr	r3, [r7, #4]
 8003ac2:	6a5b      	ldr	r3, [r3, #36]	; 0x24
 8003ac4:	b2d2      	uxtb	r2, r2
 8003ac6:	701a      	strb	r2, [r3, #0]

    /* Increment Buffer pointer */
    hi2c->pBuffPtr++;
 8003ac8:	687b      	ldr	r3, [r7, #4]
 8003aca:	6a5b      	ldr	r3, [r3, #36]	; 0x24
 8003acc:	1c5a      	adds	r2, r3, #1
 8003ace:	687b      	ldr	r3, [r7, #4]
 8003ad0:	625a      	str	r2, [r3, #36]	; 0x24

    /* Update counter */
    hi2c->XferCount--;
 8003ad2:	687b      	ldr	r3, [r7, #4]
 8003ad4:	8d5b      	ldrh	r3, [r3, #42]	; 0x2a
 8003ad6:	b29b      	uxth	r3, r3
 8003ad8:	3b01      	subs	r3, #1
 8003ada:	b29a      	uxth	r2, r3
 8003adc:	687b      	ldr	r3, [r7, #4]
 8003ade:	855a      	strh	r2, [r3, #42]	; 0x2a
    hi2c->pBuffPtr++;

    /* Update counter */
    hi2c->XferCount--;
  }
}
 8003ae0:	e0bd      	b.n	8003c5e <I2C_MasterReceive_BTF+0x1cc>
  else if (hi2c->XferCount == 3U)
 8003ae2:	687b      	ldr	r3, [r7, #4]
 8003ae4:	8d5b      	ldrh	r3, [r3, #42]	; 0x2a
 8003ae6:	b29b      	uxth	r3, r3
 8003ae8:	2b03      	cmp	r3, #3
 8003aea:	d129      	bne.n	8003b40 <I2C_MasterReceive_BTF+0xae>
    __HAL_I2C_DISABLE_IT(hi2c, I2C_IT_BUF);
 8003aec:	687b      	ldr	r3, [r7, #4]
 8003aee:	681b      	ldr	r3, [r3, #0]
 8003af0:	685a      	ldr	r2, [r3, #4]
 8003af2:	687b      	ldr	r3, [r7, #4]
 8003af4:	681b      	ldr	r3, [r3, #0]
 8003af6:	f422 6280 	bic.w	r2, r2, #1024	; 0x400
 8003afa:	605a      	str	r2, [r3, #4]
    if ((CurrentXferOptions != I2C_NEXT_FRAME) && (CurrentXferOptions != I2C_FIRST_AND_NEXT_FRAME))
 8003afc:	68fb      	ldr	r3, [r7, #12]
 8003afe:	2b04      	cmp	r3, #4
 8003b00:	d00a      	beq.n	8003b18 <I2C_MasterReceive_BTF+0x86>
 8003b02:	68fb      	ldr	r3, [r7, #12]
 8003b04:	2b02      	cmp	r3, #2
 8003b06:	d007      	beq.n	8003b18 <I2C_MasterReceive_BTF+0x86>
      CLEAR_BIT(hi2c->Instance->CR1, I2C_CR1_ACK);
 8003b08:	687b      	ldr	r3, [r7, #4]
 8003b0a:	681b      	ldr	r3, [r3, #0]
 8003b0c:	681a      	ldr	r2, [r3, #0]
 8003b0e:	687b      	ldr	r3, [r7, #4]
 8003b10:	681b      	ldr	r3, [r3, #0]
 8003b12:	f422 6280 	bic.w	r2, r2, #1024	; 0x400
 8003b16:	601a      	str	r2, [r3, #0]
    *hi2c->pBuffPtr = (uint8_t)hi2c->Instance->DR;
 8003b18:	687b      	ldr	r3, [r7, #4]
 8003b1a:	681b      	ldr	r3, [r3, #0]
 8003b1c:	691a      	ldr	r2, [r3, #16]
 8003b1e:	687b      	ldr	r3, [r7, #4]
 8003b20:	6a5b      	ldr	r3, [r3, #36]	; 0x24
 8003b22:	b2d2      	uxtb	r2, r2
 8003b24:	701a      	strb	r2, [r3, #0]
    hi2c->pBuffPtr++;
 8003b26:	687b      	ldr	r3, [r7, #4]
 8003b28:	6a5b      	ldr	r3, [r3, #36]	; 0x24
 8003b2a:	1c5a      	adds	r2, r3, #1
 8003b2c:	687b      	ldr	r3, [r7, #4]
 8003b2e:	625a      	str	r2, [r3, #36]	; 0x24
    hi2c->XferCount--;
 8003b30:	687b      	ldr	r3, [r7, #4]
 8003b32:	8d5b      	ldrh	r3, [r3, #42]	; 0x2a
 8003b34:	b29b      	uxth	r3, r3
 8003b36:	3b01      	subs	r3, #1
 8003b38:	b29a      	uxth	r2, r3
 8003b3a:	687b      	ldr	r3, [r7, #4]
 8003b3c:	855a      	strh	r2, [r3, #42]	; 0x2a
}
 8003b3e:	e08e      	b.n	8003c5e <I2C_MasterReceive_BTF+0x1cc>
  else if (hi2c->XferCount == 2U)
 8003b40:	687b      	ldr	r3, [r7, #4]
 8003b42:	8d5b      	ldrh	r3, [r3, #42]	; 0x2a
 8003b44:	b29b      	uxth	r3, r3
 8003b46:	2b02      	cmp	r3, #2
 8003b48:	d176      	bne.n	8003c38 <I2C_MasterReceive_BTF+0x1a6>
    if ((CurrentXferOptions == I2C_FIRST_FRAME) || (CurrentXferOptions == I2C_LAST_FRAME_NO_STOP))
 8003b4a:	68fb      	ldr	r3, [r7, #12]
 8003b4c:	2b01      	cmp	r3, #1
 8003b4e:	d002      	beq.n	8003b56 <I2C_MasterReceive_BTF+0xc4>
 8003b50:	68fb      	ldr	r3, [r7, #12]
 8003b52:	2b10      	cmp	r3, #16
 8003b54:	d108      	bne.n	8003b68 <I2C_MasterReceive_BTF+0xd6>
      CLEAR_BIT(hi2c->Instance->CR1, I2C_CR1_ACK);
 8003b56:	687b      	ldr	r3, [r7, #4]
 8003b58:	681b      	ldr	r3, [r3, #0]
 8003b5a:	681a      	ldr	r2, [r3, #0]
 8003b5c:	687b      	ldr	r3, [r7, #4]
 8003b5e:	681b      	ldr	r3, [r3, #0]
 8003b60:	f422 6280 	bic.w	r2, r2, #1024	; 0x400
 8003b64:	601a      	str	r2, [r3, #0]
 8003b66:	e019      	b.n	8003b9c <I2C_MasterReceive_BTF+0x10a>
    else if ((CurrentXferOptions == I2C_NEXT_FRAME) || (CurrentXferOptions == I2C_FIRST_AND_NEXT_FRAME))
 8003b68:	68fb      	ldr	r3, [r7, #12]
 8003b6a:	2b04      	cmp	r3, #4
 8003b6c:	d002      	beq.n	8003b74 <I2C_MasterReceive_BTF+0xe2>
 8003b6e:	68fb      	ldr	r3, [r7, #12]
 8003b70:	2b02      	cmp	r3, #2
 8003b72:	d108      	bne.n	8003b86 <I2C_MasterReceive_BTF+0xf4>
      SET_BIT(hi2c->Instance->CR1, I2C_CR1_ACK);
 8003b74:	687b      	ldr	r3, [r7, #4]
 8003b76:	681b      	ldr	r3, [r3, #0]
 8003b78:	681a      	ldr	r2, [r3, #0]
 8003b7a:	687b      	ldr	r3, [r7, #4]
 8003b7c:	681b      	ldr	r3, [r3, #0]
 8003b7e:	f442 6280 	orr.w	r2, r2, #1024	; 0x400
 8003b82:	601a      	str	r2, [r3, #0]
 8003b84:	e00a      	b.n	8003b9c <I2C_MasterReceive_BTF+0x10a>
    else if (CurrentXferOptions != I2C_LAST_FRAME_NO_STOP)
 8003b86:	68fb      	ldr	r3, [r7, #12]
 8003b88:	2b10      	cmp	r3, #16
 8003b8a:	d007      	beq.n	8003b9c <I2C_MasterReceive_BTF+0x10a>
      SET_BIT(hi2c->Instance->CR1, I2C_CR1_STOP);
 8003b8c:	687b      	ldr	r3, [r7, #4]
 8003b8e:	681b      	ldr	r3, [r3, #0]
 8003b90:	681a      	ldr	r2, [r3, #0]
 8003b92:	687b      	ldr	r3, [r7, #4]
 8003b94:	681b      	ldr	r3, [r3, #0]
 8003b96:	f442 7200 	orr.w	r2, r2, #512	; 0x200
 8003b9a:	601a      	str	r2, [r3, #0]
    *hi2c->pBuffPtr = (uint8_t)hi2c->Instance->DR;
 8003b9c:	687b      	ldr	r3, [r7, #4]
 8003b9e:	681b      	ldr	r3, [r3, #0]
 8003ba0:	691a      	ldr	r2, [r3, #16]
 8003ba2:	687b      	ldr	r3, [r7, #4]
 8003ba4:	6a5b      	ldr	r3, [r3, #36]	; 0x24
 8003ba6:	b2d2      	uxtb	r2, r2
 8003ba8:	701a      	strb	r2, [r3, #0]
    hi2c->pBuffPtr++;
 8003baa:	687b      	ldr	r3, [r7, #4]
 8003bac:	6a5b      	ldr	r3, [r3, #36]	; 0x24
 8003bae:	1c5a      	adds	r2, r3, #1
 8003bb0:	687b      	ldr	r3, [r7, #4]
 8003bb2:	625a      	str	r2, [r3, #36]	; 0x24
    hi2c->XferCount--;
 8003bb4:	687b      	ldr	r3, [r7, #4]
 8003bb6:	8d5b      	ldrh	r3, [r3, #42]	; 0x2a
 8003bb8:	b29b      	uxth	r3, r3
 8003bba:	3b01      	subs	r3, #1
 8003bbc:	b29a      	uxth	r2, r3
 8003bbe:	687b      	ldr	r3, [r7, #4]
 8003bc0:	855a      	strh	r2, [r3, #42]	; 0x2a
    *hi2c->pBuffPtr = (uint8_t)hi2c->Instance->DR;
 8003bc2:	687b      	ldr	r3, [r7, #4]
 8003bc4:	681b      	ldr	r3, [r3, #0]
 8003bc6:	691a      	ldr	r2, [r3, #16]
 8003bc8:	687b      	ldr	r3, [r7, #4]
 8003bca:	6a5b      	ldr	r3, [r3, #36]	; 0x24
 8003bcc:	b2d2      	uxtb	r2, r2
 8003bce:	701a      	strb	r2, [r3, #0]
    hi2c->pBuffPtr++;
 8003bd0:	687b      	ldr	r3, [r7, #4]
 8003bd2:	6a5b      	ldr	r3, [r3, #36]	; 0x24
 8003bd4:	1c5a      	adds	r2, r3, #1
 8003bd6:	687b      	ldr	r3, [r7, #4]
 8003bd8:	625a      	str	r2, [r3, #36]	; 0x24
    hi2c->XferCount--;
 8003bda:	687b      	ldr	r3, [r7, #4]
 8003bdc:	8d5b      	ldrh	r3, [r3, #42]	; 0x2a
 8003bde:	b29b      	uxth	r3, r3
 8003be0:	3b01      	subs	r3, #1
 8003be2:	b29a      	uxth	r2, r3
 8003be4:	687b      	ldr	r3, [r7, #4]
 8003be6:	855a      	strh	r2, [r3, #42]	; 0x2a
    __HAL_I2C_DISABLE_IT(hi2c, I2C_IT_EVT | I2C_IT_ERR);
 8003be8:	687b      	ldr	r3, [r7, #4]
 8003bea:	681b      	ldr	r3, [r3, #0]
 8003bec:	685a      	ldr	r2, [r3, #4]
 8003bee:	687b      	ldr	r3, [r7, #4]
 8003bf0:	681b      	ldr	r3, [r3, #0]
 8003bf2:	f422 7240 	bic.w	r2, r2, #768	; 0x300
 8003bf6:	605a      	str	r2, [r3, #4]
    hi2c->State = HAL_I2C_STATE_READY;
 8003bf8:	687b      	ldr	r3, [r7, #4]
 8003bfa:	2220      	movs	r2, #32
 8003bfc:	f883 203d 	strb.w	r2, [r3, #61]	; 0x3d
    if (hi2c->Mode == HAL_I2C_MODE_MEM)
 8003c00:	687b      	ldr	r3, [r7, #4]
 8003c02:	f893 303e 	ldrb.w	r3, [r3, #62]	; 0x3e
 8003c06:	b2db      	uxtb	r3, r3
 8003c08:	2b40      	cmp	r3, #64	; 0x40
 8003c0a:	d10a      	bne.n	8003c22 <I2C_MasterReceive_BTF+0x190>
      hi2c->Mode = HAL_I2C_MODE_NONE;
 8003c0c:	687b      	ldr	r3, [r7, #4]
 8003c0e:	2200      	movs	r2, #0
 8003c10:	f883 203e 	strb.w	r2, [r3, #62]	; 0x3e
      hi2c->PreviousState = I2C_STATE_NONE;
 8003c14:	687b      	ldr	r3, [r7, #4]
 8003c16:	2200      	movs	r2, #0
 8003c18:	631a      	str	r2, [r3, #48]	; 0x30
      HAL_I2C_MemRxCpltCallback(hi2c);
 8003c1a:	6878      	ldr	r0, [r7, #4]
 8003c1c:	f7ff fcc4 	bl	80035a8 <HAL_I2C_MemRxCpltCallback>
}
 8003c20:	e01d      	b.n	8003c5e <I2C_MasterReceive_BTF+0x1cc>
      hi2c->Mode = HAL_I2C_MODE_NONE;
 8003c22:	687b      	ldr	r3, [r7, #4]
 8003c24:	2200      	movs	r2, #0
 8003c26:	f883 203e 	strb.w	r2, [r3, #62]	; 0x3e
      hi2c->PreviousState = I2C_STATE_MASTER_BUSY_RX;
 8003c2a:	687b      	ldr	r3, [r7, #4]
 8003c2c:	2212      	movs	r2, #18
 8003c2e:	631a      	str	r2, [r3, #48]	; 0x30
      HAL_I2C_MasterRxCpltCallback(hi2c);
 8003c30:	6878      	ldr	r0, [r7, #4]
 8003c32:	f7ff fc79 	bl	8003528 <HAL_I2C_MasterRxCpltCallback>
}
 8003c36:	e012      	b.n	8003c5e <I2C_MasterReceive_BTF+0x1cc>
    *hi2c->pBuffPtr = (uint8_t)hi2c->Instance->DR;
 8003c38:	687b      	ldr	r3, [r7, #4]
 8003c3a:	681b      	ldr	r3, [r3, #0]
 8003c3c:	691a      	ldr	r2, [r3, #16]
 8003c3e:	687b      	ldr	r3, [r7, #4]
 8003c40:	6a5b      	ldr	r3, [r3, #36]	; 0x24
 8003c42:	b2d2      	uxtb	r2, r2
 8003c44:	701a      	strb	r2, [r3, #0]
    hi2c->pBuffPtr++;
 8003c46:	687b      	ldr	r3, [r7, #4]
 8003c48:	6a5b      	ldr	r3, [r3, #36]	; 0x24
 8003c4a:	1c5a      	adds	r2, r3, #1
 8003c4c:	687b      	ldr	r3, [r7, #4]
 8003c4e:	625a      	str	r2, [r3, #36]	; 0x24
    hi2c->XferCount--;
 8003c50:	687b      	ldr	r3, [r7, #4]
 8003c52:	8d5b      	ldrh	r3, [r3, #42]	; 0x2a
 8003c54:	b29b      	uxth	r3, r3
 8003c56:	3b01      	subs	r3, #1
 8003c58:	b29a      	uxth	r2, r3
 8003c5a:	687b      	ldr	r3, [r7, #4]
 8003c5c:	855a      	strh	r2, [r3, #42]	; 0x2a
}
 8003c5e:	bf00      	nop
 8003c60:	3710      	adds	r7, #16
 8003c62:	46bd      	mov	sp, r7
 8003c64:	bd80      	pop	{r7, pc}

08003c66 <I2C_Master_SB>:
  * @param  hi2c Pointer to a I2C_HandleTypeDef structure that contains
  *         the configuration information for I2C module
  * @retval None
  */
static void I2C_Master_SB(I2C_HandleTypeDef *hi2c)
{
 8003c66:	b480      	push	{r7}
 8003c68:	b083      	sub	sp, #12
 8003c6a:	af00      	add	r7, sp, #0
 8003c6c:	6078      	str	r0, [r7, #4]
  if (hi2c->Mode == HAL_I2C_MODE_MEM)
 8003c6e:	687b      	ldr	r3, [r7, #4]
 8003c70:	f893 303e 	ldrb.w	r3, [r3, #62]	; 0x3e
 8003c74:	b2db      	uxtb	r3, r3
 8003c76:	2b40      	cmp	r3, #64	; 0x40
 8003c78:	d117      	bne.n	8003caa <I2C_Master_SB+0x44>
  {
    if (hi2c->EventCount == 0U)
 8003c7a:	687b      	ldr	r3, [r7, #4]
 8003c7c:	6d1b      	ldr	r3, [r3, #80]	; 0x50
 8003c7e:	2b00      	cmp	r3, #0
 8003c80:	d109      	bne.n	8003c96 <I2C_Master_SB+0x30>
    {
      /* Send slave address */
      hi2c->Instance->DR = I2C_7BIT_ADD_WRITE(hi2c->Devaddress);
 8003c82:	687b      	ldr	r3, [r7, #4]
 8003c84:	6c5b      	ldr	r3, [r3, #68]	; 0x44
 8003c86:	b2db      	uxtb	r3, r3
 8003c88:	461a      	mov	r2, r3
 8003c8a:	687b      	ldr	r3, [r7, #4]
 8003c8c:	681b      	ldr	r3, [r3, #0]
 8003c8e:	f002 02fe 	and.w	r2, r2, #254	; 0xfe
 8003c92:	611a      	str	r2, [r3, #16]
      {
        /* Do nothing */
      }
    }
  }
}
 8003c94:	e067      	b.n	8003d66 <I2C_Master_SB+0x100>
      hi2c->Instance->DR = I2C_7BIT_ADD_READ(hi2c->Devaddress);
 8003c96:	687b      	ldr	r3, [r7, #4]
 8003c98:	6c5b      	ldr	r3, [r3, #68]	; 0x44
 8003c9a:	b2db      	uxtb	r3, r3
 8003c9c:	f043 0301 	orr.w	r3, r3, #1
 8003ca0:	b2da      	uxtb	r2, r3
 8003ca2:	687b      	ldr	r3, [r7, #4]
 8003ca4:	681b      	ldr	r3, [r3, #0]
 8003ca6:	611a      	str	r2, [r3, #16]
}
 8003ca8:	e05d      	b.n	8003d66 <I2C_Master_SB+0x100>
    if (hi2c->Init.AddressingMode == I2C_ADDRESSINGMODE_7BIT)
 8003caa:	687b      	ldr	r3, [r7, #4]
 8003cac:	691b      	ldr	r3, [r3, #16]
 8003cae:	f5b3 4f80 	cmp.w	r3, #16384	; 0x4000
 8003cb2:	d133      	bne.n	8003d1c <I2C_Master_SB+0xb6>
      if (hi2c->State == HAL_I2C_STATE_BUSY_TX)
 8003cb4:	687b      	ldr	r3, [r7, #4]
 8003cb6:	f893 303d 	ldrb.w	r3, [r3, #61]	; 0x3d
 8003cba:	b2db      	uxtb	r3, r3
 8003cbc:	2b21      	cmp	r3, #33	; 0x21
 8003cbe:	d109      	bne.n	8003cd4 <I2C_Master_SB+0x6e>
        hi2c->Instance->DR = I2C_7BIT_ADD_WRITE(hi2c->Devaddress);
 8003cc0:	687b      	ldr	r3, [r7, #4]
 8003cc2:	6c5b      	ldr	r3, [r3, #68]	; 0x44
 8003cc4:	b2db      	uxtb	r3, r3
 8003cc6:	461a      	mov	r2, r3
 8003cc8:	687b      	ldr	r3, [r7, #4]
 8003cca:	681b      	ldr	r3, [r3, #0]
 8003ccc:	f002 02fe 	and.w	r2, r2, #254	; 0xfe
 8003cd0:	611a      	str	r2, [r3, #16]
 8003cd2:	e008      	b.n	8003ce6 <I2C_Master_SB+0x80>
        hi2c->Instance->DR = I2C_7BIT_ADD_READ(hi2c->Devaddress);
 8003cd4:	687b      	ldr	r3, [r7, #4]
 8003cd6:	6c5b      	ldr	r3, [r3, #68]	; 0x44
 8003cd8:	b2db      	uxtb	r3, r3
 8003cda:	f043 0301 	orr.w	r3, r3, #1
 8003cde:	b2da      	uxtb	r2, r3
 8003ce0:	687b      	ldr	r3, [r7, #4]
 8003ce2:	681b      	ldr	r3, [r3, #0]
 8003ce4:	611a      	str	r2, [r3, #16]
      if (((hi2c->hdmatx != NULL) && (hi2c->hdmatx->XferCpltCallback != NULL))
 8003ce6:	687b      	ldr	r3, [r7, #4]
 8003ce8:	6b5b      	ldr	r3, [r3, #52]	; 0x34
 8003cea:	2b00      	cmp	r3, #0
 8003cec:	d004      	beq.n	8003cf8 <I2C_Master_SB+0x92>
 8003cee:	687b      	ldr	r3, [r7, #4]
 8003cf0:	6b5b      	ldr	r3, [r3, #52]	; 0x34
 8003cf2:	6bdb      	ldr	r3, [r3, #60]	; 0x3c
 8003cf4:	2b00      	cmp	r3, #0
 8003cf6:	d108      	bne.n	8003d0a <I2C_Master_SB+0xa4>
          || ((hi2c->hdmarx != NULL) && (hi2c->hdmarx->XferCpltCallback != NULL)))
 8003cf8:	687b      	ldr	r3, [r7, #4]
 8003cfa:	6b9b      	ldr	r3, [r3, #56]	; 0x38
 8003cfc:	2b00      	cmp	r3, #0
 8003cfe:	d032      	beq.n	8003d66 <I2C_Master_SB+0x100>
 8003d00:	687b      	ldr	r3, [r7, #4]
 8003d02:	6b9b      	ldr	r3, [r3, #56]	; 0x38
 8003d04:	6bdb      	ldr	r3, [r3, #60]	; 0x3c
 8003d06:	2b00      	cmp	r3, #0
 8003d08:	d02d      	beq.n	8003d66 <I2C_Master_SB+0x100>
        SET_BIT(hi2c->Instance->CR2, I2C_CR2_DMAEN);
 8003d0a:	687b      	ldr	r3, [r7, #4]
 8003d0c:	681b      	ldr	r3, [r3, #0]
 8003d0e:	685a      	ldr	r2, [r3, #4]
 8003d10:	687b      	ldr	r3, [r7, #4]
 8003d12:	681b      	ldr	r3, [r3, #0]
 8003d14:	f442 6200 	orr.w	r2, r2, #2048	; 0x800
 8003d18:	605a      	str	r2, [r3, #4]
}
 8003d1a:	e024      	b.n	8003d66 <I2C_Master_SB+0x100>
      if (hi2c->EventCount == 0U)
 8003d1c:	687b      	ldr	r3, [r7, #4]
 8003d1e:	6d1b      	ldr	r3, [r3, #80]	; 0x50
 8003d20:	2b00      	cmp	r3, #0
 8003d22:	d10e      	bne.n	8003d42 <I2C_Master_SB+0xdc>
        hi2c->Instance->DR = I2C_10BIT_HEADER_WRITE(hi2c->Devaddress);
 8003d24:	687b      	ldr	r3, [r7, #4]
 8003d26:	6c5b      	ldr	r3, [r3, #68]	; 0x44
 8003d28:	b29b      	uxth	r3, r3
 8003d2a:	11db      	asrs	r3, r3, #7
 8003d2c:	b2db      	uxtb	r3, r3
 8003d2e:	f003 0306 	and.w	r3, r3, #6
 8003d32:	b2db      	uxtb	r3, r3
 8003d34:	f063 030f 	orn	r3, r3, #15
 8003d38:	b2da      	uxtb	r2, r3
 8003d3a:	687b      	ldr	r3, [r7, #4]
 8003d3c:	681b      	ldr	r3, [r3, #0]
 8003d3e:	611a      	str	r2, [r3, #16]
}
 8003d40:	e011      	b.n	8003d66 <I2C_Master_SB+0x100>
      else if (hi2c->EventCount == 1U)
 8003d42:	687b      	ldr	r3, [r7, #4]
 8003d44:	6d1b      	ldr	r3, [r3, #80]	; 0x50
 8003d46:	2b01      	cmp	r3, #1
 8003d48:	d10d      	bne.n	8003d66 <I2C_Master_SB+0x100>
        hi2c->Instance->DR = I2C_10BIT_HEADER_READ(hi2c->Devaddress);
 8003d4a:	687b      	ldr	r3, [r7, #4]
 8003d4c:	6c5b      	ldr	r3, [r3, #68]	; 0x44
 8003d4e:	b29b      	uxth	r3, r3
 8003d50:	11db      	asrs	r3, r3, #7
 8003d52:	b2db      	uxtb	r3, r3
 8003d54:	f003 0306 	and.w	r3, r3, #6
 8003d58:	b2db      	uxtb	r3, r3
 8003d5a:	f063 030e 	orn	r3, r3, #14
 8003d5e:	b2da      	uxtb	r2, r3
 8003d60:	687b      	ldr	r3, [r7, #4]
 8003d62:	681b      	ldr	r3, [r3, #0]
 8003d64:	611a      	str	r2, [r3, #16]
}
 8003d66:	bf00      	nop
 8003d68:	370c      	adds	r7, #12
 8003d6a:	46bd      	mov	sp, r7
 8003d6c:	f85d 7b04 	ldr.w	r7, [sp], #4
 8003d70:	4770      	bx	lr

08003d72 <I2C_Master_ADD10>:
  * @param  hi2c Pointer to a I2C_HandleTypeDef structure that contains
  *         the configuration information for I2C module
  * @retval None
  */
static void I2C_Master_ADD10(I2C_HandleTypeDef *hi2c)
{
 8003d72:	b480      	push	{r7}
 8003d74:	b083      	sub	sp, #12
 8003d76:	af00      	add	r7, sp, #0
 8003d78:	6078      	str	r0, [r7, #4]
  /* Send slave address */
  hi2c->Instance->DR = I2C_10BIT_ADDRESS(hi2c->Devaddress);
 8003d7a:	687b      	ldr	r3, [r7, #4]
 8003d7c:	6c5b      	ldr	r3, [r3, #68]	; 0x44
 8003d7e:	b2da      	uxtb	r2, r3
 8003d80:	687b      	ldr	r3, [r7, #4]
 8003d82:	681b      	ldr	r3, [r3, #0]
 8003d84:	611a      	str	r2, [r3, #16]

  if (((hi2c->hdmatx != NULL) && (hi2c->hdmatx->XferCpltCallback != NULL))
 8003d86:	687b      	ldr	r3, [r7, #4]
 8003d88:	6b5b      	ldr	r3, [r3, #52]	; 0x34
 8003d8a:	2b00      	cmp	r3, #0
 8003d8c:	d004      	beq.n	8003d98 <I2C_Master_ADD10+0x26>
 8003d8e:	687b      	ldr	r3, [r7, #4]
 8003d90:	6b5b      	ldr	r3, [r3, #52]	; 0x34
 8003d92:	6bdb      	ldr	r3, [r3, #60]	; 0x3c
 8003d94:	2b00      	cmp	r3, #0
 8003d96:	d108      	bne.n	8003daa <I2C_Master_ADD10+0x38>
      || ((hi2c->hdmarx != NULL) && (hi2c->hdmarx->XferCpltCallback != NULL)))
 8003d98:	687b      	ldr	r3, [r7, #4]
 8003d9a:	6b9b      	ldr	r3, [r3, #56]	; 0x38
 8003d9c:	2b00      	cmp	r3, #0
 8003d9e:	d00c      	beq.n	8003dba <I2C_Master_ADD10+0x48>
 8003da0:	687b      	ldr	r3, [r7, #4]
 8003da2:	6b9b      	ldr	r3, [r3, #56]	; 0x38
 8003da4:	6bdb      	ldr	r3, [r3, #60]	; 0x3c
 8003da6:	2b00      	cmp	r3, #0
 8003da8:	d007      	beq.n	8003dba <I2C_Master_ADD10+0x48>
  {
    /* Enable DMA Request */
    SET_BIT(hi2c->Instance->CR2, I2C_CR2_DMAEN);
 8003daa:	687b      	ldr	r3, [r7, #4]
 8003dac:	681b      	ldr	r3, [r3, #0]
 8003dae:	685a      	ldr	r2, [r3, #4]
 8003db0:	687b      	ldr	r3, [r7, #4]
 8003db2:	681b      	ldr	r3, [r3, #0]
 8003db4:	f442 6200 	orr.w	r2, r2, #2048	; 0x800
 8003db8:	605a      	str	r2, [r3, #4]
  }
}
 8003dba:	bf00      	nop
 8003dbc:	370c      	adds	r7, #12
 8003dbe:	46bd      	mov	sp, r7
 8003dc0:	f85d 7b04 	ldr.w	r7, [sp], #4
 8003dc4:	4770      	bx	lr

08003dc6 <I2C_Master_ADDR>:
  * @param  hi2c Pointer to a I2C_HandleTypeDef structure that contains
  *         the configuration information for I2C module
  * @retval None
  */
static void I2C_Master_ADDR(I2C_HandleTypeDef *hi2c)
{
 8003dc6:	b480      	push	{r7}
 8003dc8:	b091      	sub	sp, #68	; 0x44
 8003dca:	af00      	add	r7, sp, #0
 8003dcc:	6078      	str	r0, [r7, #4]
  /* Declaration of temporary variable to prevent undefined behavior of volatile usage */
  HAL_I2C_ModeTypeDef CurrentMode       = hi2c->Mode;
 8003dce:	687b      	ldr	r3, [r7, #4]
 8003dd0:	f893 303e 	ldrb.w	r3, [r3, #62]	; 0x3e
 8003dd4:	f887 303f 	strb.w	r3, [r7, #63]	; 0x3f
  uint32_t CurrentXferOptions           = hi2c->XferOptions;
 8003dd8:	687b      	ldr	r3, [r7, #4]
 8003dda:	6adb      	ldr	r3, [r3, #44]	; 0x2c
 8003ddc:	63bb      	str	r3, [r7, #56]	; 0x38
  uint32_t Prev_State                   = hi2c->PreviousState;
 8003dde:	687b      	ldr	r3, [r7, #4]
 8003de0:	6b1b      	ldr	r3, [r3, #48]	; 0x30
 8003de2:	637b      	str	r3, [r7, #52]	; 0x34

  if (hi2c->State == HAL_I2C_STATE_BUSY_RX)
 8003de4:	687b      	ldr	r3, [r7, #4]
 8003de6:	f893 303d 	ldrb.w	r3, [r3, #61]	; 0x3d
 8003dea:	b2db      	uxtb	r3, r3
 8003dec:	2b22      	cmp	r3, #34	; 0x22
 8003dee:	f040 8169 	bne.w	80040c4 <I2C_Master_ADDR+0x2fe>
  {
    if ((hi2c->EventCount == 0U) && (CurrentMode == HAL_I2C_MODE_MEM))
 8003df2:	687b      	ldr	r3, [r7, #4]
 8003df4:	6d1b      	ldr	r3, [r3, #80]	; 0x50
 8003df6:	2b00      	cmp	r3, #0
 8003df8:	d10f      	bne.n	8003e1a <I2C_Master_ADDR+0x54>
 8003dfa:	f897 303f 	ldrb.w	r3, [r7, #63]	; 0x3f
 8003dfe:	2b40      	cmp	r3, #64	; 0x40
 8003e00:	d10b      	bne.n	8003e1a <I2C_Master_ADDR+0x54>
    {
      /* Clear ADDR flag */
      __HAL_I2C_CLEAR_ADDRFLAG(hi2c);
 8003e02:	2300      	movs	r3, #0
 8003e04:	633b      	str	r3, [r7, #48]	; 0x30
 8003e06:	687b      	ldr	r3, [r7, #4]
 8003e08:	681b      	ldr	r3, [r3, #0]
 8003e0a:	695b      	ldr	r3, [r3, #20]
 8003e0c:	633b      	str	r3, [r7, #48]	; 0x30
 8003e0e:	687b      	ldr	r3, [r7, #4]
 8003e10:	681b      	ldr	r3, [r3, #0]
 8003e12:	699b      	ldr	r3, [r3, #24]
 8003e14:	633b      	str	r3, [r7, #48]	; 0x30
 8003e16:	6b3b      	ldr	r3, [r7, #48]	; 0x30
 8003e18:	e160      	b.n	80040dc <I2C_Master_ADDR+0x316>
    }
    else if ((hi2c->EventCount == 0U) && (hi2c->Init.AddressingMode == I2C_ADDRESSINGMODE_10BIT))
 8003e1a:	687b      	ldr	r3, [r7, #4]
 8003e1c:	6d1b      	ldr	r3, [r3, #80]	; 0x50
 8003e1e:	2b00      	cmp	r3, #0
 8003e20:	d11d      	bne.n	8003e5e <I2C_Master_ADDR+0x98>
 8003e22:	687b      	ldr	r3, [r7, #4]
 8003e24:	691b      	ldr	r3, [r3, #16]
 8003e26:	f5b3 4f40 	cmp.w	r3, #49152	; 0xc000
 8003e2a:	d118      	bne.n	8003e5e <I2C_Master_ADDR+0x98>
    {
      /* Clear ADDR flag */
      __HAL_I2C_CLEAR_ADDRFLAG(hi2c);
 8003e2c:	2300      	movs	r3, #0
 8003e2e:	62fb      	str	r3, [r7, #44]	; 0x2c
 8003e30:	687b      	ldr	r3, [r7, #4]
 8003e32:	681b      	ldr	r3, [r3, #0]
 8003e34:	695b      	ldr	r3, [r3, #20]
 8003e36:	62fb      	str	r3, [r7, #44]	; 0x2c
 8003e38:	687b      	ldr	r3, [r7, #4]
 8003e3a:	681b      	ldr	r3, [r3, #0]
 8003e3c:	699b      	ldr	r3, [r3, #24]
 8003e3e:	62fb      	str	r3, [r7, #44]	; 0x2c
 8003e40:	6afb      	ldr	r3, [r7, #44]	; 0x2c

      /* Generate Restart */
      SET_BIT(hi2c->Instance->CR1, I2C_CR1_START);
 8003e42:	687b      	ldr	r3, [r7, #4]
 8003e44:	681b      	ldr	r3, [r3, #0]
 8003e46:	681a      	ldr	r2, [r3, #0]
 8003e48:	687b      	ldr	r3, [r7, #4]
 8003e4a:	681b      	ldr	r3, [r3, #0]
 8003e4c:	f442 7280 	orr.w	r2, r2, #256	; 0x100
 8003e50:	601a      	str	r2, [r3, #0]

      hi2c->EventCount++;
 8003e52:	687b      	ldr	r3, [r7, #4]
 8003e54:	6d1b      	ldr	r3, [r3, #80]	; 0x50
 8003e56:	1c5a      	adds	r2, r3, #1
 8003e58:	687b      	ldr	r3, [r7, #4]
 8003e5a:	651a      	str	r2, [r3, #80]	; 0x50
 8003e5c:	e13e      	b.n	80040dc <I2C_Master_ADDR+0x316>
    }
    else
    {
      if (hi2c->XferCount == 0U)
 8003e5e:	687b      	ldr	r3, [r7, #4]
 8003e60:	8d5b      	ldrh	r3, [r3, #42]	; 0x2a
 8003e62:	b29b      	uxth	r3, r3
 8003e64:	2b00      	cmp	r3, #0
 8003e66:	d113      	bne.n	8003e90 <I2C_Master_ADDR+0xca>
      {
        /* Clear ADDR flag */
        __HAL_I2C_CLEAR_ADDRFLAG(hi2c);
 8003e68:	2300      	movs	r3, #0
 8003e6a:	62bb      	str	r3, [r7, #40]	; 0x28
 8003e6c:	687b      	ldr	r3, [r7, #4]
 8003e6e:	681b      	ldr	r3, [r3, #0]
 8003e70:	695b      	ldr	r3, [r3, #20]
 8003e72:	62bb      	str	r3, [r7, #40]	; 0x28
 8003e74:	687b      	ldr	r3, [r7, #4]
 8003e76:	681b      	ldr	r3, [r3, #0]
 8003e78:	699b      	ldr	r3, [r3, #24]
 8003e7a:	62bb      	str	r3, [r7, #40]	; 0x28
 8003e7c:	6abb      	ldr	r3, [r7, #40]	; 0x28

        /* Generate Stop */
        SET_BIT(hi2c->Instance->CR1, I2C_CR1_STOP);
 8003e7e:	687b      	ldr	r3, [r7, #4]
 8003e80:	681b      	ldr	r3, [r3, #0]
 8003e82:	681a      	ldr	r2, [r3, #0]
 8003e84:	687b      	ldr	r3, [r7, #4]
 8003e86:	681b      	ldr	r3, [r3, #0]
 8003e88:	f442 7200 	orr.w	r2, r2, #512	; 0x200
 8003e8c:	601a      	str	r2, [r3, #0]
 8003e8e:	e115      	b.n	80040bc <I2C_Master_ADDR+0x2f6>
      }
      else if (hi2c->XferCount == 1U)
 8003e90:	687b      	ldr	r3, [r7, #4]
 8003e92:	8d5b      	ldrh	r3, [r3, #42]	; 0x2a
 8003e94:	b29b      	uxth	r3, r3
 8003e96:	2b01      	cmp	r3, #1
 8003e98:	f040 808a 	bne.w	8003fb0 <I2C_Master_ADDR+0x1ea>
      {
        if (CurrentXferOptions == I2C_NO_OPTION_FRAME)
 8003e9c:	6bbb      	ldr	r3, [r7, #56]	; 0x38
 8003e9e:	f513 3f80 	cmn.w	r3, #65536	; 0x10000
 8003ea2:	d137      	bne.n	8003f14 <I2C_Master_ADDR+0x14e>
        {
          /* Disable Acknowledge */
          CLEAR_BIT(hi2c->Instance->CR1, I2C_CR1_ACK);
 8003ea4:	687b      	ldr	r3, [r7, #4]
 8003ea6:	681b      	ldr	r3, [r3, #0]
 8003ea8:	681a      	ldr	r2, [r3, #0]
 8003eaa:	687b      	ldr	r3, [r7, #4]
 8003eac:	681b      	ldr	r3, [r3, #0]
 8003eae:	f422 6280 	bic.w	r2, r2, #1024	; 0x400
 8003eb2:	601a      	str	r2, [r3, #0]

          if ((hi2c->Instance->CR2 & I2C_CR2_DMAEN) == I2C_CR2_DMAEN)
 8003eb4:	687b      	ldr	r3, [r7, #4]
 8003eb6:	681b      	ldr	r3, [r3, #0]
 8003eb8:	685b      	ldr	r3, [r3, #4]
 8003eba:	f403 6300 	and.w	r3, r3, #2048	; 0x800
 8003ebe:	f5b3 6f00 	cmp.w	r3, #2048	; 0x800
 8003ec2:	d113      	bne.n	8003eec <I2C_Master_ADDR+0x126>
          {
            /* Disable Acknowledge */
            CLEAR_BIT(hi2c->Instance->CR1, I2C_CR1_ACK);
 8003ec4:	687b      	ldr	r3, [r7, #4]
 8003ec6:	681b      	ldr	r3, [r3, #0]
 8003ec8:	681a      	ldr	r2, [r3, #0]
 8003eca:	687b      	ldr	r3, [r7, #4]
 8003ecc:	681b      	ldr	r3, [r3, #0]
 8003ece:	f422 6280 	bic.w	r2, r2, #1024	; 0x400
 8003ed2:	601a      	str	r2, [r3, #0]

            /* Clear ADDR flag */
            __HAL_I2C_CLEAR_ADDRFLAG(hi2c);
 8003ed4:	2300      	movs	r3, #0
 8003ed6:	627b      	str	r3, [r7, #36]	; 0x24
 8003ed8:	687b      	ldr	r3, [r7, #4]
 8003eda:	681b      	ldr	r3, [r3, #0]
 8003edc:	695b      	ldr	r3, [r3, #20]
 8003ede:	627b      	str	r3, [r7, #36]	; 0x24
 8003ee0:	687b      	ldr	r3, [r7, #4]
 8003ee2:	681b      	ldr	r3, [r3, #0]
 8003ee4:	699b      	ldr	r3, [r3, #24]
 8003ee6:	627b      	str	r3, [r7, #36]	; 0x24
 8003ee8:	6a7b      	ldr	r3, [r7, #36]	; 0x24
 8003eea:	e0e7      	b.n	80040bc <I2C_Master_ADDR+0x2f6>
          }
          else
          {
            /* Clear ADDR flag */
            __HAL_I2C_CLEAR_ADDRFLAG(hi2c);
 8003eec:	2300      	movs	r3, #0
 8003eee:	623b      	str	r3, [r7, #32]
 8003ef0:	687b      	ldr	r3, [r7, #4]
 8003ef2:	681b      	ldr	r3, [r3, #0]
 8003ef4:	695b      	ldr	r3, [r3, #20]
 8003ef6:	623b      	str	r3, [r7, #32]
 8003ef8:	687b      	ldr	r3, [r7, #4]
 8003efa:	681b      	ldr	r3, [r3, #0]
 8003efc:	699b      	ldr	r3, [r3, #24]
 8003efe:	623b      	str	r3, [r7, #32]
 8003f00:	6a3b      	ldr	r3, [r7, #32]

            /* Generate Stop */
            SET_BIT(hi2c->Instance->CR1, I2C_CR1_STOP);
 8003f02:	687b      	ldr	r3, [r7, #4]
 8003f04:	681b      	ldr	r3, [r3, #0]
 8003f06:	681a      	ldr	r2, [r3, #0]
 8003f08:	687b      	ldr	r3, [r7, #4]
 8003f0a:	681b      	ldr	r3, [r3, #0]
 8003f0c:	f442 7200 	orr.w	r2, r2, #512	; 0x200
 8003f10:	601a      	str	r2, [r3, #0]
 8003f12:	e0d3      	b.n	80040bc <I2C_Master_ADDR+0x2f6>
          }
        }
        /* Prepare next transfer or stop current transfer */
        else if ((CurrentXferOptions != I2C_FIRST_AND_LAST_FRAME) && (CurrentXferOptions != I2C_LAST_FRAME) \
 8003f14:	6bbb      	ldr	r3, [r7, #56]	; 0x38
 8003f16:	2b08      	cmp	r3, #8
 8003f18:	d02e      	beq.n	8003f78 <I2C_Master_ADDR+0x1b2>
 8003f1a:	6bbb      	ldr	r3, [r7, #56]	; 0x38
 8003f1c:	2b20      	cmp	r3, #32
 8003f1e:	d02b      	beq.n	8003f78 <I2C_Master_ADDR+0x1b2>
                 && ((Prev_State != I2C_STATE_MASTER_BUSY_RX) || (CurrentXferOptions == I2C_FIRST_FRAME)))
 8003f20:	6b7b      	ldr	r3, [r7, #52]	; 0x34
 8003f22:	2b12      	cmp	r3, #18
 8003f24:	d102      	bne.n	8003f2c <I2C_Master_ADDR+0x166>
 8003f26:	6bbb      	ldr	r3, [r7, #56]	; 0x38
 8003f28:	2b01      	cmp	r3, #1
 8003f2a:	d125      	bne.n	8003f78 <I2C_Master_ADDR+0x1b2>
        {
          if ((CurrentXferOptions != I2C_NEXT_FRAME) && (CurrentXferOptions != I2C_FIRST_AND_NEXT_FRAME) && (CurrentXferOptions != I2C_LAST_FRAME_NO_STOP))
 8003f2c:	6bbb      	ldr	r3, [r7, #56]	; 0x38
 8003f2e:	2b04      	cmp	r3, #4
 8003f30:	d00e      	beq.n	8003f50 <I2C_Master_ADDR+0x18a>
 8003f32:	6bbb      	ldr	r3, [r7, #56]	; 0x38
 8003f34:	2b02      	cmp	r3, #2
 8003f36:	d00b      	beq.n	8003f50 <I2C_Master_ADDR+0x18a>
 8003f38:	6bbb      	ldr	r3, [r7, #56]	; 0x38
 8003f3a:	2b10      	cmp	r3, #16
 8003f3c:	d008      	beq.n	8003f50 <I2C_Master_ADDR+0x18a>
          {
            /* Disable Acknowledge */
            CLEAR_BIT(hi2c->Instance->CR1, I2C_CR1_ACK);
 8003f3e:	687b      	ldr	r3, [r7, #4]
 8003f40:	681b      	ldr	r3, [r3, #0]
 8003f42:	681a      	ldr	r2, [r3, #0]
 8003f44:	687b      	ldr	r3, [r7, #4]
 8003f46:	681b      	ldr	r3, [r3, #0]
 8003f48:	f422 6280 	bic.w	r2, r2, #1024	; 0x400
 8003f4c:	601a      	str	r2, [r3, #0]
 8003f4e:	e007      	b.n	8003f60 <I2C_Master_ADDR+0x19a>
          }
          else
          {
            /* Enable Acknowledge */
            SET_BIT(hi2c->Instance->CR1, I2C_CR1_ACK);
 8003f50:	687b      	ldr	r3, [r7, #4]
 8003f52:	681b      	ldr	r3, [r3, #0]
 8003f54:	681a      	ldr	r2, [r3, #0]
 8003f56:	687b      	ldr	r3, [r7, #4]
 8003f58:	681b      	ldr	r3, [r3, #0]
 8003f5a:	f442 6280 	orr.w	r2, r2, #1024	; 0x400
 8003f5e:	601a      	str	r2, [r3, #0]
          }

          /* Clear ADDR flag */
          __HAL_I2C_CLEAR_ADDRFLAG(hi2c);
 8003f60:	2300      	movs	r3, #0
 8003f62:	61fb      	str	r3, [r7, #28]
 8003f64:	687b      	ldr	r3, [r7, #4]
 8003f66:	681b      	ldr	r3, [r3, #0]
 8003f68:	695b      	ldr	r3, [r3, #20]
 8003f6a:	61fb      	str	r3, [r7, #28]
 8003f6c:	687b      	ldr	r3, [r7, #4]
 8003f6e:	681b      	ldr	r3, [r3, #0]
 8003f70:	699b      	ldr	r3, [r3, #24]
 8003f72:	61fb      	str	r3, [r7, #28]
 8003f74:	69fb      	ldr	r3, [r7, #28]
 8003f76:	e0a1      	b.n	80040bc <I2C_Master_ADDR+0x2f6>
        }
        else
        {
          /* Disable Acknowledge */
          CLEAR_BIT(hi2c->Instance->CR1, I2C_CR1_ACK);
 8003f78:	687b      	ldr	r3, [r7, #4]
 8003f7a:	681b      	ldr	r3, [r3, #0]
 8003f7c:	681a      	ldr	r2, [r3, #0]
 8003f7e:	687b      	ldr	r3, [r7, #4]
 8003f80:	681b      	ldr	r3, [r3, #0]
 8003f82:	f422 6280 	bic.w	r2, r2, #1024	; 0x400
 8003f86:	601a      	str	r2, [r3, #0]

          /* Clear ADDR flag */
          __HAL_I2C_CLEAR_ADDRFLAG(hi2c);
 8003f88:	2300      	movs	r3, #0
 8003f8a:	61bb      	str	r3, [r7, #24]
 8003f8c:	687b      	ldr	r3, [r7, #4]
 8003f8e:	681b      	ldr	r3, [r3, #0]
 8003f90:	695b      	ldr	r3, [r3, #20]
 8003f92:	61bb      	str	r3, [r7, #24]
 8003f94:	687b      	ldr	r3, [r7, #4]
 8003f96:	681b      	ldr	r3, [r3, #0]
 8003f98:	699b      	ldr	r3, [r3, #24]
 8003f9a:	61bb      	str	r3, [r7, #24]
 8003f9c:	69bb      	ldr	r3, [r7, #24]

          /* Generate Stop */
          SET_BIT(hi2c->Instance->CR1, I2C_CR1_STOP);
 8003f9e:	687b      	ldr	r3, [r7, #4]
 8003fa0:	681b      	ldr	r3, [r3, #0]
 8003fa2:	681a      	ldr	r2, [r3, #0]
 8003fa4:	687b      	ldr	r3, [r7, #4]
 8003fa6:	681b      	ldr	r3, [r3, #0]
 8003fa8:	f442 7200 	orr.w	r2, r2, #512	; 0x200
 8003fac:	601a      	str	r2, [r3, #0]
 8003fae:	e085      	b.n	80040bc <I2C_Master_ADDR+0x2f6>
        }
      }
      else if (hi2c->XferCount == 2U)
 8003fb0:	687b      	ldr	r3, [r7, #4]
 8003fb2:	8d5b      	ldrh	r3, [r3, #42]	; 0x2a
 8003fb4:	b29b      	uxth	r3, r3
 8003fb6:	2b02      	cmp	r3, #2
 8003fb8:	d14d      	bne.n	8004056 <I2C_Master_ADDR+0x290>
      {
        if ((CurrentXferOptions != I2C_NEXT_FRAME) && (CurrentXferOptions != I2C_FIRST_AND_NEXT_FRAME) && (CurrentXferOptions != I2C_LAST_FRAME_NO_STOP))
 8003fba:	6bbb      	ldr	r3, [r7, #56]	; 0x38
 8003fbc:	2b04      	cmp	r3, #4
 8003fbe:	d016      	beq.n	8003fee <I2C_Master_ADDR+0x228>
 8003fc0:	6bbb      	ldr	r3, [r7, #56]	; 0x38
 8003fc2:	2b02      	cmp	r3, #2
 8003fc4:	d013      	beq.n	8003fee <I2C_Master_ADDR+0x228>
 8003fc6:	6bbb      	ldr	r3, [r7, #56]	; 0x38
 8003fc8:	2b10      	cmp	r3, #16
 8003fca:	d010      	beq.n	8003fee <I2C_Master_ADDR+0x228>
        {
          /* Disable Acknowledge */
          CLEAR_BIT(hi2c->Instance->CR1, I2C_CR1_ACK);
 8003fcc:	687b      	ldr	r3, [r7, #4]
 8003fce:	681b      	ldr	r3, [r3, #0]
 8003fd0:	681a      	ldr	r2, [r3, #0]
 8003fd2:	687b      	ldr	r3, [r7, #4]
 8003fd4:	681b      	ldr	r3, [r3, #0]
 8003fd6:	f422 6280 	bic.w	r2, r2, #1024	; 0x400
 8003fda:	601a      	str	r2, [r3, #0]

          /* Enable Pos */
          SET_BIT(hi2c->Instance->CR1, I2C_CR1_POS);
 8003fdc:	687b      	ldr	r3, [r7, #4]
 8003fde:	681b      	ldr	r3, [r3, #0]
 8003fe0:	681a      	ldr	r2, [r3, #0]
 8003fe2:	687b      	ldr	r3, [r7, #4]
 8003fe4:	681b      	ldr	r3, [r3, #0]
 8003fe6:	f442 6200 	orr.w	r2, r2, #2048	; 0x800
 8003fea:	601a      	str	r2, [r3, #0]
 8003fec:	e007      	b.n	8003ffe <I2C_Master_ADDR+0x238>
        }
        else
        {
          /* Enable Acknowledge */
          SET_BIT(hi2c->Instance->CR1, I2C_CR1_ACK);
 8003fee:	687b      	ldr	r3, [r7, #4]
 8003ff0:	681b      	ldr	r3, [r3, #0]
 8003ff2:	681a      	ldr	r2, [r3, #0]
 8003ff4:	687b      	ldr	r3, [r7, #4]
 8003ff6:	681b      	ldr	r3, [r3, #0]
 8003ff8:	f442 6280 	orr.w	r2, r2, #1024	; 0x400
 8003ffc:	601a      	str	r2, [r3, #0]
        }

        if (((hi2c->Instance->CR2 & I2C_CR2_DMAEN) == I2C_CR2_DMAEN) && ((CurrentXferOptions == I2C_NO_OPTION_FRAME) || (CurrentXferOptions == I2C_FIRST_FRAME) || (CurrentXferOptions == I2C_FIRST_AND_LAST_FRAME) || (CurrentXferOptions == I2C_LAST_FRAME_NO_STOP) || (CurrentXferOptions == I2C_LAST_FRAME)))
 8003ffe:	687b      	ldr	r3, [r7, #4]
 8004000:	681b      	ldr	r3, [r3, #0]
 8004002:	685b      	ldr	r3, [r3, #4]
 8004004:	f403 6300 	and.w	r3, r3, #2048	; 0x800
 8004008:	f5b3 6f00 	cmp.w	r3, #2048	; 0x800
 800400c:	d117      	bne.n	800403e <I2C_Master_ADDR+0x278>
 800400e:	6bbb      	ldr	r3, [r7, #56]	; 0x38
 8004010:	f513 3f80 	cmn.w	r3, #65536	; 0x10000
 8004014:	d00b      	beq.n	800402e <I2C_Master_ADDR+0x268>
 8004016:	6bbb      	ldr	r3, [r7, #56]	; 0x38
 8004018:	2b01      	cmp	r3, #1
 800401a:	d008      	beq.n	800402e <I2C_Master_ADDR+0x268>
 800401c:	6bbb      	ldr	r3, [r7, #56]	; 0x38
 800401e:	2b08      	cmp	r3, #8
 8004020:	d005      	beq.n	800402e <I2C_Master_ADDR+0x268>
 8004022:	6bbb      	ldr	r3, [r7, #56]	; 0x38
 8004024:	2b10      	cmp	r3, #16
 8004026:	d002      	beq.n	800402e <I2C_Master_ADDR+0x268>
 8004028:	6bbb      	ldr	r3, [r7, #56]	; 0x38
 800402a:	2b20      	cmp	r3, #32
 800402c:	d107      	bne.n	800403e <I2C_Master_ADDR+0x278>
        {
          /* Enable Last DMA bit */
          SET_BIT(hi2c->Instance->CR2, I2C_CR2_LAST);
 800402e:	687b      	ldr	r3, [r7, #4]
 8004030:	681b      	ldr	r3, [r3, #0]
 8004032:	685a      	ldr	r2, [r3, #4]
 8004034:	687b      	ldr	r3, [r7, #4]
 8004036:	681b      	ldr	r3, [r3, #0]
 8004038:	f442 5280 	orr.w	r2, r2, #4096	; 0x1000
 800403c:	605a      	str	r2, [r3, #4]
        }

        /* Clear ADDR flag */
        __HAL_I2C_CLEAR_ADDRFLAG(hi2c);
 800403e:	2300      	movs	r3, #0
 8004040:	617b      	str	r3, [r7, #20]
 8004042:	687b      	ldr	r3, [r7, #4]
 8004044:	681b      	ldr	r3, [r3, #0]
 8004046:	695b      	ldr	r3, [r3, #20]
 8004048:	617b      	str	r3, [r7, #20]
 800404a:	687b      	ldr	r3, [r7, #4]
 800404c:	681b      	ldr	r3, [r3, #0]
 800404e:	699b      	ldr	r3, [r3, #24]
 8004050:	617b      	str	r3, [r7, #20]
 8004052:	697b      	ldr	r3, [r7, #20]
 8004054:	e032      	b.n	80040bc <I2C_Master_ADDR+0x2f6>
      }
      else
      {
        /* Enable Acknowledge */
        SET_BIT(hi2c->Instance->CR1, I2C_CR1_ACK);
 8004056:	687b      	ldr	r3, [r7, #4]
 8004058:	681b      	ldr	r3, [r3, #0]
 800405a:	681a      	ldr	r2, [r3, #0]
 800405c:	687b      	ldr	r3, [r7, #4]
 800405e:	681b      	ldr	r3, [r3, #0]
 8004060:	f442 6280 	orr.w	r2, r2, #1024	; 0x400
 8004064:	601a      	str	r2, [r3, #0]

        if (((hi2c->Instance->CR2 & I2C_CR2_DMAEN) == I2C_CR2_DMAEN) && ((CurrentXferOptions == I2C_NO_OPTION_FRAME) || (CurrentXferOptions == I2C_FIRST_FRAME) || (CurrentXferOptions == I2C_FIRST_AND_LAST_FRAME) || (CurrentXferOptions == I2C_LAST_FRAME_NO_STOP) || (CurrentXferOptions == I2C_LAST_FRAME)))
 8004066:	687b      	ldr	r3, [r7, #4]
 8004068:	681b      	ldr	r3, [r3, #0]
 800406a:	685b      	ldr	r3, [r3, #4]
 800406c:	f403 6300 	and.w	r3, r3, #2048	; 0x800
 8004070:	f5b3 6f00 	cmp.w	r3, #2048	; 0x800
 8004074:	d117      	bne.n	80040a6 <I2C_Master_ADDR+0x2e0>
 8004076:	6bbb      	ldr	r3, [r7, #56]	; 0x38
 8004078:	f513 3f80 	cmn.w	r3, #65536	; 0x10000
 800407c:	d00b      	beq.n	8004096 <I2C_Master_ADDR+0x2d0>
 800407e:	6bbb      	ldr	r3, [r7, #56]	; 0x38
 8004080:	2b01      	cmp	r3, #1
 8004082:	d008      	beq.n	8004096 <I2C_Master_ADDR+0x2d0>
 8004084:	6bbb      	ldr	r3, [r7, #56]	; 0x38
 8004086:	2b08      	cmp	r3, #8
 8004088:	d005      	beq.n	8004096 <I2C_Master_ADDR+0x2d0>
 800408a:	6bbb      	ldr	r3, [r7, #56]	; 0x38
 800408c:	2b10      	cmp	r3, #16
 800408e:	d002      	beq.n	8004096 <I2C_Master_ADDR+0x2d0>
 8004090:	6bbb      	ldr	r3, [r7, #56]	; 0x38
 8004092:	2b20      	cmp	r3, #32
 8004094:	d107      	bne.n	80040a6 <I2C_Master_ADDR+0x2e0>
        {
          /* Enable Last DMA bit */
          SET_BIT(hi2c->Instance->CR2, I2C_CR2_LAST);
 8004096:	687b      	ldr	r3, [r7, #4]
 8004098:	681b      	ldr	r3, [r3, #0]
 800409a:	685a      	ldr	r2, [r3, #4]
 800409c:	687b      	ldr	r3, [r7, #4]
 800409e:	681b      	ldr	r3, [r3, #0]
 80040a0:	f442 5280 	orr.w	r2, r2, #4096	; 0x1000
 80040a4:	605a      	str	r2, [r3, #4]
        }

        /* Clear ADDR flag */
        __HAL_I2C_CLEAR_ADDRFLAG(hi2c);
 80040a6:	2300      	movs	r3, #0
 80040a8:	613b      	str	r3, [r7, #16]
 80040aa:	687b      	ldr	r3, [r7, #4]
 80040ac:	681b      	ldr	r3, [r3, #0]
 80040ae:	695b      	ldr	r3, [r3, #20]
 80040b0:	613b      	str	r3, [r7, #16]
 80040b2:	687b      	ldr	r3, [r7, #4]
 80040b4:	681b      	ldr	r3, [r3, #0]
 80040b6:	699b      	ldr	r3, [r3, #24]
 80040b8:	613b      	str	r3, [r7, #16]
 80040ba:	693b      	ldr	r3, [r7, #16]
      }

      /* Reset Event counter  */
      hi2c->EventCount = 0U;
 80040bc:	687b      	ldr	r3, [r7, #4]
 80040be:	2200      	movs	r2, #0
 80040c0:	651a      	str	r2, [r3, #80]	; 0x50
  else
  {
    /* Clear ADDR flag */
    __HAL_I2C_CLEAR_ADDRFLAG(hi2c);
  }
}
 80040c2:	e00b      	b.n	80040dc <I2C_Master_ADDR+0x316>
    __HAL_I2C_CLEAR_ADDRFLAG(hi2c);
 80040c4:	2300      	movs	r3, #0
 80040c6:	60fb      	str	r3, [r7, #12]
 80040c8:	687b      	ldr	r3, [r7, #4]
 80040ca:	681b      	ldr	r3, [r3, #0]
 80040cc:	695b      	ldr	r3, [r3, #20]
 80040ce:	60fb      	str	r3, [r7, #12]
 80040d0:	687b      	ldr	r3, [r7, #4]
 80040d2:	681b      	ldr	r3, [r3, #0]
 80040d4:	699b      	ldr	r3, [r3, #24]
 80040d6:	60fb      	str	r3, [r7, #12]
 80040d8:	68fb      	ldr	r3, [r7, #12]
}
 80040da:	e7ff      	b.n	80040dc <I2C_Master_ADDR+0x316>
 80040dc:	bf00      	nop
 80040de:	3744      	adds	r7, #68	; 0x44
 80040e0:	46bd      	mov	sp, r7
 80040e2:	f85d 7b04 	ldr.w	r7, [sp], #4
 80040e6:	4770      	bx	lr

080040e8 <I2C_SlaveTransmit_TXE>:
  * @param  hi2c Pointer to a I2C_HandleTypeDef structure that contains
  *         the configuration information for I2C module
  * @retval None
  */
static void I2C_SlaveTransmit_TXE(I2C_HandleTypeDef *hi2c)
{
 80040e8:	b580      	push	{r7, lr}
 80040ea:	b084      	sub	sp, #16
 80040ec:	af00      	add	r7, sp, #0
 80040ee:	6078      	str	r0, [r7, #4]
  /* Declaration of temporary variables to prevent undefined behavior of volatile usage */
  HAL_I2C_StateTypeDef CurrentState = hi2c->State;
 80040f0:	687b      	ldr	r3, [r7, #4]
 80040f2:	f893 303d 	ldrb.w	r3, [r3, #61]	; 0x3d
 80040f6:	73fb      	strb	r3, [r7, #15]

  if (hi2c->XferCount != 0U)
 80040f8:	687b      	ldr	r3, [r7, #4]
 80040fa:	8d5b      	ldrh	r3, [r3, #42]	; 0x2a
 80040fc:	b29b      	uxth	r3, r3
 80040fe:	2b00      	cmp	r3, #0
 8004100:	d02b      	beq.n	800415a <I2C_SlaveTransmit_TXE+0x72>
  {
    /* Write data to DR */
    hi2c->Instance->DR = *hi2c->pBuffPtr;
 8004102:	687b      	ldr	r3, [r7, #4]
 8004104:	6a5b      	ldr	r3, [r3, #36]	; 0x24
 8004106:	781a      	ldrb	r2, [r3, #0]
 8004108:	687b      	ldr	r3, [r7, #4]
 800410a:	681b      	ldr	r3, [r3, #0]
 800410c:	611a      	str	r2, [r3, #16]

    /* Increment Buffer pointer */
    hi2c->pBuffPtr++;
 800410e:	687b      	ldr	r3, [r7, #4]
 8004110:	6a5b      	ldr	r3, [r3, #36]	; 0x24
 8004112:	1c5a      	adds	r2, r3, #1
 8004114:	687b      	ldr	r3, [r7, #4]
 8004116:	625a      	str	r2, [r3, #36]	; 0x24

    /* Update counter */
    hi2c->XferCount--;
 8004118:	687b      	ldr	r3, [r7, #4]
 800411a:	8d5b      	ldrh	r3, [r3, #42]	; 0x2a
 800411c:	b29b      	uxth	r3, r3
 800411e:	3b01      	subs	r3, #1
 8004120:	b29a      	uxth	r2, r3
 8004122:	687b      	ldr	r3, [r7, #4]
 8004124:	855a      	strh	r2, [r3, #42]	; 0x2a

    if ((hi2c->XferCount == 0U) && (CurrentState == HAL_I2C_STATE_BUSY_TX_LISTEN))
 8004126:	687b      	ldr	r3, [r7, #4]
 8004128:	8d5b      	ldrh	r3, [r3, #42]	; 0x2a
 800412a:	b29b      	uxth	r3, r3
 800412c:	2b00      	cmp	r3, #0
 800412e:	d114      	bne.n	800415a <I2C_SlaveTransmit_TXE+0x72>
 8004130:	7bfb      	ldrb	r3, [r7, #15]
 8004132:	2b29      	cmp	r3, #41	; 0x29
 8004134:	d111      	bne.n	800415a <I2C_SlaveTransmit_TXE+0x72>
    {
      /* Last Byte is received, disable Interrupt */
      __HAL_I2C_DISABLE_IT(hi2c, I2C_IT_BUF);
 8004136:	687b      	ldr	r3, [r7, #4]
 8004138:	681b      	ldr	r3, [r3, #0]
 800413a:	685a      	ldr	r2, [r3, #4]
 800413c:	687b      	ldr	r3, [r7, #4]
 800413e:	681b      	ldr	r3, [r3, #0]
 8004140:	f422 6280 	bic.w	r2, r2, #1024	; 0x400
 8004144:	605a      	str	r2, [r3, #4]

      /* Set state at HAL_I2C_STATE_LISTEN */
      hi2c->PreviousState = I2C_STATE_SLAVE_BUSY_TX;
 8004146:	687b      	ldr	r3, [r7, #4]
 8004148:	2221      	movs	r2, #33	; 0x21
 800414a:	631a      	str	r2, [r3, #48]	; 0x30
      hi2c->State = HAL_I2C_STATE_LISTEN;
 800414c:	687b      	ldr	r3, [r7, #4]
 800414e:	2228      	movs	r2, #40	; 0x28
 8004150:	f883 203d 	strb.w	r2, [r3, #61]	; 0x3d

      /* Call the corresponding callback to inform upper layer of End of Transfer */
#if (USE_HAL_I2C_REGISTER_CALLBACKS == 1)
      hi2c->SlaveTxCpltCallback(hi2c);
#else
      HAL_I2C_SlaveTxCpltCallback(hi2c);
 8004154:	6878      	ldr	r0, [r7, #4]
 8004156:	f7ff f9f1 	bl	800353c <HAL_I2C_SlaveTxCpltCallback>
#endif /* USE_HAL_I2C_REGISTER_CALLBACKS */
    }
  }
}
 800415a:	bf00      	nop
 800415c:	3710      	adds	r7, #16
 800415e:	46bd      	mov	sp, r7
 8004160:	bd80      	pop	{r7, pc}

08004162 <I2C_SlaveTransmit_BTF>:
  * @param  hi2c Pointer to a I2C_HandleTypeDef structure that contains
  *         the configuration information for I2C module
  * @retval None
  */
static void I2C_SlaveTransmit_BTF(I2C_HandleTypeDef *hi2c)
{
 8004162:	b480      	push	{r7}
 8004164:	b083      	sub	sp, #12
 8004166:	af00      	add	r7, sp, #0
 8004168:	6078      	str	r0, [r7, #4]
  if (hi2c->XferCount != 0U)
 800416a:	687b      	ldr	r3, [r7, #4]
 800416c:	8d5b      	ldrh	r3, [r3, #42]	; 0x2a
 800416e:	b29b      	uxth	r3, r3
 8004170:	2b00      	cmp	r3, #0
 8004172:	d011      	beq.n	8004198 <I2C_SlaveTransmit_BTF+0x36>
  {
    /* Write data to DR */
    hi2c->Instance->DR = *hi2c->pBuffPtr;
 8004174:	687b      	ldr	r3, [r7, #4]
 8004176:	6a5b      	ldr	r3, [r3, #36]	; 0x24
 8004178:	781a      	ldrb	r2, [r3, #0]
 800417a:	687b      	ldr	r3, [r7, #4]
 800417c:	681b      	ldr	r3, [r3, #0]
 800417e:	611a      	str	r2, [r3, #16]

    /* Increment Buffer pointer */
    hi2c->pBuffPtr++;
 8004180:	687b      	ldr	r3, [r7, #4]
 8004182:	6a5b      	ldr	r3, [r3, #36]	; 0x24
 8004184:	1c5a      	adds	r2, r3, #1
 8004186:	687b      	ldr	r3, [r7, #4]
 8004188:	625a      	str	r2, [r3, #36]	; 0x24

    /* Update counter */
    hi2c->XferCount--;
 800418a:	687b      	ldr	r3, [r7, #4]
 800418c:	8d5b      	ldrh	r3, [r3, #42]	; 0x2a
 800418e:	b29b      	uxth	r3, r3
 8004190:	3b01      	subs	r3, #1
 8004192:	b29a      	uxth	r2, r3
 8004194:	687b      	ldr	r3, [r7, #4]
 8004196:	855a      	strh	r2, [r3, #42]	; 0x2a
  }
}
 8004198:	bf00      	nop
 800419a:	370c      	adds	r7, #12
 800419c:	46bd      	mov	sp, r7
 800419e:	f85d 7b04 	ldr.w	r7, [sp], #4
 80041a2:	4770      	bx	lr

080041a4 <I2C_SlaveReceive_RXNE>:
  * @param  hi2c Pointer to a I2C_HandleTypeDef structure that contains
  *         the configuration information for I2C module
  * @retval None
  */
static void I2C_SlaveReceive_RXNE(I2C_HandleTypeDef *hi2c)
{
 80041a4:	b580      	push	{r7, lr}
 80041a6:	b084      	sub	sp, #16
 80041a8:	af00      	add	r7, sp, #0
 80041aa:	6078      	str	r0, [r7, #4]
  /* Declaration of temporary variables to prevent undefined behavior of volatile usage */
  HAL_I2C_StateTypeDef CurrentState = hi2c->State;
 80041ac:	687b      	ldr	r3, [r7, #4]
 80041ae:	f893 303d 	ldrb.w	r3, [r3, #61]	; 0x3d
 80041b2:	73fb      	strb	r3, [r7, #15]

  if (hi2c->XferCount != 0U)
 80041b4:	687b      	ldr	r3, [r7, #4]
 80041b6:	8d5b      	ldrh	r3, [r3, #42]	; 0x2a
 80041b8:	b29b      	uxth	r3, r3
 80041ba:	2b00      	cmp	r3, #0
 80041bc:	d02c      	beq.n	8004218 <I2C_SlaveReceive_RXNE+0x74>
  {
    /* Read data from DR */
    *hi2c->pBuffPtr = (uint8_t)hi2c->Instance->DR;
 80041be:	687b      	ldr	r3, [r7, #4]
 80041c0:	681b      	ldr	r3, [r3, #0]
 80041c2:	691a      	ldr	r2, [r3, #16]
 80041c4:	687b      	ldr	r3, [r7, #4]
 80041c6:	6a5b      	ldr	r3, [r3, #36]	; 0x24
 80041c8:	b2d2      	uxtb	r2, r2
 80041ca:	701a      	strb	r2, [r3, #0]

    /* Increment Buffer pointer */
    hi2c->pBuffPtr++;
 80041cc:	687b      	ldr	r3, [r7, #4]
 80041ce:	6a5b      	ldr	r3, [r3, #36]	; 0x24
 80041d0:	1c5a      	adds	r2, r3, #1
 80041d2:	687b      	ldr	r3, [r7, #4]
 80041d4:	625a      	str	r2, [r3, #36]	; 0x24

    /* Update counter */
    hi2c->XferCount--;
 80041d6:	687b      	ldr	r3, [r7, #4]
 80041d8:	8d5b      	ldrh	r3, [r3, #42]	; 0x2a
 80041da:	b29b      	uxth	r3, r3
 80041dc:	3b01      	subs	r3, #1
 80041de:	b29a      	uxth	r2, r3
 80041e0:	687b      	ldr	r3, [r7, #4]
 80041e2:	855a      	strh	r2, [r3, #42]	; 0x2a

    if ((hi2c->XferCount == 0U) && (CurrentState == HAL_I2C_STATE_BUSY_RX_LISTEN))
 80041e4:	687b      	ldr	r3, [r7, #4]
 80041e6:	8d5b      	ldrh	r3, [r3, #42]	; 0x2a
 80041e8:	b29b      	uxth	r3, r3
 80041ea:	2b00      	cmp	r3, #0
 80041ec:	d114      	bne.n	8004218 <I2C_SlaveReceive_RXNE+0x74>
 80041ee:	7bfb      	ldrb	r3, [r7, #15]
 80041f0:	2b2a      	cmp	r3, #42	; 0x2a
 80041f2:	d111      	bne.n	8004218 <I2C_SlaveReceive_RXNE+0x74>
    {
      /* Last Byte is received, disable Interrupt */
      __HAL_I2C_DISABLE_IT(hi2c, I2C_IT_BUF);
 80041f4:	687b      	ldr	r3, [r7, #4]
 80041f6:	681b      	ldr	r3, [r3, #0]
 80041f8:	685a      	ldr	r2, [r3, #4]
 80041fa:	687b      	ldr	r3, [r7, #4]
 80041fc:	681b      	ldr	r3, [r3, #0]
 80041fe:	f422 6280 	bic.w	r2, r2, #1024	; 0x400
 8004202:	605a      	str	r2, [r3, #4]

      /* Set state at HAL_I2C_STATE_LISTEN */
      hi2c->PreviousState = I2C_STATE_SLAVE_BUSY_RX;
 8004204:	687b      	ldr	r3, [r7, #4]
 8004206:	2222      	movs	r2, #34	; 0x22
 8004208:	631a      	str	r2, [r3, #48]	; 0x30
      hi2c->State = HAL_I2C_STATE_LISTEN;
 800420a:	687b      	ldr	r3, [r7, #4]
 800420c:	2228      	movs	r2, #40	; 0x28
 800420e:	f883 203d 	strb.w	r2, [r3, #61]	; 0x3d

      /* Call the corresponding callback to inform upper layer of End of Transfer */
#if (USE_HAL_I2C_REGISTER_CALLBACKS == 1)
      hi2c->SlaveRxCpltCallback(hi2c);
#else
      HAL_I2C_SlaveRxCpltCallback(hi2c);
 8004212:	6878      	ldr	r0, [r7, #4]
 8004214:	f7ff f99c 	bl	8003550 <HAL_I2C_SlaveRxCpltCallback>
#endif /* USE_HAL_I2C_REGISTER_CALLBACKS */
    }
  }
}
 8004218:	bf00      	nop
 800421a:	3710      	adds	r7, #16
 800421c:	46bd      	mov	sp, r7
 800421e:	bd80      	pop	{r7, pc}

08004220 <I2C_SlaveReceive_BTF>:
  * @param  hi2c Pointer to a I2C_HandleTypeDef structure that contains
  *         the configuration information for I2C module
  * @retval None
  */
static void I2C_SlaveReceive_BTF(I2C_HandleTypeDef *hi2c)
{
 8004220:	b480      	push	{r7}
 8004222:	b083      	sub	sp, #12
 8004224:	af00      	add	r7, sp, #0
 8004226:	6078      	str	r0, [r7, #4]
  if (hi2c->XferCount != 0U)
 8004228:	687b      	ldr	r3, [r7, #4]
 800422a:	8d5b      	ldrh	r3, [r3, #42]	; 0x2a
 800422c:	b29b      	uxth	r3, r3
 800422e:	2b00      	cmp	r3, #0
 8004230:	d012      	beq.n	8004258 <I2C_SlaveReceive_BTF+0x38>
  {
    /* Read data from DR */
    *hi2c->pBuffPtr = (uint8_t)hi2c->Instance->DR;
 8004232:	687b      	ldr	r3, [r7, #4]
 8004234:	681b      	ldr	r3, [r3, #0]
 8004236:	691a      	ldr	r2, [r3, #16]
 8004238:	687b      	ldr	r3, [r7, #4]
 800423a:	6a5b      	ldr	r3, [r3, #36]	; 0x24
 800423c:	b2d2      	uxtb	r2, r2
 800423e:	701a      	strb	r2, [r3, #0]

    /* Increment Buffer pointer */
    hi2c->pBuffPtr++;
 8004240:	687b      	ldr	r3, [r7, #4]
 8004242:	6a5b      	ldr	r3, [r3, #36]	; 0x24
 8004244:	1c5a      	adds	r2, r3, #1
 8004246:	687b      	ldr	r3, [r7, #4]
 8004248:	625a      	str	r2, [r3, #36]	; 0x24

    /* Update counter */
    hi2c->XferCount--;
 800424a:	687b      	ldr	r3, [r7, #4]
 800424c:	8d5b      	ldrh	r3, [r3, #42]	; 0x2a
 800424e:	b29b      	uxth	r3, r3
 8004250:	3b01      	subs	r3, #1
 8004252:	b29a      	uxth	r2, r3
 8004254:	687b      	ldr	r3, [r7, #4]
 8004256:	855a      	strh	r2, [r3, #42]	; 0x2a
  }
}
 8004258:	bf00      	nop
 800425a:	370c      	adds	r7, #12
 800425c:	46bd      	mov	sp, r7
 800425e:	f85d 7b04 	ldr.w	r7, [sp], #4
 8004262:	4770      	bx	lr

08004264 <I2C_Slave_ADDR>:
  *         the configuration information for I2C module
  * @param  IT2Flags Interrupt2 flags to handle.
  * @retval None
  */
static void I2C_Slave_ADDR(I2C_HandleTypeDef *hi2c, uint32_t IT2Flags)
{
 8004264:	b580      	push	{r7, lr}
 8004266:	b084      	sub	sp, #16
 8004268:	af00      	add	r7, sp, #0
 800426a:	6078      	str	r0, [r7, #4]
 800426c:	6039      	str	r1, [r7, #0]
  uint8_t TransferDirection = I2C_DIRECTION_RECEIVE;
 800426e:	2300      	movs	r3, #0
 8004270:	73fb      	strb	r3, [r7, #15]
  uint16_t SlaveAddrCode;

  if (((uint32_t)hi2c->State & (uint32_t)HAL_I2C_STATE_LISTEN) == (uint32_t)HAL_I2C_STATE_LISTEN)
 8004272:	687b      	ldr	r3, [r7, #4]
 8004274:	f893 303d 	ldrb.w	r3, [r3, #61]	; 0x3d
 8004278:	b2db      	uxtb	r3, r3
 800427a:	f003 0328 	and.w	r3, r3, #40	; 0x28
 800427e:	2b28      	cmp	r3, #40	; 0x28
 8004280:	d127      	bne.n	80042d2 <I2C_Slave_ADDR+0x6e>
  {
    /* Disable BUF interrupt, BUF enabling is manage through slave specific interface */
    __HAL_I2C_DISABLE_IT(hi2c, (I2C_IT_BUF));
 8004282:	687b      	ldr	r3, [r7, #4]
 8004284:	681b      	ldr	r3, [r3, #0]
 8004286:	685a      	ldr	r2, [r3, #4]
 8004288:	687b      	ldr	r3, [r7, #4]
 800428a:	681b      	ldr	r3, [r3, #0]
 800428c:	f422 6280 	bic.w	r2, r2, #1024	; 0x400
 8004290:	605a      	str	r2, [r3, #4]

    /* Transfer Direction requested by Master */
    if (I2C_CHECK_FLAG(IT2Flags, I2C_FLAG_TRA) == RESET)
 8004292:	683b      	ldr	r3, [r7, #0]
 8004294:	089b      	lsrs	r3, r3, #2
 8004296:	f003 0301 	and.w	r3, r3, #1
 800429a:	2b00      	cmp	r3, #0
 800429c:	d101      	bne.n	80042a2 <I2C_Slave_ADDR+0x3e>
    {
      TransferDirection = I2C_DIRECTION_TRANSMIT;
 800429e:	2301      	movs	r3, #1
 80042a0:	73fb      	strb	r3, [r7, #15]
    }

    if (I2C_CHECK_FLAG(IT2Flags, I2C_FLAG_DUALF) == RESET)
 80042a2:	683b      	ldr	r3, [r7, #0]
 80042a4:	09db      	lsrs	r3, r3, #7
 80042a6:	f003 0301 	and.w	r3, r3, #1
 80042aa:	2b00      	cmp	r3, #0
 80042ac:	d103      	bne.n	80042b6 <I2C_Slave_ADDR+0x52>
    {
      SlaveAddrCode = (uint16_t)hi2c->Init.OwnAddress1;
 80042ae:	687b      	ldr	r3, [r7, #4]
 80042b0:	68db      	ldr	r3, [r3, #12]
 80042b2:	81bb      	strh	r3, [r7, #12]
 80042b4:	e002      	b.n	80042bc <I2C_Slave_ADDR+0x58>
    }
    else
    {
      SlaveAddrCode = (uint16_t)hi2c->Init.OwnAddress2;
 80042b6:	687b      	ldr	r3, [r7, #4]
 80042b8:	699b      	ldr	r3, [r3, #24]
 80042ba:	81bb      	strh	r3, [r7, #12]
    }

    /* Process Unlocked */
    __HAL_UNLOCK(hi2c);
 80042bc:	687b      	ldr	r3, [r7, #4]
 80042be:	2200      	movs	r2, #0
 80042c0:	f883 203c 	strb.w	r2, [r3, #60]	; 0x3c

    /* Call Slave Addr callback */
#if (USE_HAL_I2C_REGISTER_CALLBACKS == 1)
    hi2c->AddrCallback(hi2c, TransferDirection, SlaveAddrCode);
#else
    HAL_I2C_AddrCallback(hi2c, TransferDirection, SlaveAddrCode);
 80042c4:	89ba      	ldrh	r2, [r7, #12]
 80042c6:	7bfb      	ldrb	r3, [r7, #15]
 80042c8:	4619      	mov	r1, r3
 80042ca:	6878      	ldr	r0, [r7, #4]
 80042cc:	f7ff f94a 	bl	8003564 <HAL_I2C_AddrCallback>
    __HAL_I2C_CLEAR_ADDRFLAG(hi2c);

    /* Process Unlocked */
    __HAL_UNLOCK(hi2c);
  }
}
 80042d0:	e00e      	b.n	80042f0 <I2C_Slave_ADDR+0x8c>
    __HAL_I2C_CLEAR_ADDRFLAG(hi2c);
 80042d2:	2300      	movs	r3, #0
 80042d4:	60bb      	str	r3, [r7, #8]
 80042d6:	687b      	ldr	r3, [r7, #4]
 80042d8:	681b      	ldr	r3, [r3, #0]
 80042da:	695b      	ldr	r3, [r3, #20]
 80042dc:	60bb      	str	r3, [r7, #8]
 80042de:	687b      	ldr	r3, [r7, #4]
 80042e0:	681b      	ldr	r3, [r3, #0]
 80042e2:	699b      	ldr	r3, [r3, #24]
 80042e4:	60bb      	str	r3, [r7, #8]
 80042e6:	68bb      	ldr	r3, [r7, #8]
    __HAL_UNLOCK(hi2c);
 80042e8:	687b      	ldr	r3, [r7, #4]
 80042ea:	2200      	movs	r2, #0
 80042ec:	f883 203c 	strb.w	r2, [r3, #60]	; 0x3c
}
 80042f0:	bf00      	nop
 80042f2:	3710      	adds	r7, #16
 80042f4:	46bd      	mov	sp, r7
 80042f6:	bd80      	pop	{r7, pc}

080042f8 <I2C_Slave_STOPF>:
  * @param  hi2c Pointer to a I2C_HandleTypeDef structure that contains
  *         the configuration information for I2C module
  * @retval None
  */
static void I2C_Slave_STOPF(I2C_HandleTypeDef *hi2c)
{
 80042f8:	b580      	push	{r7, lr}
 80042fa:	b084      	sub	sp, #16
 80042fc:	af00      	add	r7, sp, #0
 80042fe:	6078      	str	r0, [r7, #4]
  /* Declaration of temporary variable to prevent undefined behavior of volatile usage */
  HAL_I2C_StateTypeDef CurrentState = hi2c->State;
 8004300:	687b      	ldr	r3, [r7, #4]
 8004302:	f893 303d 	ldrb.w	r3, [r3, #61]	; 0x3d
 8004306:	73fb      	strb	r3, [r7, #15]

  /* Disable EVT, BUF and ERR interrupt */
  __HAL_I2C_DISABLE_IT(hi2c, I2C_IT_EVT | I2C_IT_BUF | I2C_IT_ERR);
 8004308:	687b      	ldr	r3, [r7, #4]
 800430a:	681b      	ldr	r3, [r3, #0]
 800430c:	685a      	ldr	r2, [r3, #4]
 800430e:	687b      	ldr	r3, [r7, #4]
 8004310:	681b      	ldr	r3, [r3, #0]
 8004312:	f422 62e0 	bic.w	r2, r2, #1792	; 0x700
 8004316:	605a      	str	r2, [r3, #4]

  /* Clear STOPF flag */
  __HAL_I2C_CLEAR_STOPFLAG(hi2c);
 8004318:	2300      	movs	r3, #0
 800431a:	60bb      	str	r3, [r7, #8]
 800431c:	687b      	ldr	r3, [r7, #4]
 800431e:	681b      	ldr	r3, [r3, #0]
 8004320:	695b      	ldr	r3, [r3, #20]
 8004322:	60bb      	str	r3, [r7, #8]
 8004324:	687b      	ldr	r3, [r7, #4]
 8004326:	681b      	ldr	r3, [r3, #0]
 8004328:	681a      	ldr	r2, [r3, #0]
 800432a:	687b      	ldr	r3, [r7, #4]
 800432c:	681b      	ldr	r3, [r3, #0]
 800432e:	f042 0201 	orr.w	r2, r2, #1
 8004332:	601a      	str	r2, [r3, #0]
 8004334:	68bb      	ldr	r3, [r7, #8]

  /* Disable Acknowledge */
  CLEAR_BIT(hi2c->Instance->CR1, I2C_CR1_ACK);
 8004336:	687b      	ldr	r3, [r7, #4]
 8004338:	681b      	ldr	r3, [r3, #0]
 800433a:	681a      	ldr	r2, [r3, #0]
 800433c:	687b      	ldr	r3, [r7, #4]
 800433e:	681b      	ldr	r3, [r3, #0]
 8004340:	f422 6280 	bic.w	r2, r2, #1024	; 0x400
 8004344:	601a      	str	r2, [r3, #0]

  /* If a DMA is ongoing, Update handle size context */
  if ((hi2c->Instance->CR2 & I2C_CR2_DMAEN) == I2C_CR2_DMAEN)
 8004346:	687b      	ldr	r3, [r7, #4]
 8004348:	681b      	ldr	r3, [r3, #0]
 800434a:	685b      	ldr	r3, [r3, #4]
 800434c:	f403 6300 	and.w	r3, r3, #2048	; 0x800
 8004350:	f5b3 6f00 	cmp.w	r3, #2048	; 0x800
 8004354:	d172      	bne.n	800443c <I2C_Slave_STOPF+0x144>
  {
    if ((CurrentState == HAL_I2C_STATE_BUSY_RX) || (CurrentState == HAL_I2C_STATE_BUSY_RX_LISTEN))
 8004356:	7bfb      	ldrb	r3, [r7, #15]
 8004358:	2b22      	cmp	r3, #34	; 0x22
 800435a:	d002      	beq.n	8004362 <I2C_Slave_STOPF+0x6a>
 800435c:	7bfb      	ldrb	r3, [r7, #15]
 800435e:	2b2a      	cmp	r3, #42	; 0x2a
 8004360:	d135      	bne.n	80043ce <I2C_Slave_STOPF+0xd6>
    {
      hi2c->XferCount = (uint16_t)(__HAL_DMA_GET_COUNTER(hi2c->hdmarx));
 8004362:	687b      	ldr	r3, [r7, #4]
 8004364:	6b9b      	ldr	r3, [r3, #56]	; 0x38
 8004366:	681b      	ldr	r3, [r3, #0]
 8004368:	685b      	ldr	r3, [r3, #4]
 800436a:	b29a      	uxth	r2, r3
 800436c:	687b      	ldr	r3, [r7, #4]
 800436e:	855a      	strh	r2, [r3, #42]	; 0x2a

      if (hi2c->XferCount != 0U)
 8004370:	687b      	ldr	r3, [r7, #4]
 8004372:	8d5b      	ldrh	r3, [r3, #42]	; 0x2a
 8004374:	b29b      	uxth	r3, r3
 8004376:	2b00      	cmp	r3, #0
 8004378:	d005      	beq.n	8004386 <I2C_Slave_STOPF+0x8e>
      {
        /* Set ErrorCode corresponding to a Non-Acknowledge */
        hi2c->ErrorCode |= HAL_I2C_ERROR_AF;
 800437a:	687b      	ldr	r3, [r7, #4]
 800437c:	6c1b      	ldr	r3, [r3, #64]	; 0x40
 800437e:	f043 0204 	orr.w	r2, r3, #4
 8004382:	687b      	ldr	r3, [r7, #4]
 8004384:	641a      	str	r2, [r3, #64]	; 0x40
      }

      /* Disable, stop the current DMA */
      CLEAR_BIT(hi2c->Instance->CR2, I2C_CR2_DMAEN);
 8004386:	687b      	ldr	r3, [r7, #4]
 8004388:	681b      	ldr	r3, [r3, #0]
 800438a:	685a      	ldr	r2, [r3, #4]
 800438c:	687b      	ldr	r3, [r7, #4]
 800438e:	681b      	ldr	r3, [r3, #0]
 8004390:	f422 6200 	bic.w	r2, r2, #2048	; 0x800
 8004394:	605a      	str	r2, [r3, #4]

      /* Abort DMA Xfer if any */
      if (HAL_DMA_GetState(hi2c->hdmarx) != HAL_DMA_STATE_READY)
 8004396:	687b      	ldr	r3, [r7, #4]
 8004398:	6b9b      	ldr	r3, [r3, #56]	; 0x38
 800439a:	4618      	mov	r0, r3
 800439c:	f7fd ffb2 	bl	8002304 <HAL_DMA_GetState>
 80043a0:	4603      	mov	r3, r0
 80043a2:	2b01      	cmp	r3, #1
 80043a4:	d049      	beq.n	800443a <I2C_Slave_STOPF+0x142>
      {
        /* Set the I2C DMA Abort callback :
        will lead to call HAL_I2C_ErrorCallback() at end of DMA abort procedure */
        hi2c->hdmarx->XferAbortCallback = I2C_DMAAbort;
 80043a6:	687b      	ldr	r3, [r7, #4]
 80043a8:	6b9b      	ldr	r3, [r3, #56]	; 0x38
 80043aa:	4a69      	ldr	r2, [pc, #420]	; (8004550 <I2C_Slave_STOPF+0x258>)
 80043ac:	651a      	str	r2, [r3, #80]	; 0x50

        /* Abort DMA RX */
        if (HAL_DMA_Abort_IT(hi2c->hdmarx) != HAL_OK)
 80043ae:	687b      	ldr	r3, [r7, #4]
 80043b0:	6b9b      	ldr	r3, [r3, #56]	; 0x38
 80043b2:	4618      	mov	r0, r3
 80043b4:	f7fd fdfa 	bl	8001fac <HAL_DMA_Abort_IT>
 80043b8:	4603      	mov	r3, r0
 80043ba:	2b00      	cmp	r3, #0
 80043bc:	d03d      	beq.n	800443a <I2C_Slave_STOPF+0x142>
        {
          /* Call Directly XferAbortCallback function in case of error */
          hi2c->hdmarx->XferAbortCallback(hi2c->hdmarx);
 80043be:	687b      	ldr	r3, [r7, #4]
 80043c0:	6b9b      	ldr	r3, [r3, #56]	; 0x38
 80043c2:	6d1b      	ldr	r3, [r3, #80]	; 0x50
 80043c4:	687a      	ldr	r2, [r7, #4]
 80043c6:	6b92      	ldr	r2, [r2, #56]	; 0x38
 80043c8:	4610      	mov	r0, r2
 80043ca:	4798      	blx	r3
      if (HAL_DMA_GetState(hi2c->hdmarx) != HAL_DMA_STATE_READY)
 80043cc:	e035      	b.n	800443a <I2C_Slave_STOPF+0x142>
        }
      }
    }
    else
    {
      hi2c->XferCount = (uint16_t)(__HAL_DMA_GET_COUNTER(hi2c->hdmatx));
 80043ce:	687b      	ldr	r3, [r7, #4]
 80043d0:	6b5b      	ldr	r3, [r3, #52]	; 0x34
 80043d2:	681b      	ldr	r3, [r3, #0]
 80043d4:	685b      	ldr	r3, [r3, #4]
 80043d6:	b29a      	uxth	r2, r3
 80043d8:	687b      	ldr	r3, [r7, #4]
 80043da:	855a      	strh	r2, [r3, #42]	; 0x2a

      if (hi2c->XferCount != 0U)
 80043dc:	687b      	ldr	r3, [r7, #4]
 80043de:	8d5b      	ldrh	r3, [r3, #42]	; 0x2a
 80043e0:	b29b      	uxth	r3, r3
 80043e2:	2b00      	cmp	r3, #0
 80043e4:	d005      	beq.n	80043f2 <I2C_Slave_STOPF+0xfa>
      {
        /* Set ErrorCode corresponding to a Non-Acknowledge */
        hi2c->ErrorCode |= HAL_I2C_ERROR_AF;
 80043e6:	687b      	ldr	r3, [r7, #4]
 80043e8:	6c1b      	ldr	r3, [r3, #64]	; 0x40
 80043ea:	f043 0204 	orr.w	r2, r3, #4
 80043ee:	687b      	ldr	r3, [r7, #4]
 80043f0:	641a      	str	r2, [r3, #64]	; 0x40
      }

      /* Disable, stop the current DMA */
      CLEAR_BIT(hi2c->Instance->CR2, I2C_CR2_DMAEN);
 80043f2:	687b      	ldr	r3, [r7, #4]
 80043f4:	681b      	ldr	r3, [r3, #0]
 80043f6:	685a      	ldr	r2, [r3, #4]
 80043f8:	687b      	ldr	r3, [r7, #4]
 80043fa:	681b      	ldr	r3, [r3, #0]
 80043fc:	f422 6200 	bic.w	r2, r2, #2048	; 0x800
 8004400:	605a      	str	r2, [r3, #4]

      /* Abort DMA Xfer if any */
      if (HAL_DMA_GetState(hi2c->hdmatx) != HAL_DMA_STATE_READY)
 8004402:	687b      	ldr	r3, [r7, #4]
 8004404:	6b5b      	ldr	r3, [r3, #52]	; 0x34
 8004406:	4618      	mov	r0, r3
 8004408:	f7fd ff7c 	bl	8002304 <HAL_DMA_GetState>
 800440c:	4603      	mov	r3, r0
 800440e:	2b01      	cmp	r3, #1
 8004410:	d014      	beq.n	800443c <I2C_Slave_STOPF+0x144>
      {
        /* Set the I2C DMA Abort callback :
        will lead to call HAL_I2C_ErrorCallback() at end of DMA abort procedure */
        hi2c->hdmatx->XferAbortCallback = I2C_DMAAbort;
 8004412:	687b      	ldr	r3, [r7, #4]
 8004414:	6b5b      	ldr	r3, [r3, #52]	; 0x34
 8004416:	4a4e      	ldr	r2, [pc, #312]	; (8004550 <I2C_Slave_STOPF+0x258>)
 8004418:	651a      	str	r2, [r3, #80]	; 0x50

        /* Abort DMA TX */
        if (HAL_DMA_Abort_IT(hi2c->hdmatx) != HAL_OK)
 800441a:	687b      	ldr	r3, [r7, #4]
 800441c:	6b5b      	ldr	r3, [r3, #52]	; 0x34
 800441e:	4618      	mov	r0, r3
 8004420:	f7fd fdc4 	bl	8001fac <HAL_DMA_Abort_IT>
 8004424:	4603      	mov	r3, r0
 8004426:	2b00      	cmp	r3, #0
 8004428:	d008      	beq.n	800443c <I2C_Slave_STOPF+0x144>
        {
          /* Call Directly XferAbortCallback function in case of error */
          hi2c->hdmatx->XferAbortCallback(hi2c->hdmatx);
 800442a:	687b      	ldr	r3, [r7, #4]
 800442c:	6b5b      	ldr	r3, [r3, #52]	; 0x34
 800442e:	6d1b      	ldr	r3, [r3, #80]	; 0x50
 8004430:	687a      	ldr	r2, [r7, #4]
 8004432:	6b52      	ldr	r2, [r2, #52]	; 0x34
 8004434:	4610      	mov	r0, r2
 8004436:	4798      	blx	r3
 8004438:	e000      	b.n	800443c <I2C_Slave_STOPF+0x144>
      if (HAL_DMA_GetState(hi2c->hdmarx) != HAL_DMA_STATE_READY)
 800443a:	bf00      	nop
      }
    }
  }

  /* All data are not transferred, so set error code accordingly */
  if (hi2c->XferCount != 0U)
 800443c:	687b      	ldr	r3, [r7, #4]
 800443e:	8d5b      	ldrh	r3, [r3, #42]	; 0x2a
 8004440:	b29b      	uxth	r3, r3
 8004442:	2b00      	cmp	r3, #0
 8004444:	d03e      	beq.n	80044c4 <I2C_Slave_STOPF+0x1cc>
  {
    /* Store Last receive data if any */
    if (__HAL_I2C_GET_FLAG(hi2c, I2C_FLAG_BTF) == SET)
 8004446:	687b      	ldr	r3, [r7, #4]
 8004448:	681b      	ldr	r3, [r3, #0]
 800444a:	695b      	ldr	r3, [r3, #20]
 800444c:	f003 0304 	and.w	r3, r3, #4
 8004450:	2b04      	cmp	r3, #4
 8004452:	d112      	bne.n	800447a <I2C_Slave_STOPF+0x182>
    {
      /* Read data from DR */
      *hi2c->pBuffPtr = (uint8_t)hi2c->Instance->DR;
 8004454:	687b      	ldr	r3, [r7, #4]
 8004456:	681b      	ldr	r3, [r3, #0]
 8004458:	691a      	ldr	r2, [r3, #16]
 800445a:	687b      	ldr	r3, [r7, #4]
 800445c:	6a5b      	ldr	r3, [r3, #36]	; 0x24
 800445e:	b2d2      	uxtb	r2, r2
 8004460:	701a      	strb	r2, [r3, #0]

      /* Increment Buffer pointer */
      hi2c->pBuffPtr++;
 8004462:	687b      	ldr	r3, [r7, #4]
 8004464:	6a5b      	ldr	r3, [r3, #36]	; 0x24
 8004466:	1c5a      	adds	r2, r3, #1
 8004468:	687b      	ldr	r3, [r7, #4]
 800446a:	625a      	str	r2, [r3, #36]	; 0x24

      /* Update counter */
      hi2c->XferCount--;
 800446c:	687b      	ldr	r3, [r7, #4]
 800446e:	8d5b      	ldrh	r3, [r3, #42]	; 0x2a
 8004470:	b29b      	uxth	r3, r3
 8004472:	3b01      	subs	r3, #1
 8004474:	b29a      	uxth	r2, r3
 8004476:	687b      	ldr	r3, [r7, #4]
 8004478:	855a      	strh	r2, [r3, #42]	; 0x2a
    }

    /* Store Last receive data if any */
    if (__HAL_I2C_GET_FLAG(hi2c, I2C_FLAG_RXNE) == SET)
 800447a:	687b      	ldr	r3, [r7, #4]
 800447c:	681b      	ldr	r3, [r3, #0]
 800447e:	695b      	ldr	r3, [r3, #20]
 8004480:	f003 0340 	and.w	r3, r3, #64	; 0x40
 8004484:	2b40      	cmp	r3, #64	; 0x40
 8004486:	d112      	bne.n	80044ae <I2C_Slave_STOPF+0x1b6>
    {
      /* Read data from DR */
      *hi2c->pBuffPtr = (uint8_t)hi2c->Instance->DR;
 8004488:	687b      	ldr	r3, [r7, #4]
 800448a:	681b      	ldr	r3, [r3, #0]
 800448c:	691a      	ldr	r2, [r3, #16]
 800448e:	687b      	ldr	r3, [r7, #4]
 8004490:	6a5b      	ldr	r3, [r3, #36]	; 0x24
 8004492:	b2d2      	uxtb	r2, r2
 8004494:	701a      	strb	r2, [r3, #0]

      /* Increment Buffer pointer */
      hi2c->pBuffPtr++;
 8004496:	687b      	ldr	r3, [r7, #4]
 8004498:	6a5b      	ldr	r3, [r3, #36]	; 0x24
 800449a:	1c5a      	adds	r2, r3, #1
 800449c:	687b      	ldr	r3, [r7, #4]
 800449e:	625a      	str	r2, [r3, #36]	; 0x24

      /* Update counter */
      hi2c->XferCount--;
 80044a0:	687b      	ldr	r3, [r7, #4]
 80044a2:	8d5b      	ldrh	r3, [r3, #42]	; 0x2a
 80044a4:	b29b      	uxth	r3, r3
 80044a6:	3b01      	subs	r3, #1
 80044a8:	b29a      	uxth	r2, r3
 80044aa:	687b      	ldr	r3, [r7, #4]
 80044ac:	855a      	strh	r2, [r3, #42]	; 0x2a
    }

    if (hi2c->XferCount != 0U)
 80044ae:	687b      	ldr	r3, [r7, #4]
 80044b0:	8d5b      	ldrh	r3, [r3, #42]	; 0x2a
 80044b2:	b29b      	uxth	r3, r3
 80044b4:	2b00      	cmp	r3, #0
 80044b6:	d005      	beq.n	80044c4 <I2C_Slave_STOPF+0x1cc>
    {
      /* Set ErrorCode corresponding to a Non-Acknowledge */
      hi2c->ErrorCode |= HAL_I2C_ERROR_AF;
 80044b8:	687b      	ldr	r3, [r7, #4]
 80044ba:	6c1b      	ldr	r3, [r3, #64]	; 0x40
 80044bc:	f043 0204 	orr.w	r2, r3, #4
 80044c0:	687b      	ldr	r3, [r7, #4]
 80044c2:	641a      	str	r2, [r3, #64]	; 0x40
    }
  }

  if (hi2c->ErrorCode != HAL_I2C_ERROR_NONE)
 80044c4:	687b      	ldr	r3, [r7, #4]
 80044c6:	6c1b      	ldr	r3, [r3, #64]	; 0x40
 80044c8:	2b00      	cmp	r3, #0
 80044ca:	d003      	beq.n	80044d4 <I2C_Slave_STOPF+0x1dc>
  {
    /* Call the corresponding callback to inform upper layer of End of Transfer */
    I2C_ITError(hi2c);
 80044cc:	6878      	ldr	r0, [r7, #4]
 80044ce:	f000 f8b3 	bl	8004638 <I2C_ITError>
        HAL_I2C_SlaveRxCpltCallback(hi2c);
#endif /* USE_HAL_I2C_REGISTER_CALLBACKS */
      }
    }
  }
}
 80044d2:	e039      	b.n	8004548 <I2C_Slave_STOPF+0x250>
    if (CurrentState == HAL_I2C_STATE_BUSY_RX_LISTEN)
 80044d4:	7bfb      	ldrb	r3, [r7, #15]
 80044d6:	2b2a      	cmp	r3, #42	; 0x2a
 80044d8:	d109      	bne.n	80044ee <I2C_Slave_STOPF+0x1f6>
      hi2c->PreviousState = I2C_STATE_NONE;
 80044da:	687b      	ldr	r3, [r7, #4]
 80044dc:	2200      	movs	r2, #0
 80044de:	631a      	str	r2, [r3, #48]	; 0x30
      hi2c->State = HAL_I2C_STATE_LISTEN;
 80044e0:	687b      	ldr	r3, [r7, #4]
 80044e2:	2228      	movs	r2, #40	; 0x28
 80044e4:	f883 203d 	strb.w	r2, [r3, #61]	; 0x3d
      HAL_I2C_SlaveRxCpltCallback(hi2c);
 80044e8:	6878      	ldr	r0, [r7, #4]
 80044ea:	f7ff f831 	bl	8003550 <HAL_I2C_SlaveRxCpltCallback>
    if (hi2c->State == HAL_I2C_STATE_LISTEN)
 80044ee:	687b      	ldr	r3, [r7, #4]
 80044f0:	f893 303d 	ldrb.w	r3, [r3, #61]	; 0x3d
 80044f4:	b2db      	uxtb	r3, r3
 80044f6:	2b28      	cmp	r3, #40	; 0x28
 80044f8:	d111      	bne.n	800451e <I2C_Slave_STOPF+0x226>
      hi2c->XferOptions = I2C_NO_OPTION_FRAME;
 80044fa:	687b      	ldr	r3, [r7, #4]
 80044fc:	4a15      	ldr	r2, [pc, #84]	; (8004554 <I2C_Slave_STOPF+0x25c>)
 80044fe:	62da      	str	r2, [r3, #44]	; 0x2c
      hi2c->PreviousState = I2C_STATE_NONE;
 8004500:	687b      	ldr	r3, [r7, #4]
 8004502:	2200      	movs	r2, #0
 8004504:	631a      	str	r2, [r3, #48]	; 0x30
      hi2c->State = HAL_I2C_STATE_READY;
 8004506:	687b      	ldr	r3, [r7, #4]
 8004508:	2220      	movs	r2, #32
 800450a:	f883 203d 	strb.w	r2, [r3, #61]	; 0x3d
      hi2c->Mode = HAL_I2C_MODE_NONE;
 800450e:	687b      	ldr	r3, [r7, #4]
 8004510:	2200      	movs	r2, #0
 8004512:	f883 203e 	strb.w	r2, [r3, #62]	; 0x3e
      HAL_I2C_ListenCpltCallback(hi2c);
 8004516:	6878      	ldr	r0, [r7, #4]
 8004518:	f7ff f832 	bl	8003580 <HAL_I2C_ListenCpltCallback>
}
 800451c:	e014      	b.n	8004548 <I2C_Slave_STOPF+0x250>
      if ((hi2c->PreviousState  == I2C_STATE_SLAVE_BUSY_RX) || (CurrentState == HAL_I2C_STATE_BUSY_RX))
 800451e:	687b      	ldr	r3, [r7, #4]
 8004520:	6b1b      	ldr	r3, [r3, #48]	; 0x30
 8004522:	2b22      	cmp	r3, #34	; 0x22
 8004524:	d002      	beq.n	800452c <I2C_Slave_STOPF+0x234>
 8004526:	7bfb      	ldrb	r3, [r7, #15]
 8004528:	2b22      	cmp	r3, #34	; 0x22
 800452a:	d10d      	bne.n	8004548 <I2C_Slave_STOPF+0x250>
        hi2c->PreviousState = I2C_STATE_NONE;
 800452c:	687b      	ldr	r3, [r7, #4]
 800452e:	2200      	movs	r2, #0
 8004530:	631a      	str	r2, [r3, #48]	; 0x30
        hi2c->State = HAL_I2C_STATE_READY;
 8004532:	687b      	ldr	r3, [r7, #4]
 8004534:	2220      	movs	r2, #32
 8004536:	f883 203d 	strb.w	r2, [r3, #61]	; 0x3d
        hi2c->Mode = HAL_I2C_MODE_NONE;
 800453a:	687b      	ldr	r3, [r7, #4]
 800453c:	2200      	movs	r2, #0
 800453e:	f883 203e 	strb.w	r2, [r3, #62]	; 0x3e
        HAL_I2C_SlaveRxCpltCallback(hi2c);
 8004542:	6878      	ldr	r0, [r7, #4]
 8004544:	f7ff f804 	bl	8003550 <HAL_I2C_SlaveRxCpltCallback>
}
 8004548:	bf00      	nop
 800454a:	3710      	adds	r7, #16
 800454c:	46bd      	mov	sp, r7
 800454e:	bd80      	pop	{r7, pc}
 8004550:	08004b99 	.word	0x08004b99
 8004554:	ffff0000 	.word	0xffff0000

08004558 <I2C_Slave_AF>:
  * @param  hi2c Pointer to a I2C_HandleTypeDef structure that contains
  *         the configuration information for I2C module
  * @retval None
  */
static void I2C_Slave_AF(I2C_HandleTypeDef *hi2c)
{
 8004558:	b580      	push	{r7, lr}
 800455a:	b084      	sub	sp, #16
 800455c:	af00      	add	r7, sp, #0
 800455e:	6078      	str	r0, [r7, #4]
  /* Declaration of temporary variables to prevent undefined behavior of volatile usage */
  HAL_I2C_StateTypeDef CurrentState = hi2c->State;
 8004560:	687b      	ldr	r3, [r7, #4]
 8004562:	f893 303d 	ldrb.w	r3, [r3, #61]	; 0x3d
 8004566:	73fb      	strb	r3, [r7, #15]
  uint32_t CurrentXferOptions       = hi2c->XferOptions;
 8004568:	687b      	ldr	r3, [r7, #4]
 800456a:	6adb      	ldr	r3, [r3, #44]	; 0x2c
 800456c:	60bb      	str	r3, [r7, #8]

  if (((CurrentXferOptions ==  I2C_FIRST_AND_LAST_FRAME) || (CurrentXferOptions == I2C_LAST_FRAME)) && \
 800456e:	68bb      	ldr	r3, [r7, #8]
 8004570:	2b08      	cmp	r3, #8
 8004572:	d002      	beq.n	800457a <I2C_Slave_AF+0x22>
 8004574:	68bb      	ldr	r3, [r7, #8]
 8004576:	2b20      	cmp	r3, #32
 8004578:	d129      	bne.n	80045ce <I2C_Slave_AF+0x76>
 800457a:	7bfb      	ldrb	r3, [r7, #15]
 800457c:	2b28      	cmp	r3, #40	; 0x28
 800457e:	d126      	bne.n	80045ce <I2C_Slave_AF+0x76>
      (CurrentState == HAL_I2C_STATE_LISTEN))
  {
    hi2c->XferOptions = I2C_NO_OPTION_FRAME;
 8004580:	687b      	ldr	r3, [r7, #4]
 8004582:	4a2c      	ldr	r2, [pc, #176]	; (8004634 <I2C_Slave_AF+0xdc>)
 8004584:	62da      	str	r2, [r3, #44]	; 0x2c

    /* Disable EVT, BUF and ERR interrupt */
    __HAL_I2C_DISABLE_IT(hi2c, I2C_IT_EVT | I2C_IT_BUF | I2C_IT_ERR);
 8004586:	687b      	ldr	r3, [r7, #4]
 8004588:	681b      	ldr	r3, [r3, #0]
 800458a:	685a      	ldr	r2, [r3, #4]
 800458c:	687b      	ldr	r3, [r7, #4]
 800458e:	681b      	ldr	r3, [r3, #0]
 8004590:	f422 62e0 	bic.w	r2, r2, #1792	; 0x700
 8004594:	605a      	str	r2, [r3, #4]

    /* Clear AF flag */
    __HAL_I2C_CLEAR_FLAG(hi2c, I2C_FLAG_AF);
 8004596:	687b      	ldr	r3, [r7, #4]
 8004598:	681b      	ldr	r3, [r3, #0]
 800459a:	f46f 6280 	mvn.w	r2, #1024	; 0x400
 800459e:	615a      	str	r2, [r3, #20]

    /* Disable Acknowledge */
    CLEAR_BIT(hi2c->Instance->CR1, I2C_CR1_ACK);
 80045a0:	687b      	ldr	r3, [r7, #4]
 80045a2:	681b      	ldr	r3, [r3, #0]
 80045a4:	681a      	ldr	r2, [r3, #0]
 80045a6:	687b      	ldr	r3, [r7, #4]
 80045a8:	681b      	ldr	r3, [r3, #0]
 80045aa:	f422 6280 	bic.w	r2, r2, #1024	; 0x400
 80045ae:	601a      	str	r2, [r3, #0]

    hi2c->PreviousState = I2C_STATE_NONE;
 80045b0:	687b      	ldr	r3, [r7, #4]
 80045b2:	2200      	movs	r2, #0
 80045b4:	631a      	str	r2, [r3, #48]	; 0x30
    hi2c->State         = HAL_I2C_STATE_READY;
 80045b6:	687b      	ldr	r3, [r7, #4]
 80045b8:	2220      	movs	r2, #32
 80045ba:	f883 203d 	strb.w	r2, [r3, #61]	; 0x3d
    hi2c->Mode          = HAL_I2C_MODE_NONE;
 80045be:	687b      	ldr	r3, [r7, #4]
 80045c0:	2200      	movs	r2, #0
 80045c2:	f883 203e 	strb.w	r2, [r3, #62]	; 0x3e

    /* Call the Listen Complete callback, to inform upper layer of the end of Listen usecase */
#if (USE_HAL_I2C_REGISTER_CALLBACKS == 1)
    hi2c->ListenCpltCallback(hi2c);
#else
    HAL_I2C_ListenCpltCallback(hi2c);
 80045c6:	6878      	ldr	r0, [r7, #4]
 80045c8:	f7fe ffda 	bl	8003580 <HAL_I2C_ListenCpltCallback>
  {
    /* Clear AF flag only */
    /* State Listen, but XferOptions == FIRST or NEXT */
    __HAL_I2C_CLEAR_FLAG(hi2c, I2C_FLAG_AF);
  }
}
 80045cc:	e02e      	b.n	800462c <I2C_Slave_AF+0xd4>
  else if (CurrentState == HAL_I2C_STATE_BUSY_TX)
 80045ce:	7bfb      	ldrb	r3, [r7, #15]
 80045d0:	2b21      	cmp	r3, #33	; 0x21
 80045d2:	d126      	bne.n	8004622 <I2C_Slave_AF+0xca>
    hi2c->XferOptions   = I2C_NO_OPTION_FRAME;
 80045d4:	687b      	ldr	r3, [r7, #4]
 80045d6:	4a17      	ldr	r2, [pc, #92]	; (8004634 <I2C_Slave_AF+0xdc>)
 80045d8:	62da      	str	r2, [r3, #44]	; 0x2c
    hi2c->PreviousState = I2C_STATE_SLAVE_BUSY_TX;
 80045da:	687b      	ldr	r3, [r7, #4]
 80045dc:	2221      	movs	r2, #33	; 0x21
 80045de:	631a      	str	r2, [r3, #48]	; 0x30
    hi2c->State         = HAL_I2C_STATE_READY;
 80045e0:	687b      	ldr	r3, [r7, #4]
 80045e2:	2220      	movs	r2, #32
 80045e4:	f883 203d 	strb.w	r2, [r3, #61]	; 0x3d
    hi2c->Mode          = HAL_I2C_MODE_NONE;
 80045e8:	687b      	ldr	r3, [r7, #4]
 80045ea:	2200      	movs	r2, #0
 80045ec:	f883 203e 	strb.w	r2, [r3, #62]	; 0x3e
    __HAL_I2C_DISABLE_IT(hi2c, I2C_IT_EVT | I2C_IT_BUF | I2C_IT_ERR);
 80045f0:	687b      	ldr	r3, [r7, #4]
 80045f2:	681b      	ldr	r3, [r3, #0]
 80045f4:	685a      	ldr	r2, [r3, #4]
 80045f6:	687b      	ldr	r3, [r7, #4]
 80045f8:	681b      	ldr	r3, [r3, #0]
 80045fa:	f422 62e0 	bic.w	r2, r2, #1792	; 0x700
 80045fe:	605a      	str	r2, [r3, #4]
    __HAL_I2C_CLEAR_FLAG(hi2c, I2C_FLAG_AF);
 8004600:	687b      	ldr	r3, [r7, #4]
 8004602:	681b      	ldr	r3, [r3, #0]
 8004604:	f46f 6280 	mvn.w	r2, #1024	; 0x400
 8004608:	615a      	str	r2, [r3, #20]
    CLEAR_BIT(hi2c->Instance->CR1, I2C_CR1_ACK);
 800460a:	687b      	ldr	r3, [r7, #4]
 800460c:	681b      	ldr	r3, [r3, #0]
 800460e:	681a      	ldr	r2, [r3, #0]
 8004610:	687b      	ldr	r3, [r7, #4]
 8004612:	681b      	ldr	r3, [r3, #0]
 8004614:	f422 6280 	bic.w	r2, r2, #1024	; 0x400
 8004618:	601a      	str	r2, [r3, #0]
    HAL_I2C_SlaveTxCpltCallback(hi2c);
 800461a:	6878      	ldr	r0, [r7, #4]
 800461c:	f7fe ff8e 	bl	800353c <HAL_I2C_SlaveTxCpltCallback>
}
 8004620:	e004      	b.n	800462c <I2C_Slave_AF+0xd4>
    __HAL_I2C_CLEAR_FLAG(hi2c, I2C_FLAG_AF);
 8004622:	687b      	ldr	r3, [r7, #4]
 8004624:	681b      	ldr	r3, [r3, #0]
 8004626:	f46f 6280 	mvn.w	r2, #1024	; 0x400
 800462a:	615a      	str	r2, [r3, #20]
}
 800462c:	bf00      	nop
 800462e:	3710      	adds	r7, #16
 8004630:	46bd      	mov	sp, r7
 8004632:	bd80      	pop	{r7, pc}
 8004634:	ffff0000 	.word	0xffff0000

08004638 <I2C_ITError>:
  * @brief  I2C interrupts error process
  * @param  hi2c I2C handle.
  * @retval None
  */
static void I2C_ITError(I2C_HandleTypeDef *hi2c)
{
 8004638:	b580      	push	{r7, lr}
 800463a:	b084      	sub	sp, #16
 800463c:	af00      	add	r7, sp, #0
 800463e:	6078      	str	r0, [r7, #4]
  /* Declaration of temporary variable to prevent undefined behavior of volatile usage */
  HAL_I2C_StateTypeDef CurrentState = hi2c->State;
 8004640:	687b      	ldr	r3, [r7, #4]
 8004642:	f893 303d 	ldrb.w	r3, [r3, #61]	; 0x3d
 8004646:	73fb      	strb	r3, [r7, #15]
  HAL_I2C_ModeTypeDef CurrentMode = hi2c->Mode;
 8004648:	687b      	ldr	r3, [r7, #4]
 800464a:	f893 303e 	ldrb.w	r3, [r3, #62]	; 0x3e
 800464e:	73bb      	strb	r3, [r7, #14]
  uint32_t CurrentError;

  if (((CurrentMode == HAL_I2C_MODE_MASTER) || (CurrentMode == HAL_I2C_MODE_MEM)) && (CurrentState == HAL_I2C_STATE_BUSY_RX))
 8004650:	7bbb      	ldrb	r3, [r7, #14]
 8004652:	2b10      	cmp	r3, #16
 8004654:	d002      	beq.n	800465c <I2C_ITError+0x24>
 8004656:	7bbb      	ldrb	r3, [r7, #14]
 8004658:	2b40      	cmp	r3, #64	; 0x40
 800465a:	d10a      	bne.n	8004672 <I2C_ITError+0x3a>
 800465c:	7bfb      	ldrb	r3, [r7, #15]
 800465e:	2b22      	cmp	r3, #34	; 0x22
 8004660:	d107      	bne.n	8004672 <I2C_ITError+0x3a>
  {
    /* Disable Pos bit in I2C CR1 when error occurred in Master/Mem Receive IT Process */
    hi2c->Instance->CR1 &= ~I2C_CR1_POS;
 8004662:	687b      	ldr	r3, [r7, #4]
 8004664:	681b      	ldr	r3, [r3, #0]
 8004666:	681a      	ldr	r2, [r3, #0]
 8004668:	687b      	ldr	r3, [r7, #4]
 800466a:	681b      	ldr	r3, [r3, #0]
 800466c:	f422 6200 	bic.w	r2, r2, #2048	; 0x800
 8004670:	601a      	str	r2, [r3, #0]
  }

  if (((uint32_t)CurrentState & (uint32_t)HAL_I2C_STATE_LISTEN) == (uint32_t)HAL_I2C_STATE_LISTEN)
 8004672:	7bfb      	ldrb	r3, [r7, #15]
 8004674:	f003 0328 	and.w	r3, r3, #40	; 0x28
 8004678:	2b28      	cmp	r3, #40	; 0x28
 800467a:	d107      	bne.n	800468c <I2C_ITError+0x54>
  {
    /* keep HAL_I2C_STATE_LISTEN */
    hi2c->PreviousState = I2C_STATE_NONE;
 800467c:	687b      	ldr	r3, [r7, #4]
 800467e:	2200      	movs	r2, #0
 8004680:	631a      	str	r2, [r3, #48]	; 0x30
    hi2c->State = HAL_I2C_STATE_LISTEN;
 8004682:	687b      	ldr	r3, [r7, #4]
 8004684:	2228      	movs	r2, #40	; 0x28
 8004686:	f883 203d 	strb.w	r2, [r3, #61]	; 0x3d
 800468a:	e015      	b.n	80046b8 <I2C_ITError+0x80>
  }
  else
  {
    /* If state is an abort treatment on going, don't change state */
    /* This change will be do later */
    if ((READ_BIT(hi2c->Instance->CR2, I2C_CR2_DMAEN) != I2C_CR2_DMAEN) && (CurrentState != HAL_I2C_STATE_ABORT))
 800468c:	687b      	ldr	r3, [r7, #4]
 800468e:	681b      	ldr	r3, [r3, #0]
 8004690:	685b      	ldr	r3, [r3, #4]
 8004692:	f403 6300 	and.w	r3, r3, #2048	; 0x800
 8004696:	f5b3 6f00 	cmp.w	r3, #2048	; 0x800
 800469a:	d00a      	beq.n	80046b2 <I2C_ITError+0x7a>
 800469c:	7bfb      	ldrb	r3, [r7, #15]
 800469e:	2b60      	cmp	r3, #96	; 0x60
 80046a0:	d007      	beq.n	80046b2 <I2C_ITError+0x7a>
    {
      hi2c->State = HAL_I2C_STATE_READY;
 80046a2:	687b      	ldr	r3, [r7, #4]
 80046a4:	2220      	movs	r2, #32
 80046a6:	f883 203d 	strb.w	r2, [r3, #61]	; 0x3d
      hi2c->Mode = HAL_I2C_MODE_NONE;
 80046aa:	687b      	ldr	r3, [r7, #4]
 80046ac:	2200      	movs	r2, #0
 80046ae:	f883 203e 	strb.w	r2, [r3, #62]	; 0x3e
    }
    hi2c->PreviousState = I2C_STATE_NONE;
 80046b2:	687b      	ldr	r3, [r7, #4]
 80046b4:	2200      	movs	r2, #0
 80046b6:	631a      	str	r2, [r3, #48]	; 0x30
  }

  /* Abort DMA transfer */
  if (READ_BIT(hi2c->Instance->CR2, I2C_CR2_DMAEN) == I2C_CR2_DMAEN)
 80046b8:	687b      	ldr	r3, [r7, #4]
 80046ba:	681b      	ldr	r3, [r3, #0]
 80046bc:	685b      	ldr	r3, [r3, #4]
 80046be:	f403 6300 	and.w	r3, r3, #2048	; 0x800
 80046c2:	f5b3 6f00 	cmp.w	r3, #2048	; 0x800
 80046c6:	d162      	bne.n	800478e <I2C_ITError+0x156>
  {
    hi2c->Instance->CR2 &= ~I2C_CR2_DMAEN;
 80046c8:	687b      	ldr	r3, [r7, #4]
 80046ca:	681b      	ldr	r3, [r3, #0]
 80046cc:	685a      	ldr	r2, [r3, #4]
 80046ce:	687b      	ldr	r3, [r7, #4]
 80046d0:	681b      	ldr	r3, [r3, #0]
 80046d2:	f422 6200 	bic.w	r2, r2, #2048	; 0x800
 80046d6:	605a      	str	r2, [r3, #4]

    if (hi2c->hdmatx->State != HAL_DMA_STATE_READY)
 80046d8:	687b      	ldr	r3, [r7, #4]
 80046da:	6b5b      	ldr	r3, [r3, #52]	; 0x34
 80046dc:	f893 3035 	ldrb.w	r3, [r3, #53]	; 0x35
 80046e0:	b2db      	uxtb	r3, r3
 80046e2:	2b01      	cmp	r3, #1
 80046e4:	d020      	beq.n	8004728 <I2C_ITError+0xf0>
    {
      /* Set the DMA Abort callback :
      will lead to call HAL_I2C_ErrorCallback() at end of DMA abort procedure */
      hi2c->hdmatx->XferAbortCallback = I2C_DMAAbort;
 80046e6:	687b      	ldr	r3, [r7, #4]
 80046e8:	6b5b      	ldr	r3, [r3, #52]	; 0x34
 80046ea:	4a6a      	ldr	r2, [pc, #424]	; (8004894 <I2C_ITError+0x25c>)
 80046ec:	651a      	str	r2, [r3, #80]	; 0x50

      if (HAL_DMA_Abort_IT(hi2c->hdmatx) != HAL_OK)
 80046ee:	687b      	ldr	r3, [r7, #4]
 80046f0:	6b5b      	ldr	r3, [r3, #52]	; 0x34
 80046f2:	4618      	mov	r0, r3
 80046f4:	f7fd fc5a 	bl	8001fac <HAL_DMA_Abort_IT>
 80046f8:	4603      	mov	r3, r0
 80046fa:	2b00      	cmp	r3, #0
 80046fc:	f000 8089 	beq.w	8004812 <I2C_ITError+0x1da>
      {
        /* Disable I2C peripheral to prevent dummy data in buffer */
        __HAL_I2C_DISABLE(hi2c);
 8004700:	687b      	ldr	r3, [r7, #4]
 8004702:	681b      	ldr	r3, [r3, #0]
 8004704:	681a      	ldr	r2, [r3, #0]
 8004706:	687b      	ldr	r3, [r7, #4]
 8004708:	681b      	ldr	r3, [r3, #0]
 800470a:	f022 0201 	bic.w	r2, r2, #1
 800470e:	601a      	str	r2, [r3, #0]

        hi2c->State = HAL_I2C_STATE_READY;
 8004710:	687b      	ldr	r3, [r7, #4]
 8004712:	2220      	movs	r2, #32
 8004714:	f883 203d 	strb.w	r2, [r3, #61]	; 0x3d

        /* Call Directly XferAbortCallback function in case of error */
        hi2c->hdmatx->XferAbortCallback(hi2c->hdmatx);
 8004718:	687b      	ldr	r3, [r7, #4]
 800471a:	6b5b      	ldr	r3, [r3, #52]	; 0x34
 800471c:	6d1b      	ldr	r3, [r3, #80]	; 0x50
 800471e:	687a      	ldr	r2, [r7, #4]
 8004720:	6b52      	ldr	r2, [r2, #52]	; 0x34
 8004722:	4610      	mov	r0, r2
 8004724:	4798      	blx	r3
 8004726:	e074      	b.n	8004812 <I2C_ITError+0x1da>
    }
    else
    {
      /* Set the DMA Abort callback :
      will lead to call HAL_I2C_ErrorCallback() at end of DMA abort procedure */
      hi2c->hdmarx->XferAbortCallback = I2C_DMAAbort;
 8004728:	687b      	ldr	r3, [r7, #4]
 800472a:	6b9b      	ldr	r3, [r3, #56]	; 0x38
 800472c:	4a59      	ldr	r2, [pc, #356]	; (8004894 <I2C_ITError+0x25c>)
 800472e:	651a      	str	r2, [r3, #80]	; 0x50

      if (HAL_DMA_Abort_IT(hi2c->hdmarx) != HAL_OK)
 8004730:	687b      	ldr	r3, [r7, #4]
 8004732:	6b9b      	ldr	r3, [r3, #56]	; 0x38
 8004734:	4618      	mov	r0, r3
 8004736:	f7fd fc39 	bl	8001fac <HAL_DMA_Abort_IT>
 800473a:	4603      	mov	r3, r0
 800473c:	2b00      	cmp	r3, #0
 800473e:	d068      	beq.n	8004812 <I2C_ITError+0x1da>
      {
        /* Store Last receive data if any */
        if (__HAL_I2C_GET_FLAG(hi2c, I2C_FLAG_RXNE) == SET)
 8004740:	687b      	ldr	r3, [r7, #4]
 8004742:	681b      	ldr	r3, [r3, #0]
 8004744:	695b      	ldr	r3, [r3, #20]
 8004746:	f003 0340 	and.w	r3, r3, #64	; 0x40
 800474a:	2b40      	cmp	r3, #64	; 0x40
 800474c:	d10b      	bne.n	8004766 <I2C_ITError+0x12e>
        {
          /* Read data from DR */
          *hi2c->pBuffPtr = (uint8_t)hi2c->Instance->DR;
 800474e:	687b      	ldr	r3, [r7, #4]
 8004750:	681b      	ldr	r3, [r3, #0]
 8004752:	691a      	ldr	r2, [r3, #16]
 8004754:	687b      	ldr	r3, [r7, #4]
 8004756:	6a5b      	ldr	r3, [r3, #36]	; 0x24
 8004758:	b2d2      	uxtb	r2, r2
 800475a:	701a      	strb	r2, [r3, #0]

          /* Increment Buffer pointer */
          hi2c->pBuffPtr++;
 800475c:	687b      	ldr	r3, [r7, #4]
 800475e:	6a5b      	ldr	r3, [r3, #36]	; 0x24
 8004760:	1c5a      	adds	r2, r3, #1
 8004762:	687b      	ldr	r3, [r7, #4]
 8004764:	625a      	str	r2, [r3, #36]	; 0x24
        }

        /* Disable I2C peripheral to prevent dummy data in buffer */
        __HAL_I2C_DISABLE(hi2c);
 8004766:	687b      	ldr	r3, [r7, #4]
 8004768:	681b      	ldr	r3, [r3, #0]
 800476a:	681a      	ldr	r2, [r3, #0]
 800476c:	687b      	ldr	r3, [r7, #4]
 800476e:	681b      	ldr	r3, [r3, #0]
 8004770:	f022 0201 	bic.w	r2, r2, #1
 8004774:	601a      	str	r2, [r3, #0]

        hi2c->State = HAL_I2C_STATE_READY;
 8004776:	687b      	ldr	r3, [r7, #4]
 8004778:	2220      	movs	r2, #32
 800477a:	f883 203d 	strb.w	r2, [r3, #61]	; 0x3d

        /* Call Directly hi2c->hdmarx->XferAbortCallback function in case of error */
        hi2c->hdmarx->XferAbortCallback(hi2c->hdmarx);
 800477e:	687b      	ldr	r3, [r7, #4]
 8004780:	6b9b      	ldr	r3, [r3, #56]	; 0x38
 8004782:	6d1b      	ldr	r3, [r3, #80]	; 0x50
 8004784:	687a      	ldr	r2, [r7, #4]
 8004786:	6b92      	ldr	r2, [r2, #56]	; 0x38
 8004788:	4610      	mov	r0, r2
 800478a:	4798      	blx	r3
 800478c:	e041      	b.n	8004812 <I2C_ITError+0x1da>
      }
    }
  }
  else if (hi2c->State == HAL_I2C_STATE_ABORT)
 800478e:	687b      	ldr	r3, [r7, #4]
 8004790:	f893 303d 	ldrb.w	r3, [r3, #61]	; 0x3d
 8004794:	b2db      	uxtb	r3, r3
 8004796:	2b60      	cmp	r3, #96	; 0x60
 8004798:	d125      	bne.n	80047e6 <I2C_ITError+0x1ae>
  {
    hi2c->State = HAL_I2C_STATE_READY;
 800479a:	687b      	ldr	r3, [r7, #4]
 800479c:	2220      	movs	r2, #32
 800479e:	f883 203d 	strb.w	r2, [r3, #61]	; 0x3d
    hi2c->ErrorCode = HAL_I2C_ERROR_NONE;
 80047a2:	687b      	ldr	r3, [r7, #4]
 80047a4:	2200      	movs	r2, #0
 80047a6:	641a      	str	r2, [r3, #64]	; 0x40

    /* Store Last receive data if any */
    if (__HAL_I2C_GET_FLAG(hi2c, I2C_FLAG_RXNE) == SET)
 80047a8:	687b      	ldr	r3, [r7, #4]
 80047aa:	681b      	ldr	r3, [r3, #0]
 80047ac:	695b      	ldr	r3, [r3, #20]
 80047ae:	f003 0340 	and.w	r3, r3, #64	; 0x40
 80047b2:	2b40      	cmp	r3, #64	; 0x40
 80047b4:	d10b      	bne.n	80047ce <I2C_ITError+0x196>
    {
      /* Read data from DR */
      *hi2c->pBuffPtr = (uint8_t)hi2c->Instance->DR;
 80047b6:	687b      	ldr	r3, [r7, #4]
 80047b8:	681b      	ldr	r3, [r3, #0]
 80047ba:	691a      	ldr	r2, [r3, #16]
 80047bc:	687b      	ldr	r3, [r7, #4]
 80047be:	6a5b      	ldr	r3, [r3, #36]	; 0x24
 80047c0:	b2d2      	uxtb	r2, r2
 80047c2:	701a      	strb	r2, [r3, #0]

      /* Increment Buffer pointer */
      hi2c->pBuffPtr++;
 80047c4:	687b      	ldr	r3, [r7, #4]
 80047c6:	6a5b      	ldr	r3, [r3, #36]	; 0x24
 80047c8:	1c5a      	adds	r2, r3, #1
 80047ca:	687b      	ldr	r3, [r7, #4]
 80047cc:	625a      	str	r2, [r3, #36]	; 0x24
    }

    /* Disable I2C peripheral to prevent dummy data in buffer */
    __HAL_I2C_DISABLE(hi2c);
 80047ce:	687b      	ldr	r3, [r7, #4]
 80047d0:	681b      	ldr	r3, [r3, #0]
 80047d2:	681a      	ldr	r2, [r3, #0]
 80047d4:	687b      	ldr	r3, [r7, #4]
 80047d6:	681b      	ldr	r3, [r3, #0]
 80047d8:	f022 0201 	bic.w	r2, r2, #1
 80047dc:	601a      	str	r2, [r3, #0]

    /* Call the corresponding callback to inform upper layer of End of Transfer */
#if (USE_HAL_I2C_REGISTER_CALLBACKS == 1)
    hi2c->AbortCpltCallback(hi2c);
#else
    HAL_I2C_AbortCpltCallback(hi2c);
 80047de:	6878      	ldr	r0, [r7, #4]
 80047e0:	f7fe fef6 	bl	80035d0 <HAL_I2C_AbortCpltCallback>
 80047e4:	e015      	b.n	8004812 <I2C_ITError+0x1da>
#endif /* USE_HAL_I2C_REGISTER_CALLBACKS */
  }
  else
  {
    /* Store Last receive data if any */
    if (__HAL_I2C_GET_FLAG(hi2c, I2C_FLAG_RXNE) == SET)
 80047e6:	687b      	ldr	r3, [r7, #4]
 80047e8:	681b      	ldr	r3, [r3, #0]
 80047ea:	695b      	ldr	r3, [r3, #20]
 80047ec:	f003 0340 	and.w	r3, r3, #64	; 0x40
 80047f0:	2b40      	cmp	r3, #64	; 0x40
 80047f2:	d10b      	bne.n	800480c <I2C_ITError+0x1d4>
    {
      /* Read data from DR */
      *hi2c->pBuffPtr = (uint8_t)hi2c->Instance->DR;
 80047f4:	687b      	ldr	r3, [r7, #4]
 80047f6:	681b      	ldr	r3, [r3, #0]
 80047f8:	691a      	ldr	r2, [r3, #16]
 80047fa:	687b      	ldr	r3, [r7, #4]
 80047fc:	6a5b      	ldr	r3, [r3, #36]	; 0x24
 80047fe:	b2d2      	uxtb	r2, r2
 8004800:	701a      	strb	r2, [r3, #0]

      /* Increment Buffer pointer */
      hi2c->pBuffPtr++;
 8004802:	687b      	ldr	r3, [r7, #4]
 8004804:	6a5b      	ldr	r3, [r3, #36]	; 0x24
 8004806:	1c5a      	adds	r2, r3, #1
 8004808:	687b      	ldr	r3, [r7, #4]
 800480a:	625a      	str	r2, [r3, #36]	; 0x24

    /* Call user error callback */
#if (USE_HAL_I2C_REGISTER_CALLBACKS == 1)
    hi2c->ErrorCallback(hi2c);
#else
    HAL_I2C_ErrorCallback(hi2c);
 800480c:	6878      	ldr	r0, [r7, #4]
 800480e:	f7fe fed5 	bl	80035bc <HAL_I2C_ErrorCallback>
#endif /* USE_HAL_I2C_REGISTER_CALLBACKS */
  }

  /* STOP Flag is not set after a NACK reception, BusError, ArbitrationLost, OverRun */
  CurrentError = hi2c->ErrorCode;
 8004812:	687b      	ldr	r3, [r7, #4]
 8004814:	6c1b      	ldr	r3, [r3, #64]	; 0x40
 8004816:	60bb      	str	r3, [r7, #8]

  if (((CurrentError & HAL_I2C_ERROR_BERR) == HAL_I2C_ERROR_BERR) || \
 8004818:	68bb      	ldr	r3, [r7, #8]
 800481a:	f003 0301 	and.w	r3, r3, #1
 800481e:	2b00      	cmp	r3, #0
 8004820:	d10e      	bne.n	8004840 <I2C_ITError+0x208>
      ((CurrentError & HAL_I2C_ERROR_ARLO) == HAL_I2C_ERROR_ARLO) || \
 8004822:	68bb      	ldr	r3, [r7, #8]
 8004824:	f003 0302 	and.w	r3, r3, #2
  if (((CurrentError & HAL_I2C_ERROR_BERR) == HAL_I2C_ERROR_BERR) || \
 8004828:	2b00      	cmp	r3, #0
 800482a:	d109      	bne.n	8004840 <I2C_ITError+0x208>
      ((CurrentError & HAL_I2C_ERROR_AF) == HAL_I2C_ERROR_AF)     || \
 800482c:	68bb      	ldr	r3, [r7, #8]
 800482e:	f003 0304 	and.w	r3, r3, #4
      ((CurrentError & HAL_I2C_ERROR_ARLO) == HAL_I2C_ERROR_ARLO) || \
 8004832:	2b00      	cmp	r3, #0
 8004834:	d104      	bne.n	8004840 <I2C_ITError+0x208>
      ((CurrentError & HAL_I2C_ERROR_OVR) == HAL_I2C_ERROR_OVR))
 8004836:	68bb      	ldr	r3, [r7, #8]
 8004838:	f003 0308 	and.w	r3, r3, #8
      ((CurrentError & HAL_I2C_ERROR_AF) == HAL_I2C_ERROR_AF)     || \
 800483c:	2b00      	cmp	r3, #0
 800483e:	d007      	beq.n	8004850 <I2C_ITError+0x218>
  {
    /* Disable EVT, BUF and ERR interrupt */
    __HAL_I2C_DISABLE_IT(hi2c, I2C_IT_EVT | I2C_IT_BUF | I2C_IT_ERR);
 8004840:	687b      	ldr	r3, [r7, #4]
 8004842:	681b      	ldr	r3, [r3, #0]
 8004844:	685a      	ldr	r2, [r3, #4]
 8004846:	687b      	ldr	r3, [r7, #4]
 8004848:	681b      	ldr	r3, [r3, #0]
 800484a:	f422 62e0 	bic.w	r2, r2, #1792	; 0x700
 800484e:	605a      	str	r2, [r3, #4]
  }

  /* So may inform upper layer that listen phase is stopped */
  /* during NACK error treatment */
  CurrentState = hi2c->State;
 8004850:	687b      	ldr	r3, [r7, #4]
 8004852:	f893 303d 	ldrb.w	r3, [r3, #61]	; 0x3d
 8004856:	73fb      	strb	r3, [r7, #15]
  if (((hi2c->ErrorCode & HAL_I2C_ERROR_AF) == HAL_I2C_ERROR_AF) && (CurrentState == HAL_I2C_STATE_LISTEN))
 8004858:	687b      	ldr	r3, [r7, #4]
 800485a:	6c1b      	ldr	r3, [r3, #64]	; 0x40
 800485c:	f003 0304 	and.w	r3, r3, #4
 8004860:	2b04      	cmp	r3, #4
 8004862:	d113      	bne.n	800488c <I2C_ITError+0x254>
 8004864:	7bfb      	ldrb	r3, [r7, #15]
 8004866:	2b28      	cmp	r3, #40	; 0x28
 8004868:	d110      	bne.n	800488c <I2C_ITError+0x254>
  {
    hi2c->XferOptions   = I2C_NO_OPTION_FRAME;
 800486a:	687b      	ldr	r3, [r7, #4]
 800486c:	4a0a      	ldr	r2, [pc, #40]	; (8004898 <I2C_ITError+0x260>)
 800486e:	62da      	str	r2, [r3, #44]	; 0x2c
    hi2c->PreviousState = I2C_STATE_NONE;
 8004870:	687b      	ldr	r3, [r7, #4]
 8004872:	2200      	movs	r2, #0
 8004874:	631a      	str	r2, [r3, #48]	; 0x30
    hi2c->State         = HAL_I2C_STATE_READY;
 8004876:	687b      	ldr	r3, [r7, #4]
 8004878:	2220      	movs	r2, #32
 800487a:	f883 203d 	strb.w	r2, [r3, #61]	; 0x3d
    hi2c->Mode          = HAL_I2C_MODE_NONE;
 800487e:	687b      	ldr	r3, [r7, #4]
 8004880:	2200      	movs	r2, #0
 8004882:	f883 203e 	strb.w	r2, [r3, #62]	; 0x3e

    /* Call the Listen Complete callback, to inform upper layer of the end of Listen usecase */
#if (USE_HAL_I2C_REGISTER_CALLBACKS == 1)
    hi2c->ListenCpltCallback(hi2c);
#else
    HAL_I2C_ListenCpltCallback(hi2c);
 8004886:	6878      	ldr	r0, [r7, #4]
 8004888:	f7fe fe7a 	bl	8003580 <HAL_I2C_ListenCpltCallback>
#endif /* USE_HAL_I2C_REGISTER_CALLBACKS */
  }
}
 800488c:	bf00      	nop
 800488e:	3710      	adds	r7, #16
 8004890:	46bd      	mov	sp, r7
 8004892:	bd80      	pop	{r7, pc}
 8004894:	08004b99 	.word	0x08004b99
 8004898:	ffff0000 	.word	0xffff0000

0800489c <I2C_RequestMemoryWrite>:
  * @param  Timeout Timeout duration
  * @param  Tickstart Tick start value
  * @retval HAL status
  */
static HAL_StatusTypeDef I2C_RequestMemoryWrite(I2C_HandleTypeDef *hi2c, uint16_t DevAddress, uint16_t MemAddress, uint16_t MemAddSize, uint32_t Timeout, uint32_t Tickstart)
{
 800489c:	b580      	push	{r7, lr}
 800489e:	b088      	sub	sp, #32
 80048a0:	af02      	add	r7, sp, #8
 80048a2:	60f8      	str	r0, [r7, #12]
 80048a4:	4608      	mov	r0, r1
 80048a6:	4611      	mov	r1, r2
 80048a8:	461a      	mov	r2, r3
 80048aa:	4603      	mov	r3, r0
 80048ac:	817b      	strh	r3, [r7, #10]
 80048ae:	460b      	mov	r3, r1
 80048b0:	813b      	strh	r3, [r7, #8]
 80048b2:	4613      	mov	r3, r2
 80048b4:	80fb      	strh	r3, [r7, #6]
  /* Generate Start */
  SET_BIT(hi2c->Instance->CR1, I2C_CR1_START);
 80048b6:	68fb      	ldr	r3, [r7, #12]
 80048b8:	681b      	ldr	r3, [r3, #0]
 80048ba:	681a      	ldr	r2, [r3, #0]
 80048bc:	68fb      	ldr	r3, [r7, #12]
 80048be:	681b      	ldr	r3, [r3, #0]
 80048c0:	f442 7280 	orr.w	r2, r2, #256	; 0x100
 80048c4:	601a      	str	r2, [r3, #0]

  /* Wait until SB flag is set */
  if (I2C_WaitOnFlagUntilTimeout(hi2c, I2C_FLAG_SB, RESET, Timeout, Tickstart) != HAL_OK)
 80048c6:	6a7b      	ldr	r3, [r7, #36]	; 0x24
 80048c8:	9300      	str	r3, [sp, #0]
 80048ca:	6a3b      	ldr	r3, [r7, #32]
 80048cc:	2200      	movs	r2, #0
 80048ce:	f04f 1101 	mov.w	r1, #65537	; 0x10001
 80048d2:	68f8      	ldr	r0, [r7, #12]
 80048d4:	f000 fa08 	bl	8004ce8 <I2C_WaitOnFlagUntilTimeout>
 80048d8:	4603      	mov	r3, r0
 80048da:	2b00      	cmp	r3, #0
 80048dc:	d00d      	beq.n	80048fa <I2C_RequestMemoryWrite+0x5e>
  {
    if (READ_BIT(hi2c->Instance->CR1, I2C_CR1_START) == I2C_CR1_START)
 80048de:	68fb      	ldr	r3, [r7, #12]
 80048e0:	681b      	ldr	r3, [r3, #0]
 80048e2:	681b      	ldr	r3, [r3, #0]
 80048e4:	f403 7380 	and.w	r3, r3, #256	; 0x100
 80048e8:	f5b3 7f80 	cmp.w	r3, #256	; 0x100
 80048ec:	d103      	bne.n	80048f6 <I2C_RequestMemoryWrite+0x5a>
    {
      hi2c->ErrorCode = HAL_I2C_WRONG_START;
 80048ee:	68fb      	ldr	r3, [r7, #12]
 80048f0:	f44f 7200 	mov.w	r2, #512	; 0x200
 80048f4:	641a      	str	r2, [r3, #64]	; 0x40
    }
    return HAL_TIMEOUT;
 80048f6:	2303      	movs	r3, #3
 80048f8:	e05f      	b.n	80049ba <I2C_RequestMemoryWrite+0x11e>
  }

  /* Send slave address */
  hi2c->Instance->DR = I2C_7BIT_ADD_WRITE(DevAddress);
 80048fa:	897b      	ldrh	r3, [r7, #10]
 80048fc:	b2db      	uxtb	r3, r3
 80048fe:	461a      	mov	r2, r3
 8004900:	68fb      	ldr	r3, [r7, #12]
 8004902:	681b      	ldr	r3, [r3, #0]
 8004904:	f002 02fe 	and.w	r2, r2, #254	; 0xfe
 8004908:	611a      	str	r2, [r3, #16]

  /* Wait until ADDR flag is set */
  if (I2C_WaitOnMasterAddressFlagUntilTimeout(hi2c, I2C_FLAG_ADDR, Timeout, Tickstart) != HAL_OK)
 800490a:	6a7b      	ldr	r3, [r7, #36]	; 0x24
 800490c:	6a3a      	ldr	r2, [r7, #32]
 800490e:	492d      	ldr	r1, [pc, #180]	; (80049c4 <I2C_RequestMemoryWrite+0x128>)
 8004910:	68f8      	ldr	r0, [r7, #12]
 8004912:	f000 fa40 	bl	8004d96 <I2C_WaitOnMasterAddressFlagUntilTimeout>
 8004916:	4603      	mov	r3, r0
 8004918:	2b00      	cmp	r3, #0
 800491a:	d001      	beq.n	8004920 <I2C_RequestMemoryWrite+0x84>
  {
    return HAL_ERROR;
 800491c:	2301      	movs	r3, #1
 800491e:	e04c      	b.n	80049ba <I2C_RequestMemoryWrite+0x11e>
  }

  /* Clear ADDR flag */
  __HAL_I2C_CLEAR_ADDRFLAG(hi2c);
 8004920:	2300      	movs	r3, #0
 8004922:	617b      	str	r3, [r7, #20]
 8004924:	68fb      	ldr	r3, [r7, #12]
 8004926:	681b      	ldr	r3, [r3, #0]
 8004928:	695b      	ldr	r3, [r3, #20]
 800492a:	617b      	str	r3, [r7, #20]
 800492c:	68fb      	ldr	r3, [r7, #12]
 800492e:	681b      	ldr	r3, [r3, #0]
 8004930:	699b      	ldr	r3, [r3, #24]
 8004932:	617b      	str	r3, [r7, #20]
 8004934:	697b      	ldr	r3, [r7, #20]

  /* Wait until TXE flag is set */
  if (I2C_WaitOnTXEFlagUntilTimeout(hi2c, Timeout, Tickstart) != HAL_OK)
 8004936:	6a7a      	ldr	r2, [r7, #36]	; 0x24
 8004938:	6a39      	ldr	r1, [r7, #32]
 800493a:	68f8      	ldr	r0, [r7, #12]
 800493c:	f000 faaa 	bl	8004e94 <I2C_WaitOnTXEFlagUntilTimeout>
 8004940:	4603      	mov	r3, r0
 8004942:	2b00      	cmp	r3, #0
 8004944:	d00d      	beq.n	8004962 <I2C_RequestMemoryWrite+0xc6>
  {
    if (hi2c->ErrorCode == HAL_I2C_ERROR_AF)
 8004946:	68fb      	ldr	r3, [r7, #12]
 8004948:	6c1b      	ldr	r3, [r3, #64]	; 0x40
 800494a:	2b04      	cmp	r3, #4
 800494c:	d107      	bne.n	800495e <I2C_RequestMemoryWrite+0xc2>
    {
      /* Generate Stop */
      SET_BIT(hi2c->Instance->CR1, I2C_CR1_STOP);
 800494e:	68fb      	ldr	r3, [r7, #12]
 8004950:	681b      	ldr	r3, [r3, #0]
 8004952:	681a      	ldr	r2, [r3, #0]
 8004954:	68fb      	ldr	r3, [r7, #12]
 8004956:	681b      	ldr	r3, [r3, #0]
 8004958:	f442 7200 	orr.w	r2, r2, #512	; 0x200
 800495c:	601a      	str	r2, [r3, #0]
    }
    return HAL_ERROR;
 800495e:	2301      	movs	r3, #1
 8004960:	e02b      	b.n	80049ba <I2C_RequestMemoryWrite+0x11e>
  }

  /* If Memory address size is 8Bit */
  if (MemAddSize == I2C_MEMADD_SIZE_8BIT)
 8004962:	88fb      	ldrh	r3, [r7, #6]
 8004964:	2b01      	cmp	r3, #1
 8004966:	d105      	bne.n	8004974 <I2C_RequestMemoryWrite+0xd8>
  {
    /* Send Memory Address */
    hi2c->Instance->DR = I2C_MEM_ADD_LSB(MemAddress);
 8004968:	893b      	ldrh	r3, [r7, #8]
 800496a:	b2da      	uxtb	r2, r3
 800496c:	68fb      	ldr	r3, [r7, #12]
 800496e:	681b      	ldr	r3, [r3, #0]
 8004970:	611a      	str	r2, [r3, #16]
 8004972:	e021      	b.n	80049b8 <I2C_RequestMemoryWrite+0x11c>
  }
  /* If Memory address size is 16Bit */
  else
  {
    /* Send MSB of Memory Address */
    hi2c->Instance->DR = I2C_MEM_ADD_MSB(MemAddress);
 8004974:	893b      	ldrh	r3, [r7, #8]
 8004976:	0a1b      	lsrs	r3, r3, #8
 8004978:	b29b      	uxth	r3, r3
 800497a:	b2da      	uxtb	r2, r3
 800497c:	68fb      	ldr	r3, [r7, #12]
 800497e:	681b      	ldr	r3, [r3, #0]
 8004980:	611a      	str	r2, [r3, #16]

    /* Wait until TXE flag is set */
    if (I2C_WaitOnTXEFlagUntilTimeout(hi2c, Timeout, Tickstart) != HAL_OK)
 8004982:	6a7a      	ldr	r2, [r7, #36]	; 0x24
 8004984:	6a39      	ldr	r1, [r7, #32]
 8004986:	68f8      	ldr	r0, [r7, #12]
 8004988:	f000 fa84 	bl	8004e94 <I2C_WaitOnTXEFlagUntilTimeout>
 800498c:	4603      	mov	r3, r0
 800498e:	2b00      	cmp	r3, #0
 8004990:	d00d      	beq.n	80049ae <I2C_RequestMemoryWrite+0x112>
    {
      if (hi2c->ErrorCode == HAL_I2C_ERROR_AF)
 8004992:	68fb      	ldr	r3, [r7, #12]
 8004994:	6c1b      	ldr	r3, [r3, #64]	; 0x40
 8004996:	2b04      	cmp	r3, #4
 8004998:	d107      	bne.n	80049aa <I2C_RequestMemoryWrite+0x10e>
      {
        /* Generate Stop */
        SET_BIT(hi2c->Instance->CR1, I2C_CR1_STOP);
 800499a:	68fb      	ldr	r3, [r7, #12]
 800499c:	681b      	ldr	r3, [r3, #0]
 800499e:	681a      	ldr	r2, [r3, #0]
 80049a0:	68fb      	ldr	r3, [r7, #12]
 80049a2:	681b      	ldr	r3, [r3, #0]
 80049a4:	f442 7200 	orr.w	r2, r2, #512	; 0x200
 80049a8:	601a      	str	r2, [r3, #0]
      }
      return HAL_ERROR;
 80049aa:	2301      	movs	r3, #1
 80049ac:	e005      	b.n	80049ba <I2C_RequestMemoryWrite+0x11e>
    }

    /* Send LSB of Memory Address */
    hi2c->Instance->DR = I2C_MEM_ADD_LSB(MemAddress);
 80049ae:	893b      	ldrh	r3, [r7, #8]
 80049b0:	b2da      	uxtb	r2, r3
 80049b2:	68fb      	ldr	r3, [r7, #12]
 80049b4:	681b      	ldr	r3, [r3, #0]
 80049b6:	611a      	str	r2, [r3, #16]
  }

  return HAL_OK;
 80049b8:	2300      	movs	r3, #0
}
 80049ba:	4618      	mov	r0, r3
 80049bc:	3718      	adds	r7, #24
 80049be:	46bd      	mov	sp, r7
 80049c0:	bd80      	pop	{r7, pc}
 80049c2:	bf00      	nop
 80049c4:	00010002 	.word	0x00010002

080049c8 <I2C_RequestMemoryRead>:
  * @param  Timeout Timeout duration
  * @param  Tickstart Tick start value
  * @retval HAL status
  */
static HAL_StatusTypeDef I2C_RequestMemoryRead(I2C_HandleTypeDef *hi2c, uint16_t DevAddress, uint16_t MemAddress, uint16_t MemAddSize, uint32_t Timeout, uint32_t Tickstart)
{
 80049c8:	b580      	push	{r7, lr}
 80049ca:	b088      	sub	sp, #32
 80049cc:	af02      	add	r7, sp, #8
 80049ce:	60f8      	str	r0, [r7, #12]
 80049d0:	4608      	mov	r0, r1
 80049d2:	4611      	mov	r1, r2
 80049d4:	461a      	mov	r2, r3
 80049d6:	4603      	mov	r3, r0
 80049d8:	817b      	strh	r3, [r7, #10]
 80049da:	460b      	mov	r3, r1
 80049dc:	813b      	strh	r3, [r7, #8]
 80049de:	4613      	mov	r3, r2
 80049e0:	80fb      	strh	r3, [r7, #6]
  /* Enable Acknowledge */
  SET_BIT(hi2c->Instance->CR1, I2C_CR1_ACK);
 80049e2:	68fb      	ldr	r3, [r7, #12]
 80049e4:	681b      	ldr	r3, [r3, #0]
 80049e6:	681a      	ldr	r2, [r3, #0]
 80049e8:	68fb      	ldr	r3, [r7, #12]
 80049ea:	681b      	ldr	r3, [r3, #0]
 80049ec:	f442 6280 	orr.w	r2, r2, #1024	; 0x400
 80049f0:	601a      	str	r2, [r3, #0]

  /* Generate Start */
  SET_BIT(hi2c->Instance->CR1, I2C_CR1_START);
 80049f2:	68fb      	ldr	r3, [r7, #12]
 80049f4:	681b      	ldr	r3, [r3, #0]
 80049f6:	681a      	ldr	r2, [r3, #0]
 80049f8:	68fb      	ldr	r3, [r7, #12]
 80049fa:	681b      	ldr	r3, [r3, #0]
 80049fc:	f442 7280 	orr.w	r2, r2, #256	; 0x100
 8004a00:	601a      	str	r2, [r3, #0]

  /* Wait until SB flag is set */
  if (I2C_WaitOnFlagUntilTimeout(hi2c, I2C_FLAG_SB, RESET, Timeout, Tickstart) != HAL_OK)
 8004a02:	6a7b      	ldr	r3, [r7, #36]	; 0x24
 8004a04:	9300      	str	r3, [sp, #0]
 8004a06:	6a3b      	ldr	r3, [r7, #32]
 8004a08:	2200      	movs	r2, #0
 8004a0a:	f04f 1101 	mov.w	r1, #65537	; 0x10001
 8004a0e:	68f8      	ldr	r0, [r7, #12]
 8004a10:	f000 f96a 	bl	8004ce8 <I2C_WaitOnFlagUntilTimeout>
 8004a14:	4603      	mov	r3, r0
 8004a16:	2b00      	cmp	r3, #0
 8004a18:	d00d      	beq.n	8004a36 <I2C_RequestMemoryRead+0x6e>
  {
    if (READ_BIT(hi2c->Instance->CR1, I2C_CR1_START) == I2C_CR1_START)
 8004a1a:	68fb      	ldr	r3, [r7, #12]
 8004a1c:	681b      	ldr	r3, [r3, #0]
 8004a1e:	681b      	ldr	r3, [r3, #0]
 8004a20:	f403 7380 	and.w	r3, r3, #256	; 0x100
 8004a24:	f5b3 7f80 	cmp.w	r3, #256	; 0x100
 8004a28:	d103      	bne.n	8004a32 <I2C_RequestMemoryRead+0x6a>
    {
      hi2c->ErrorCode = HAL_I2C_WRONG_START;
 8004a2a:	68fb      	ldr	r3, [r7, #12]
 8004a2c:	f44f 7200 	mov.w	r2, #512	; 0x200
 8004a30:	641a      	str	r2, [r3, #64]	; 0x40
    }
    return HAL_TIMEOUT;
 8004a32:	2303      	movs	r3, #3
 8004a34:	e0aa      	b.n	8004b8c <I2C_RequestMemoryRead+0x1c4>
  }

  /* Send slave address */
  hi2c->Instance->DR = I2C_7BIT_ADD_WRITE(DevAddress);
 8004a36:	897b      	ldrh	r3, [r7, #10]
 8004a38:	b2db      	uxtb	r3, r3
 8004a3a:	461a      	mov	r2, r3
 8004a3c:	68fb      	ldr	r3, [r7, #12]
 8004a3e:	681b      	ldr	r3, [r3, #0]
 8004a40:	f002 02fe 	and.w	r2, r2, #254	; 0xfe
 8004a44:	611a      	str	r2, [r3, #16]

  /* Wait until ADDR flag is set */
  if (I2C_WaitOnMasterAddressFlagUntilTimeout(hi2c, I2C_FLAG_ADDR, Timeout, Tickstart) != HAL_OK)
 8004a46:	6a7b      	ldr	r3, [r7, #36]	; 0x24
 8004a48:	6a3a      	ldr	r2, [r7, #32]
 8004a4a:	4952      	ldr	r1, [pc, #328]	; (8004b94 <I2C_RequestMemoryRead+0x1cc>)
 8004a4c:	68f8      	ldr	r0, [r7, #12]
 8004a4e:	f000 f9a2 	bl	8004d96 <I2C_WaitOnMasterAddressFlagUntilTimeout>
 8004a52:	4603      	mov	r3, r0
 8004a54:	2b00      	cmp	r3, #0
 8004a56:	d001      	beq.n	8004a5c <I2C_RequestMemoryRead+0x94>
  {
    return HAL_ERROR;
 8004a58:	2301      	movs	r3, #1
 8004a5a:	e097      	b.n	8004b8c <I2C_RequestMemoryRead+0x1c4>
  }

  /* Clear ADDR flag */
  __HAL_I2C_CLEAR_ADDRFLAG(hi2c);
 8004a5c:	2300      	movs	r3, #0
 8004a5e:	617b      	str	r3, [r7, #20]
 8004a60:	68fb      	ldr	r3, [r7, #12]
 8004a62:	681b      	ldr	r3, [r3, #0]
 8004a64:	695b      	ldr	r3, [r3, #20]
 8004a66:	617b      	str	r3, [r7, #20]
 8004a68:	68fb      	ldr	r3, [r7, #12]
 8004a6a:	681b      	ldr	r3, [r3, #0]
 8004a6c:	699b      	ldr	r3, [r3, #24]
 8004a6e:	617b      	str	r3, [r7, #20]
 8004a70:	697b      	ldr	r3, [r7, #20]

  /* Wait until TXE flag is set */
  if (I2C_WaitOnTXEFlagUntilTimeout(hi2c, Timeout, Tickstart) != HAL_OK)
 8004a72:	6a7a      	ldr	r2, [r7, #36]	; 0x24
 8004a74:	6a39      	ldr	r1, [r7, #32]
 8004a76:	68f8      	ldr	r0, [r7, #12]
 8004a78:	f000 fa0c 	bl	8004e94 <I2C_WaitOnTXEFlagUntilTimeout>
 8004a7c:	4603      	mov	r3, r0
 8004a7e:	2b00      	cmp	r3, #0
 8004a80:	d00d      	beq.n	8004a9e <I2C_RequestMemoryRead+0xd6>
  {
    if (hi2c->ErrorCode == HAL_I2C_ERROR_AF)
 8004a82:	68fb      	ldr	r3, [r7, #12]
 8004a84:	6c1b      	ldr	r3, [r3, #64]	; 0x40
 8004a86:	2b04      	cmp	r3, #4
 8004a88:	d107      	bne.n	8004a9a <I2C_RequestMemoryRead+0xd2>
    {
      /* Generate Stop */
      SET_BIT(hi2c->Instance->CR1, I2C_CR1_STOP);
 8004a8a:	68fb      	ldr	r3, [r7, #12]
 8004a8c:	681b      	ldr	r3, [r3, #0]
 8004a8e:	681a      	ldr	r2, [r3, #0]
 8004a90:	68fb      	ldr	r3, [r7, #12]
 8004a92:	681b      	ldr	r3, [r3, #0]
 8004a94:	f442 7200 	orr.w	r2, r2, #512	; 0x200
 8004a98:	601a      	str	r2, [r3, #0]
    }
    return HAL_ERROR;
 8004a9a:	2301      	movs	r3, #1
 8004a9c:	e076      	b.n	8004b8c <I2C_RequestMemoryRead+0x1c4>
  }

  /* If Memory address size is 8Bit */
  if (MemAddSize == I2C_MEMADD_SIZE_8BIT)
 8004a9e:	88fb      	ldrh	r3, [r7, #6]
 8004aa0:	2b01      	cmp	r3, #1
 8004aa2:	d105      	bne.n	8004ab0 <I2C_RequestMemoryRead+0xe8>
  {
    /* Send Memory Address */
    hi2c->Instance->DR = I2C_MEM_ADD_LSB(MemAddress);
 8004aa4:	893b      	ldrh	r3, [r7, #8]
 8004aa6:	b2da      	uxtb	r2, r3
 8004aa8:	68fb      	ldr	r3, [r7, #12]
 8004aaa:	681b      	ldr	r3, [r3, #0]
 8004aac:	611a      	str	r2, [r3, #16]
 8004aae:	e021      	b.n	8004af4 <I2C_RequestMemoryRead+0x12c>
  }
  /* If Memory address size is 16Bit */
  else
  {
    /* Send MSB of Memory Address */
    hi2c->Instance->DR = I2C_MEM_ADD_MSB(MemAddress);
 8004ab0:	893b      	ldrh	r3, [r7, #8]
 8004ab2:	0a1b      	lsrs	r3, r3, #8
 8004ab4:	b29b      	uxth	r3, r3
 8004ab6:	b2da      	uxtb	r2, r3
 8004ab8:	68fb      	ldr	r3, [r7, #12]
 8004aba:	681b      	ldr	r3, [r3, #0]
 8004abc:	611a      	str	r2, [r3, #16]

    /* Wait until TXE flag is set */
    if (I2C_WaitOnTXEFlagUntilTimeout(hi2c, Timeout, Tickstart) != HAL_OK)
 8004abe:	6a7a      	ldr	r2, [r7, #36]	; 0x24
 8004ac0:	6a39      	ldr	r1, [r7, #32]
 8004ac2:	68f8      	ldr	r0, [r7, #12]
 8004ac4:	f000 f9e6 	bl	8004e94 <I2C_WaitOnTXEFlagUntilTimeout>
 8004ac8:	4603      	mov	r3, r0
 8004aca:	2b00      	cmp	r3, #0
 8004acc:	d00d      	beq.n	8004aea <I2C_RequestMemoryRead+0x122>
    {
      if (hi2c->ErrorCode == HAL_I2C_ERROR_AF)
 8004ace:	68fb      	ldr	r3, [r7, #12]
 8004ad0:	6c1b      	ldr	r3, [r3, #64]	; 0x40
 8004ad2:	2b04      	cmp	r3, #4
 8004ad4:	d107      	bne.n	8004ae6 <I2C_RequestMemoryRead+0x11e>
      {
        /* Generate Stop */
        SET_BIT(hi2c->Instance->CR1, I2C_CR1_STOP);
 8004ad6:	68fb      	ldr	r3, [r7, #12]
 8004ad8:	681b      	ldr	r3, [r3, #0]
 8004ada:	681a      	ldr	r2, [r3, #0]
 8004adc:	68fb      	ldr	r3, [r7, #12]
 8004ade:	681b      	ldr	r3, [r3, #0]
 8004ae0:	f442 7200 	orr.w	r2, r2, #512	; 0x200
 8004ae4:	601a      	str	r2, [r3, #0]
      }
      return HAL_ERROR;
 8004ae6:	2301      	movs	r3, #1
 8004ae8:	e050      	b.n	8004b8c <I2C_RequestMemoryRead+0x1c4>
    }

    /* Send LSB of Memory Address */
    hi2c->Instance->DR = I2C_MEM_ADD_LSB(MemAddress);
 8004aea:	893b      	ldrh	r3, [r7, #8]
 8004aec:	b2da      	uxtb	r2, r3
 8004aee:	68fb      	ldr	r3, [r7, #12]
 8004af0:	681b      	ldr	r3, [r3, #0]
 8004af2:	611a      	str	r2, [r3, #16]
  }

  /* Wait until TXE flag is set */
  if (I2C_WaitOnTXEFlagUntilTimeout(hi2c, Timeout, Tickstart) != HAL_OK)
 8004af4:	6a7a      	ldr	r2, [r7, #36]	; 0x24
 8004af6:	6a39      	ldr	r1, [r7, #32]
 8004af8:	68f8      	ldr	r0, [r7, #12]
 8004afa:	f000 f9cb 	bl	8004e94 <I2C_WaitOnTXEFlagUntilTimeout>
 8004afe:	4603      	mov	r3, r0
 8004b00:	2b00      	cmp	r3, #0
 8004b02:	d00d      	beq.n	8004b20 <I2C_RequestMemoryRead+0x158>
  {
    if (hi2c->ErrorCode == HAL_I2C_ERROR_AF)
 8004b04:	68fb      	ldr	r3, [r7, #12]
 8004b06:	6c1b      	ldr	r3, [r3, #64]	; 0x40
 8004b08:	2b04      	cmp	r3, #4
 8004b0a:	d107      	bne.n	8004b1c <I2C_RequestMemoryRead+0x154>
    {
      /* Generate Stop */
      SET_BIT(hi2c->Instance->CR1, I2C_CR1_STOP);
 8004b0c:	68fb      	ldr	r3, [r7, #12]
 8004b0e:	681b      	ldr	r3, [r3, #0]
 8004b10:	681a      	ldr	r2, [r3, #0]
 8004b12:	68fb      	ldr	r3, [r7, #12]
 8004b14:	681b      	ldr	r3, [r3, #0]
 8004b16:	f442 7200 	orr.w	r2, r2, #512	; 0x200
 8004b1a:	601a      	str	r2, [r3, #0]
    }
    return HAL_ERROR;
 8004b1c:	2301      	movs	r3, #1
 8004b1e:	e035      	b.n	8004b8c <I2C_RequestMemoryRead+0x1c4>
  }

  /* Generate Restart */
  SET_BIT(hi2c->Instance->CR1, I2C_CR1_START);
 8004b20:	68fb      	ldr	r3, [r7, #12]
 8004b22:	681b      	ldr	r3, [r3, #0]
 8004b24:	681a      	ldr	r2, [r3, #0]
 8004b26:	68fb      	ldr	r3, [r7, #12]
 8004b28:	681b      	ldr	r3, [r3, #0]
 8004b2a:	f442 7280 	orr.w	r2, r2, #256	; 0x100
 8004b2e:	601a      	str	r2, [r3, #0]

  /* Wait until SB flag is set */
  if (I2C_WaitOnFlagUntilTimeout(hi2c, I2C_FLAG_SB, RESET, Timeout, Tickstart) != HAL_OK)
 8004b30:	6a7b      	ldr	r3, [r7, #36]	; 0x24
 8004b32:	9300      	str	r3, [sp, #0]
 8004b34:	6a3b      	ldr	r3, [r7, #32]
 8004b36:	2200      	movs	r2, #0
 8004b38:	f04f 1101 	mov.w	r1, #65537	; 0x10001
 8004b3c:	68f8      	ldr	r0, [r7, #12]
 8004b3e:	f000 f8d3 	bl	8004ce8 <I2C_WaitOnFlagUntilTimeout>
 8004b42:	4603      	mov	r3, r0
 8004b44:	2b00      	cmp	r3, #0
 8004b46:	d00d      	beq.n	8004b64 <I2C_RequestMemoryRead+0x19c>
  {
    if (READ_BIT(hi2c->Instance->CR1, I2C_CR1_START) == I2C_CR1_START)
 8004b48:	68fb      	ldr	r3, [r7, #12]
 8004b4a:	681b      	ldr	r3, [r3, #0]
 8004b4c:	681b      	ldr	r3, [r3, #0]
 8004b4e:	f403 7380 	and.w	r3, r3, #256	; 0x100
 8004b52:	f5b3 7f80 	cmp.w	r3, #256	; 0x100
 8004b56:	d103      	bne.n	8004b60 <I2C_RequestMemoryRead+0x198>
    {
      hi2c->ErrorCode = HAL_I2C_WRONG_START;
 8004b58:	68fb      	ldr	r3, [r7, #12]
 8004b5a:	f44f 7200 	mov.w	r2, #512	; 0x200
 8004b5e:	641a      	str	r2, [r3, #64]	; 0x40
    }
    return HAL_TIMEOUT;
 8004b60:	2303      	movs	r3, #3
 8004b62:	e013      	b.n	8004b8c <I2C_RequestMemoryRead+0x1c4>
  }

  /* Send slave address */
  hi2c->Instance->DR = I2C_7BIT_ADD_READ(DevAddress);
 8004b64:	897b      	ldrh	r3, [r7, #10]
 8004b66:	b2db      	uxtb	r3, r3
 8004b68:	f043 0301 	orr.w	r3, r3, #1
 8004b6c:	b2da      	uxtb	r2, r3
 8004b6e:	68fb      	ldr	r3, [r7, #12]
 8004b70:	681b      	ldr	r3, [r3, #0]
 8004b72:	611a      	str	r2, [r3, #16]

  /* Wait until ADDR flag is set */
  if (I2C_WaitOnMasterAddressFlagUntilTimeout(hi2c, I2C_FLAG_ADDR, Timeout, Tickstart) != HAL_OK)
 8004b74:	6a7b      	ldr	r3, [r7, #36]	; 0x24
 8004b76:	6a3a      	ldr	r2, [r7, #32]
 8004b78:	4906      	ldr	r1, [pc, #24]	; (8004b94 <I2C_RequestMemoryRead+0x1cc>)
 8004b7a:	68f8      	ldr	r0, [r7, #12]
 8004b7c:	f000 f90b 	bl	8004d96 <I2C_WaitOnMasterAddressFlagUntilTimeout>
 8004b80:	4603      	mov	r3, r0
 8004b82:	2b00      	cmp	r3, #0
 8004b84:	d001      	beq.n	8004b8a <I2C_RequestMemoryRead+0x1c2>
  {
    return HAL_ERROR;
 8004b86:	2301      	movs	r3, #1
 8004b88:	e000      	b.n	8004b8c <I2C_RequestMemoryRead+0x1c4>
  }

  return HAL_OK;
 8004b8a:	2300      	movs	r3, #0
}
 8004b8c:	4618      	mov	r0, r3
 8004b8e:	3718      	adds	r7, #24
 8004b90:	46bd      	mov	sp, r7
 8004b92:	bd80      	pop	{r7, pc}
 8004b94:	00010002 	.word	0x00010002

08004b98 <I2C_DMAAbort>:
  *        (To be called at end of DMA Abort procedure).
  * @param hdma DMA handle.
  * @retval None
  */
static void I2C_DMAAbort(DMA_HandleTypeDef *hdma)
{
 8004b98:	b580      	push	{r7, lr}
 8004b9a:	b086      	sub	sp, #24
 8004b9c:	af00      	add	r7, sp, #0
 8004b9e:	6078      	str	r0, [r7, #4]
  __IO uint32_t count = 0U;
 8004ba0:	2300      	movs	r3, #0
 8004ba2:	60fb      	str	r3, [r7, #12]
  I2C_HandleTypeDef *hi2c = (I2C_HandleTypeDef *)((DMA_HandleTypeDef *)hdma)->Parent; /* Derogation MISRAC2012-Rule-11.5 */
 8004ba4:	687b      	ldr	r3, [r7, #4]
 8004ba6:	6b9b      	ldr	r3, [r3, #56]	; 0x38
 8004ba8:	617b      	str	r3, [r7, #20]

  /* Declaration of temporary variable to prevent undefined behavior of volatile usage */
  HAL_I2C_StateTypeDef CurrentState = hi2c->State;
 8004baa:	697b      	ldr	r3, [r7, #20]
 8004bac:	f893 303d 	ldrb.w	r3, [r3, #61]	; 0x3d
 8004bb0:	74fb      	strb	r3, [r7, #19]

  /* During abort treatment, check that there is no pending STOP request */
  /* Wait until STOP flag is reset */
  count = I2C_TIMEOUT_FLAG * (SystemCoreClock / 25U / 1000U);
 8004bb2:	4b4b      	ldr	r3, [pc, #300]	; (8004ce0 <I2C_DMAAbort+0x148>)
 8004bb4:	681b      	ldr	r3, [r3, #0]
 8004bb6:	08db      	lsrs	r3, r3, #3
 8004bb8:	4a4a      	ldr	r2, [pc, #296]	; (8004ce4 <I2C_DMAAbort+0x14c>)
 8004bba:	fba2 2303 	umull	r2, r3, r2, r3
 8004bbe:	0a1a      	lsrs	r2, r3, #8
 8004bc0:	4613      	mov	r3, r2
 8004bc2:	009b      	lsls	r3, r3, #2
 8004bc4:	4413      	add	r3, r2
 8004bc6:	00da      	lsls	r2, r3, #3
 8004bc8:	1ad3      	subs	r3, r2, r3
 8004bca:	60fb      	str	r3, [r7, #12]
  do
  {
    if (count == 0U)
 8004bcc:	68fb      	ldr	r3, [r7, #12]
 8004bce:	2b00      	cmp	r3, #0
 8004bd0:	d106      	bne.n	8004be0 <I2C_DMAAbort+0x48>
    {
      hi2c->ErrorCode |= HAL_I2C_ERROR_TIMEOUT;
 8004bd2:	697b      	ldr	r3, [r7, #20]
 8004bd4:	6c1b      	ldr	r3, [r3, #64]	; 0x40
 8004bd6:	f043 0220 	orr.w	r2, r3, #32
 8004bda:	697b      	ldr	r3, [r7, #20]
 8004bdc:	641a      	str	r2, [r3, #64]	; 0x40
      break;
 8004bde:	e00a      	b.n	8004bf6 <I2C_DMAAbort+0x5e>
    }
    count--;
 8004be0:	68fb      	ldr	r3, [r7, #12]
 8004be2:	3b01      	subs	r3, #1
 8004be4:	60fb      	str	r3, [r7, #12]
  }
  while (READ_BIT(hi2c->Instance->CR1, I2C_CR1_STOP) == I2C_CR1_STOP);
 8004be6:	697b      	ldr	r3, [r7, #20]
 8004be8:	681b      	ldr	r3, [r3, #0]
 8004bea:	681b      	ldr	r3, [r3, #0]
 8004bec:	f403 7300 	and.w	r3, r3, #512	; 0x200
 8004bf0:	f5b3 7f00 	cmp.w	r3, #512	; 0x200
 8004bf4:	d0ea      	beq.n	8004bcc <I2C_DMAAbort+0x34>

  /* Clear Complete callback */
  if (hi2c->hdmatx != NULL)
 8004bf6:	697b      	ldr	r3, [r7, #20]
 8004bf8:	6b5b      	ldr	r3, [r3, #52]	; 0x34
 8004bfa:	2b00      	cmp	r3, #0
 8004bfc:	d003      	beq.n	8004c06 <I2C_DMAAbort+0x6e>
  {
    hi2c->hdmatx->XferCpltCallback = NULL;
 8004bfe:	697b      	ldr	r3, [r7, #20]
 8004c00:	6b5b      	ldr	r3, [r3, #52]	; 0x34
 8004c02:	2200      	movs	r2, #0
 8004c04:	63da      	str	r2, [r3, #60]	; 0x3c
  }
  if (hi2c->hdmarx != NULL)
 8004c06:	697b      	ldr	r3, [r7, #20]
 8004c08:	6b9b      	ldr	r3, [r3, #56]	; 0x38
 8004c0a:	2b00      	cmp	r3, #0
 8004c0c:	d003      	beq.n	8004c16 <I2C_DMAAbort+0x7e>
  {
    hi2c->hdmarx->XferCpltCallback = NULL;
 8004c0e:	697b      	ldr	r3, [r7, #20]
 8004c10:	6b9b      	ldr	r3, [r3, #56]	; 0x38
 8004c12:	2200      	movs	r2, #0
 8004c14:	63da      	str	r2, [r3, #60]	; 0x3c
  }

  /* Disable Acknowledge */
  CLEAR_BIT(hi2c->Instance->CR1, I2C_CR1_ACK);
 8004c16:	697b      	ldr	r3, [r7, #20]
 8004c18:	681b      	ldr	r3, [r3, #0]
 8004c1a:	681a      	ldr	r2, [r3, #0]
 8004c1c:	697b      	ldr	r3, [r7, #20]
 8004c1e:	681b      	ldr	r3, [r3, #0]
 8004c20:	f422 6280 	bic.w	r2, r2, #1024	; 0x400
 8004c24:	601a      	str	r2, [r3, #0]

  hi2c->XferCount = 0U;
 8004c26:	697b      	ldr	r3, [r7, #20]
 8004c28:	2200      	movs	r2, #0
 8004c2a:	855a      	strh	r2, [r3, #42]	; 0x2a

  /* Reset XferAbortCallback */
  if (hi2c->hdmatx != NULL)
 8004c2c:	697b      	ldr	r3, [r7, #20]
 8004c2e:	6b5b      	ldr	r3, [r3, #52]	; 0x34
 8004c30:	2b00      	cmp	r3, #0
 8004c32:	d003      	beq.n	8004c3c <I2C_DMAAbort+0xa4>
  {
    hi2c->hdmatx->XferAbortCallback = NULL;
 8004c34:	697b      	ldr	r3, [r7, #20]
 8004c36:	6b5b      	ldr	r3, [r3, #52]	; 0x34
 8004c38:	2200      	movs	r2, #0
 8004c3a:	651a      	str	r2, [r3, #80]	; 0x50
  }
  if (hi2c->hdmarx != NULL)
 8004c3c:	697b      	ldr	r3, [r7, #20]
 8004c3e:	6b9b      	ldr	r3, [r3, #56]	; 0x38
 8004c40:	2b00      	cmp	r3, #0
 8004c42:	d003      	beq.n	8004c4c <I2C_DMAAbort+0xb4>
  {
    hi2c->hdmarx->XferAbortCallback = NULL;
 8004c44:	697b      	ldr	r3, [r7, #20]
 8004c46:	6b9b      	ldr	r3, [r3, #56]	; 0x38
 8004c48:	2200      	movs	r2, #0
 8004c4a:	651a      	str	r2, [r3, #80]	; 0x50
  }

  /* Disable I2C peripheral to prevent dummy data in buffer */
  __HAL_I2C_DISABLE(hi2c);
 8004c4c:	697b      	ldr	r3, [r7, #20]
 8004c4e:	681b      	ldr	r3, [r3, #0]
 8004c50:	681a      	ldr	r2, [r3, #0]
 8004c52:	697b      	ldr	r3, [r7, #20]
 8004c54:	681b      	ldr	r3, [r3, #0]
 8004c56:	f022 0201 	bic.w	r2, r2, #1
 8004c5a:	601a      	str	r2, [r3, #0]

  /* Check if come from abort from user */
  if (hi2c->State == HAL_I2C_STATE_ABORT)
 8004c5c:	697b      	ldr	r3, [r7, #20]
 8004c5e:	f893 303d 	ldrb.w	r3, [r3, #61]	; 0x3d
 8004c62:	b2db      	uxtb	r3, r3
 8004c64:	2b60      	cmp	r3, #96	; 0x60
 8004c66:	d10e      	bne.n	8004c86 <I2C_DMAAbort+0xee>
  {
    hi2c->State         = HAL_I2C_STATE_READY;
 8004c68:	697b      	ldr	r3, [r7, #20]
 8004c6a:	2220      	movs	r2, #32
 8004c6c:	f883 203d 	strb.w	r2, [r3, #61]	; 0x3d
    hi2c->Mode          = HAL_I2C_MODE_NONE;
 8004c70:	697b      	ldr	r3, [r7, #20]
 8004c72:	2200      	movs	r2, #0
 8004c74:	f883 203e 	strb.w	r2, [r3, #62]	; 0x3e
    hi2c->ErrorCode     = HAL_I2C_ERROR_NONE;
 8004c78:	697b      	ldr	r3, [r7, #20]
 8004c7a:	2200      	movs	r2, #0
 8004c7c:	641a      	str	r2, [r3, #64]	; 0x40

    /* Call the corresponding callback to inform upper layer of End of Transfer */
#if (USE_HAL_I2C_REGISTER_CALLBACKS == 1)
    hi2c->AbortCpltCallback(hi2c);
#else
    HAL_I2C_AbortCpltCallback(hi2c);
 8004c7e:	6978      	ldr	r0, [r7, #20]
 8004c80:	f7fe fca6 	bl	80035d0 <HAL_I2C_AbortCpltCallback>
    hi2c->ErrorCallback(hi2c);
#else
    HAL_I2C_ErrorCallback(hi2c);
#endif /* USE_HAL_I2C_REGISTER_CALLBACKS */
  }
}
 8004c84:	e027      	b.n	8004cd6 <I2C_DMAAbort+0x13e>
    if (((uint32_t)CurrentState & (uint32_t)HAL_I2C_STATE_LISTEN) == (uint32_t)HAL_I2C_STATE_LISTEN)
 8004c86:	7cfb      	ldrb	r3, [r7, #19]
 8004c88:	f003 0328 	and.w	r3, r3, #40	; 0x28
 8004c8c:	2b28      	cmp	r3, #40	; 0x28
 8004c8e:	d117      	bne.n	8004cc0 <I2C_DMAAbort+0x128>
      __HAL_I2C_ENABLE(hi2c);
 8004c90:	697b      	ldr	r3, [r7, #20]
 8004c92:	681b      	ldr	r3, [r3, #0]
 8004c94:	681a      	ldr	r2, [r3, #0]
 8004c96:	697b      	ldr	r3, [r7, #20]
 8004c98:	681b      	ldr	r3, [r3, #0]
 8004c9a:	f042 0201 	orr.w	r2, r2, #1
 8004c9e:	601a      	str	r2, [r3, #0]
      SET_BIT(hi2c->Instance->CR1, I2C_CR1_ACK);
 8004ca0:	697b      	ldr	r3, [r7, #20]
 8004ca2:	681b      	ldr	r3, [r3, #0]
 8004ca4:	681a      	ldr	r2, [r3, #0]
 8004ca6:	697b      	ldr	r3, [r7, #20]
 8004ca8:	681b      	ldr	r3, [r3, #0]
 8004caa:	f442 6280 	orr.w	r2, r2, #1024	; 0x400
 8004cae:	601a      	str	r2, [r3, #0]
      hi2c->PreviousState = I2C_STATE_NONE;
 8004cb0:	697b      	ldr	r3, [r7, #20]
 8004cb2:	2200      	movs	r2, #0
 8004cb4:	631a      	str	r2, [r3, #48]	; 0x30
      hi2c->State = HAL_I2C_STATE_LISTEN;
 8004cb6:	697b      	ldr	r3, [r7, #20]
 8004cb8:	2228      	movs	r2, #40	; 0x28
 8004cba:	f883 203d 	strb.w	r2, [r3, #61]	; 0x3d
 8004cbe:	e007      	b.n	8004cd0 <I2C_DMAAbort+0x138>
      hi2c->State = HAL_I2C_STATE_READY;
 8004cc0:	697b      	ldr	r3, [r7, #20]
 8004cc2:	2220      	movs	r2, #32
 8004cc4:	f883 203d 	strb.w	r2, [r3, #61]	; 0x3d
      hi2c->Mode = HAL_I2C_MODE_NONE;
 8004cc8:	697b      	ldr	r3, [r7, #20]
 8004cca:	2200      	movs	r2, #0
 8004ccc:	f883 203e 	strb.w	r2, [r3, #62]	; 0x3e
    HAL_I2C_ErrorCallback(hi2c);
 8004cd0:	6978      	ldr	r0, [r7, #20]
 8004cd2:	f7fe fc73 	bl	80035bc <HAL_I2C_ErrorCallback>
}
 8004cd6:	bf00      	nop
 8004cd8:	3718      	adds	r7, #24
 8004cda:	46bd      	mov	sp, r7
 8004cdc:	bd80      	pop	{r7, pc}
 8004cde:	bf00      	nop
 8004ce0:	2000001c 	.word	0x2000001c
 8004ce4:	14f8b589 	.word	0x14f8b589

08004ce8 <I2C_WaitOnFlagUntilTimeout>:
  * @param  Timeout Timeout duration
  * @param  Tickstart Tick start value
  * @retval HAL status
  */
static HAL_StatusTypeDef I2C_WaitOnFlagUntilTimeout(I2C_HandleTypeDef *hi2c, uint32_t Flag, FlagStatus Status, uint32_t Timeout, uint32_t Tickstart)
{
 8004ce8:	b580      	push	{r7, lr}
 8004cea:	b084      	sub	sp, #16
 8004cec:	af00      	add	r7, sp, #0
 8004cee:	60f8      	str	r0, [r7, #12]
 8004cf0:	60b9      	str	r1, [r7, #8]
 8004cf2:	603b      	str	r3, [r7, #0]
 8004cf4:	4613      	mov	r3, r2
 8004cf6:	71fb      	strb	r3, [r7, #7]
  /* Wait until flag is set */
  while (__HAL_I2C_GET_FLAG(hi2c, Flag) == Status)
 8004cf8:	e025      	b.n	8004d46 <I2C_WaitOnFlagUntilTimeout+0x5e>
  {
    /* Check for the Timeout */
    if (Timeout != HAL_MAX_DELAY)
 8004cfa:	683b      	ldr	r3, [r7, #0]
 8004cfc:	f1b3 3fff 	cmp.w	r3, #4294967295
 8004d00:	d021      	beq.n	8004d46 <I2C_WaitOnFlagUntilTimeout+0x5e>
    {
      if (((HAL_GetTick() - Tickstart) > Timeout) || (Timeout == 0U))
 8004d02:	f7fc ff0b 	bl	8001b1c <HAL_GetTick>
 8004d06:	4602      	mov	r2, r0
 8004d08:	69bb      	ldr	r3, [r7, #24]
 8004d0a:	1ad3      	subs	r3, r2, r3
 8004d0c:	683a      	ldr	r2, [r7, #0]
 8004d0e:	429a      	cmp	r2, r3
 8004d10:	d302      	bcc.n	8004d18 <I2C_WaitOnFlagUntilTimeout+0x30>
 8004d12:	683b      	ldr	r3, [r7, #0]
 8004d14:	2b00      	cmp	r3, #0
 8004d16:	d116      	bne.n	8004d46 <I2C_WaitOnFlagUntilTimeout+0x5e>
      {
        hi2c->PreviousState     = I2C_STATE_NONE;
 8004d18:	68fb      	ldr	r3, [r7, #12]
 8004d1a:	2200      	movs	r2, #0
 8004d1c:	631a      	str	r2, [r3, #48]	; 0x30
        hi2c->State             = HAL_I2C_STATE_READY;
 8004d1e:	68fb      	ldr	r3, [r7, #12]
 8004d20:	2220      	movs	r2, #32
 8004d22:	f883 203d 	strb.w	r2, [r3, #61]	; 0x3d
        hi2c->Mode              = HAL_I2C_MODE_NONE;
 8004d26:	68fb      	ldr	r3, [r7, #12]
 8004d28:	2200      	movs	r2, #0
 8004d2a:	f883 203e 	strb.w	r2, [r3, #62]	; 0x3e
        hi2c->ErrorCode         |= HAL_I2C_ERROR_TIMEOUT;
 8004d2e:	68fb      	ldr	r3, [r7, #12]
 8004d30:	6c1b      	ldr	r3, [r3, #64]	; 0x40
 8004d32:	f043 0220 	orr.w	r2, r3, #32
 8004d36:	68fb      	ldr	r3, [r7, #12]
 8004d38:	641a      	str	r2, [r3, #64]	; 0x40

        /* Process Unlocked */
        __HAL_UNLOCK(hi2c);
 8004d3a:	68fb      	ldr	r3, [r7, #12]
 8004d3c:	2200      	movs	r2, #0
 8004d3e:	f883 203c 	strb.w	r2, [r3, #60]	; 0x3c

        return HAL_ERROR;
 8004d42:	2301      	movs	r3, #1
 8004d44:	e023      	b.n	8004d8e <I2C_WaitOnFlagUntilTimeout+0xa6>
  while (__HAL_I2C_GET_FLAG(hi2c, Flag) == Status)
 8004d46:	68bb      	ldr	r3, [r7, #8]
 8004d48:	0c1b      	lsrs	r3, r3, #16
 8004d4a:	b2db      	uxtb	r3, r3
 8004d4c:	2b01      	cmp	r3, #1
 8004d4e:	d10d      	bne.n	8004d6c <I2C_WaitOnFlagUntilTimeout+0x84>
 8004d50:	68fb      	ldr	r3, [r7, #12]
 8004d52:	681b      	ldr	r3, [r3, #0]
 8004d54:	695b      	ldr	r3, [r3, #20]
 8004d56:	43da      	mvns	r2, r3
 8004d58:	68bb      	ldr	r3, [r7, #8]
 8004d5a:	4013      	ands	r3, r2
 8004d5c:	b29b      	uxth	r3, r3
 8004d5e:	2b00      	cmp	r3, #0
 8004d60:	bf0c      	ite	eq
 8004d62:	2301      	moveq	r3, #1
 8004d64:	2300      	movne	r3, #0
 8004d66:	b2db      	uxtb	r3, r3
 8004d68:	461a      	mov	r2, r3
 8004d6a:	e00c      	b.n	8004d86 <I2C_WaitOnFlagUntilTimeout+0x9e>
 8004d6c:	68fb      	ldr	r3, [r7, #12]
 8004d6e:	681b      	ldr	r3, [r3, #0]
 8004d70:	699b      	ldr	r3, [r3, #24]
 8004d72:	43da      	mvns	r2, r3
 8004d74:	68bb      	ldr	r3, [r7, #8]
 8004d76:	4013      	ands	r3, r2
 8004d78:	b29b      	uxth	r3, r3
 8004d7a:	2b00      	cmp	r3, #0
 8004d7c:	bf0c      	ite	eq
 8004d7e:	2301      	moveq	r3, #1
 8004d80:	2300      	movne	r3, #0
 8004d82:	b2db      	uxtb	r3, r3
 8004d84:	461a      	mov	r2, r3
 8004d86:	79fb      	ldrb	r3, [r7, #7]
 8004d88:	429a      	cmp	r2, r3
 8004d8a:	d0b6      	beq.n	8004cfa <I2C_WaitOnFlagUntilTimeout+0x12>
      }
    }
  }
  return HAL_OK;
 8004d8c:	2300      	movs	r3, #0
}
 8004d8e:	4618      	mov	r0, r3
 8004d90:	3710      	adds	r7, #16
 8004d92:	46bd      	mov	sp, r7
 8004d94:	bd80      	pop	{r7, pc}

08004d96 <I2C_WaitOnMasterAddressFlagUntilTimeout>:
  * @param  Timeout Timeout duration
  * @param  Tickstart Tick start value
  * @retval HAL status
  */
static HAL_StatusTypeDef I2C_WaitOnMasterAddressFlagUntilTimeout(I2C_HandleTypeDef *hi2c, uint32_t Flag, uint32_t Timeout, uint32_t Tickstart)
{
 8004d96:	b580      	push	{r7, lr}
 8004d98:	b084      	sub	sp, #16
 8004d9a:	af00      	add	r7, sp, #0
 8004d9c:	60f8      	str	r0, [r7, #12]
 8004d9e:	60b9      	str	r1, [r7, #8]
 8004da0:	607a      	str	r2, [r7, #4]
 8004da2:	603b      	str	r3, [r7, #0]
  while (__HAL_I2C_GET_FLAG(hi2c, Flag) == RESET)
 8004da4:	e051      	b.n	8004e4a <I2C_WaitOnMasterAddressFlagUntilTimeout+0xb4>
  {
    if (__HAL_I2C_GET_FLAG(hi2c, I2C_FLAG_AF) == SET)
 8004da6:	68fb      	ldr	r3, [r7, #12]
 8004da8:	681b      	ldr	r3, [r3, #0]
 8004daa:	695b      	ldr	r3, [r3, #20]
 8004dac:	f403 6380 	and.w	r3, r3, #1024	; 0x400
 8004db0:	f5b3 6f80 	cmp.w	r3, #1024	; 0x400
 8004db4:	d123      	bne.n	8004dfe <I2C_WaitOnMasterAddressFlagUntilTimeout+0x68>
    {
      /* Generate Stop */
      SET_BIT(hi2c->Instance->CR1, I2C_CR1_STOP);
 8004db6:	68fb      	ldr	r3, [r7, #12]
 8004db8:	681b      	ldr	r3, [r3, #0]
 8004dba:	681a      	ldr	r2, [r3, #0]
 8004dbc:	68fb      	ldr	r3, [r7, #12]
 8004dbe:	681b      	ldr	r3, [r3, #0]
 8004dc0:	f442 7200 	orr.w	r2, r2, #512	; 0x200
 8004dc4:	601a      	str	r2, [r3, #0]

      /* Clear AF Flag */
      __HAL_I2C_CLEAR_FLAG(hi2c, I2C_FLAG_AF);
 8004dc6:	68fb      	ldr	r3, [r7, #12]
 8004dc8:	681b      	ldr	r3, [r3, #0]
 8004dca:	f46f 6280 	mvn.w	r2, #1024	; 0x400
 8004dce:	615a      	str	r2, [r3, #20]

      hi2c->PreviousState       = I2C_STATE_NONE;
 8004dd0:	68fb      	ldr	r3, [r7, #12]
 8004dd2:	2200      	movs	r2, #0
 8004dd4:	631a      	str	r2, [r3, #48]	; 0x30
      hi2c->State               = HAL_I2C_STATE_READY;
 8004dd6:	68fb      	ldr	r3, [r7, #12]
 8004dd8:	2220      	movs	r2, #32
 8004dda:	f883 203d 	strb.w	r2, [r3, #61]	; 0x3d
      hi2c->Mode                = HAL_I2C_MODE_NONE;
 8004dde:	68fb      	ldr	r3, [r7, #12]
 8004de0:	2200      	movs	r2, #0
 8004de2:	f883 203e 	strb.w	r2, [r3, #62]	; 0x3e
      hi2c->ErrorCode           |= HAL_I2C_ERROR_AF;
 8004de6:	68fb      	ldr	r3, [r7, #12]
 8004de8:	6c1b      	ldr	r3, [r3, #64]	; 0x40
 8004dea:	f043 0204 	orr.w	r2, r3, #4
 8004dee:	68fb      	ldr	r3, [r7, #12]
 8004df0:	641a      	str	r2, [r3, #64]	; 0x40

      /* Process Unlocked */
      __HAL_UNLOCK(hi2c);
 8004df2:	68fb      	ldr	r3, [r7, #12]
 8004df4:	2200      	movs	r2, #0
 8004df6:	f883 203c 	strb.w	r2, [r3, #60]	; 0x3c

      return HAL_ERROR;
 8004dfa:	2301      	movs	r3, #1
 8004dfc:	e046      	b.n	8004e8c <I2C_WaitOnMasterAddressFlagUntilTimeout+0xf6>
    }

    /* Check for the Timeout */
    if (Timeout != HAL_MAX_DELAY)
 8004dfe:	687b      	ldr	r3, [r7, #4]
 8004e00:	f1b3 3fff 	cmp.w	r3, #4294967295
 8004e04:	d021      	beq.n	8004e4a <I2C_WaitOnMasterAddressFlagUntilTimeout+0xb4>
    {
      if (((HAL_GetTick() - Tickstart) > Timeout) || (Timeout == 0U))
 8004e06:	f7fc fe89 	bl	8001b1c <HAL_GetTick>
 8004e0a:	4602      	mov	r2, r0
 8004e0c:	683b      	ldr	r3, [r7, #0]
 8004e0e:	1ad3      	subs	r3, r2, r3
 8004e10:	687a      	ldr	r2, [r7, #4]
 8004e12:	429a      	cmp	r2, r3
 8004e14:	d302      	bcc.n	8004e1c <I2C_WaitOnMasterAddressFlagUntilTimeout+0x86>
 8004e16:	687b      	ldr	r3, [r7, #4]
 8004e18:	2b00      	cmp	r3, #0
 8004e1a:	d116      	bne.n	8004e4a <I2C_WaitOnMasterAddressFlagUntilTimeout+0xb4>
      {
        hi2c->PreviousState       = I2C_STATE_NONE;
 8004e1c:	68fb      	ldr	r3, [r7, #12]
 8004e1e:	2200      	movs	r2, #0
 8004e20:	631a      	str	r2, [r3, #48]	; 0x30
        hi2c->State               = HAL_I2C_STATE_READY;
 8004e22:	68fb      	ldr	r3, [r7, #12]
 8004e24:	2220      	movs	r2, #32
 8004e26:	f883 203d 	strb.w	r2, [r3, #61]	; 0x3d
        hi2c->Mode                = HAL_I2C_MODE_NONE;
 8004e2a:	68fb      	ldr	r3, [r7, #12]
 8004e2c:	2200      	movs	r2, #0
 8004e2e:	f883 203e 	strb.w	r2, [r3, #62]	; 0x3e
        hi2c->ErrorCode           |= HAL_I2C_ERROR_TIMEOUT;
 8004e32:	68fb      	ldr	r3, [r7, #12]
 8004e34:	6c1b      	ldr	r3, [r3, #64]	; 0x40
 8004e36:	f043 0220 	orr.w	r2, r3, #32
 8004e3a:	68fb      	ldr	r3, [r7, #12]
 8004e3c:	641a      	str	r2, [r3, #64]	; 0x40

        /* Process Unlocked */
        __HAL_UNLOCK(hi2c);
 8004e3e:	68fb      	ldr	r3, [r7, #12]
 8004e40:	2200      	movs	r2, #0
 8004e42:	f883 203c 	strb.w	r2, [r3, #60]	; 0x3c

        return HAL_ERROR;
 8004e46:	2301      	movs	r3, #1
 8004e48:	e020      	b.n	8004e8c <I2C_WaitOnMasterAddressFlagUntilTimeout+0xf6>
  while (__HAL_I2C_GET_FLAG(hi2c, Flag) == RESET)
 8004e4a:	68bb      	ldr	r3, [r7, #8]
 8004e4c:	0c1b      	lsrs	r3, r3, #16
 8004e4e:	b2db      	uxtb	r3, r3
 8004e50:	2b01      	cmp	r3, #1
 8004e52:	d10c      	bne.n	8004e6e <I2C_WaitOnMasterAddressFlagUntilTimeout+0xd8>
 8004e54:	68fb      	ldr	r3, [r7, #12]
 8004e56:	681b      	ldr	r3, [r3, #0]
 8004e58:	695b      	ldr	r3, [r3, #20]
 8004e5a:	43da      	mvns	r2, r3
 8004e5c:	68bb      	ldr	r3, [r7, #8]
 8004e5e:	4013      	ands	r3, r2
 8004e60:	b29b      	uxth	r3, r3
 8004e62:	2b00      	cmp	r3, #0
 8004e64:	bf14      	ite	ne
 8004e66:	2301      	movne	r3, #1
 8004e68:	2300      	moveq	r3, #0
 8004e6a:	b2db      	uxtb	r3, r3
 8004e6c:	e00b      	b.n	8004e86 <I2C_WaitOnMasterAddressFlagUntilTimeout+0xf0>
 8004e6e:	68fb      	ldr	r3, [r7, #12]
 8004e70:	681b      	ldr	r3, [r3, #0]
 8004e72:	699b      	ldr	r3, [r3, #24]
 8004e74:	43da      	mvns	r2, r3
 8004e76:	68bb      	ldr	r3, [r7, #8]
 8004e78:	4013      	ands	r3, r2
 8004e7a:	b29b      	uxth	r3, r3
 8004e7c:	2b00      	cmp	r3, #0
 8004e7e:	bf14      	ite	ne
 8004e80:	2301      	movne	r3, #1
 8004e82:	2300      	moveq	r3, #0
 8004e84:	b2db      	uxtb	r3, r3
 8004e86:	2b00      	cmp	r3, #0
 8004e88:	d18d      	bne.n	8004da6 <I2C_WaitOnMasterAddressFlagUntilTimeout+0x10>
      }
    }
  }
  return HAL_OK;
 8004e8a:	2300      	movs	r3, #0
}
 8004e8c:	4618      	mov	r0, r3
 8004e8e:	3710      	adds	r7, #16
 8004e90:	46bd      	mov	sp, r7
 8004e92:	bd80      	pop	{r7, pc}

08004e94 <I2C_WaitOnTXEFlagUntilTimeout>:
  * @param  Timeout Timeout duration
  * @param  Tickstart Tick start value
  * @retval HAL status
  */
static HAL_StatusTypeDef I2C_WaitOnTXEFlagUntilTimeout(I2C_HandleTypeDef *hi2c, uint32_t Timeout, uint32_t Tickstart)
{
 8004e94:	b580      	push	{r7, lr}
 8004e96:	b084      	sub	sp, #16
 8004e98:	af00      	add	r7, sp, #0
 8004e9a:	60f8      	str	r0, [r7, #12]
 8004e9c:	60b9      	str	r1, [r7, #8]
 8004e9e:	607a      	str	r2, [r7, #4]
  while (__HAL_I2C_GET_FLAG(hi2c, I2C_FLAG_TXE) == RESET)
 8004ea0:	e02d      	b.n	8004efe <I2C_WaitOnTXEFlagUntilTimeout+0x6a>
  {
    /* Check if a NACK is detected */
    if (I2C_IsAcknowledgeFailed(hi2c) != HAL_OK)
 8004ea2:	68f8      	ldr	r0, [r7, #12]
 8004ea4:	f000 f900 	bl	80050a8 <I2C_IsAcknowledgeFailed>
 8004ea8:	4603      	mov	r3, r0
 8004eaa:	2b00      	cmp	r3, #0
 8004eac:	d001      	beq.n	8004eb2 <I2C_WaitOnTXEFlagUntilTimeout+0x1e>
    {
      return HAL_ERROR;
 8004eae:	2301      	movs	r3, #1
 8004eb0:	e02d      	b.n	8004f0e <I2C_WaitOnTXEFlagUntilTimeout+0x7a>
    }

    /* Check for the Timeout */
    if (Timeout != HAL_MAX_DELAY)
 8004eb2:	68bb      	ldr	r3, [r7, #8]
 8004eb4:	f1b3 3fff 	cmp.w	r3, #4294967295
 8004eb8:	d021      	beq.n	8004efe <I2C_WaitOnTXEFlagUntilTimeout+0x6a>
    {
      if (((HAL_GetTick() - Tickstart) > Timeout) || (Timeout == 0U))
 8004eba:	f7fc fe2f 	bl	8001b1c <HAL_GetTick>
 8004ebe:	4602      	mov	r2, r0
 8004ec0:	687b      	ldr	r3, [r7, #4]
 8004ec2:	1ad3      	subs	r3, r2, r3
 8004ec4:	68ba      	ldr	r2, [r7, #8]
 8004ec6:	429a      	cmp	r2, r3
 8004ec8:	d302      	bcc.n	8004ed0 <I2C_WaitOnTXEFlagUntilTimeout+0x3c>
 8004eca:	68bb      	ldr	r3, [r7, #8]
 8004ecc:	2b00      	cmp	r3, #0
 8004ece:	d116      	bne.n	8004efe <I2C_WaitOnTXEFlagUntilTimeout+0x6a>
      {
        hi2c->PreviousState       = I2C_STATE_NONE;
 8004ed0:	68fb      	ldr	r3, [r7, #12]
 8004ed2:	2200      	movs	r2, #0
 8004ed4:	631a      	str	r2, [r3, #48]	; 0x30
        hi2c->State               = HAL_I2C_STATE_READY;
 8004ed6:	68fb      	ldr	r3, [r7, #12]
 8004ed8:	2220      	movs	r2, #32
 8004eda:	f883 203d 	strb.w	r2, [r3, #61]	; 0x3d
        hi2c->Mode                = HAL_I2C_MODE_NONE;
 8004ede:	68fb      	ldr	r3, [r7, #12]
 8004ee0:	2200      	movs	r2, #0
 8004ee2:	f883 203e 	strb.w	r2, [r3, #62]	; 0x3e
        hi2c->ErrorCode           |= HAL_I2C_ERROR_TIMEOUT;
 8004ee6:	68fb      	ldr	r3, [r7, #12]
 8004ee8:	6c1b      	ldr	r3, [r3, #64]	; 0x40
 8004eea:	f043 0220 	orr.w	r2, r3, #32
 8004eee:	68fb      	ldr	r3, [r7, #12]
 8004ef0:	641a      	str	r2, [r3, #64]	; 0x40

        /* Process Unlocked */
        __HAL_UNLOCK(hi2c);
 8004ef2:	68fb      	ldr	r3, [r7, #12]
 8004ef4:	2200      	movs	r2, #0
 8004ef6:	f883 203c 	strb.w	r2, [r3, #60]	; 0x3c

        return HAL_ERROR;
 8004efa:	2301      	movs	r3, #1
 8004efc:	e007      	b.n	8004f0e <I2C_WaitOnTXEFlagUntilTimeout+0x7a>
  while (__HAL_I2C_GET_FLAG(hi2c, I2C_FLAG_TXE) == RESET)
 8004efe:	68fb      	ldr	r3, [r7, #12]
 8004f00:	681b      	ldr	r3, [r3, #0]
 8004f02:	695b      	ldr	r3, [r3, #20]
 8004f04:	f003 0380 	and.w	r3, r3, #128	; 0x80
 8004f08:	2b80      	cmp	r3, #128	; 0x80
 8004f0a:	d1ca      	bne.n	8004ea2 <I2C_WaitOnTXEFlagUntilTimeout+0xe>
      }
    }
  }
  return HAL_OK;
 8004f0c:	2300      	movs	r3, #0
}
 8004f0e:	4618      	mov	r0, r3
 8004f10:	3710      	adds	r7, #16
 8004f12:	46bd      	mov	sp, r7
 8004f14:	bd80      	pop	{r7, pc}

08004f16 <I2C_WaitOnBTFFlagUntilTimeout>:
  * @param  Timeout Timeout duration
  * @param  Tickstart Tick start value
  * @retval HAL status
  */
static HAL_StatusTypeDef I2C_WaitOnBTFFlagUntilTimeout(I2C_HandleTypeDef *hi2c, uint32_t Timeout, uint32_t Tickstart)
{
 8004f16:	b580      	push	{r7, lr}
 8004f18:	b084      	sub	sp, #16
 8004f1a:	af00      	add	r7, sp, #0
 8004f1c:	60f8      	str	r0, [r7, #12]
 8004f1e:	60b9      	str	r1, [r7, #8]
 8004f20:	607a      	str	r2, [r7, #4]
  while (__HAL_I2C_GET_FLAG(hi2c, I2C_FLAG_BTF) == RESET)
 8004f22:	e02d      	b.n	8004f80 <I2C_WaitOnBTFFlagUntilTimeout+0x6a>
  {
    /* Check if a NACK is detected */
    if (I2C_IsAcknowledgeFailed(hi2c) != HAL_OK)
 8004f24:	68f8      	ldr	r0, [r7, #12]
 8004f26:	f000 f8bf 	bl	80050a8 <I2C_IsAcknowledgeFailed>
 8004f2a:	4603      	mov	r3, r0
 8004f2c:	2b00      	cmp	r3, #0
 8004f2e:	d001      	beq.n	8004f34 <I2C_WaitOnBTFFlagUntilTimeout+0x1e>
    {
      return HAL_ERROR;
 8004f30:	2301      	movs	r3, #1
 8004f32:	e02d      	b.n	8004f90 <I2C_WaitOnBTFFlagUntilTimeout+0x7a>
    }

    /* Check for the Timeout */
    if (Timeout != HAL_MAX_DELAY)
 8004f34:	68bb      	ldr	r3, [r7, #8]
 8004f36:	f1b3 3fff 	cmp.w	r3, #4294967295
 8004f3a:	d021      	beq.n	8004f80 <I2C_WaitOnBTFFlagUntilTimeout+0x6a>
    {
      if (((HAL_GetTick() - Tickstart) > Timeout) || (Timeout == 0U))
 8004f3c:	f7fc fdee 	bl	8001b1c <HAL_GetTick>
 8004f40:	4602      	mov	r2, r0
 8004f42:	687b      	ldr	r3, [r7, #4]
 8004f44:	1ad3      	subs	r3, r2, r3
 8004f46:	68ba      	ldr	r2, [r7, #8]
 8004f48:	429a      	cmp	r2, r3
 8004f4a:	d302      	bcc.n	8004f52 <I2C_WaitOnBTFFlagUntilTimeout+0x3c>
 8004f4c:	68bb      	ldr	r3, [r7, #8]
 8004f4e:	2b00      	cmp	r3, #0
 8004f50:	d116      	bne.n	8004f80 <I2C_WaitOnBTFFlagUntilTimeout+0x6a>
      {
        hi2c->PreviousState       = I2C_STATE_NONE;
 8004f52:	68fb      	ldr	r3, [r7, #12]
 8004f54:	2200      	movs	r2, #0
 8004f56:	631a      	str	r2, [r3, #48]	; 0x30
        hi2c->State               = HAL_I2C_STATE_READY;
 8004f58:	68fb      	ldr	r3, [r7, #12]
 8004f5a:	2220      	movs	r2, #32
 8004f5c:	f883 203d 	strb.w	r2, [r3, #61]	; 0x3d
        hi2c->Mode                = HAL_I2C_MODE_NONE;
 8004f60:	68fb      	ldr	r3, [r7, #12]
 8004f62:	2200      	movs	r2, #0
 8004f64:	f883 203e 	strb.w	r2, [r3, #62]	; 0x3e
        hi2c->ErrorCode           |= HAL_I2C_ERROR_TIMEOUT;
 8004f68:	68fb      	ldr	r3, [r7, #12]
 8004f6a:	6c1b      	ldr	r3, [r3, #64]	; 0x40
 8004f6c:	f043 0220 	orr.w	r2, r3, #32
 8004f70:	68fb      	ldr	r3, [r7, #12]
 8004f72:	641a      	str	r2, [r3, #64]	; 0x40

        /* Process Unlocked */
        __HAL_UNLOCK(hi2c);
 8004f74:	68fb      	ldr	r3, [r7, #12]
 8004f76:	2200      	movs	r2, #0
 8004f78:	f883 203c 	strb.w	r2, [r3, #60]	; 0x3c

        return HAL_ERROR;
 8004f7c:	2301      	movs	r3, #1
 8004f7e:	e007      	b.n	8004f90 <I2C_WaitOnBTFFlagUntilTimeout+0x7a>
  while (__HAL_I2C_GET_FLAG(hi2c, I2C_FLAG_BTF) == RESET)
 8004f80:	68fb      	ldr	r3, [r7, #12]
 8004f82:	681b      	ldr	r3, [r3, #0]
 8004f84:	695b      	ldr	r3, [r3, #20]
 8004f86:	f003 0304 	and.w	r3, r3, #4
 8004f8a:	2b04      	cmp	r3, #4
 8004f8c:	d1ca      	bne.n	8004f24 <I2C_WaitOnBTFFlagUntilTimeout+0xe>
      }
    }
  }
  return HAL_OK;
 8004f8e:	2300      	movs	r3, #0
}
 8004f90:	4618      	mov	r0, r3
 8004f92:	3710      	adds	r7, #16
 8004f94:	46bd      	mov	sp, r7
 8004f96:	bd80      	pop	{r7, pc}

08004f98 <I2C_WaitOnSTOPRequestThroughIT>:
  * @param  hi2c Pointer to a I2C_HandleTypeDef structure that contains
  *                the configuration information for the specified I2C.
  * @retval HAL status
  */
static HAL_StatusTypeDef I2C_WaitOnSTOPRequestThroughIT(I2C_HandleTypeDef *hi2c)
{
 8004f98:	b480      	push	{r7}
 8004f9a:	b085      	sub	sp, #20
 8004f9c:	af00      	add	r7, sp, #0
 8004f9e:	6078      	str	r0, [r7, #4]
  __IO uint32_t count = 0U;
 8004fa0:	2300      	movs	r3, #0
 8004fa2:	60fb      	str	r3, [r7, #12]

  /* Wait until STOP flag is reset */
  count = I2C_TIMEOUT_STOP_FLAG * (SystemCoreClock / 25U / 1000U);
 8004fa4:	4b13      	ldr	r3, [pc, #76]	; (8004ff4 <I2C_WaitOnSTOPRequestThroughIT+0x5c>)
 8004fa6:	681b      	ldr	r3, [r3, #0]
 8004fa8:	08db      	lsrs	r3, r3, #3
 8004faa:	4a13      	ldr	r2, [pc, #76]	; (8004ff8 <I2C_WaitOnSTOPRequestThroughIT+0x60>)
 8004fac:	fba2 2303 	umull	r2, r3, r2, r3
 8004fb0:	0a1a      	lsrs	r2, r3, #8
 8004fb2:	4613      	mov	r3, r2
 8004fb4:	009b      	lsls	r3, r3, #2
 8004fb6:	4413      	add	r3, r2
 8004fb8:	60fb      	str	r3, [r7, #12]
  do
  {
    count--;
 8004fba:	68fb      	ldr	r3, [r7, #12]
 8004fbc:	3b01      	subs	r3, #1
 8004fbe:	60fb      	str	r3, [r7, #12]
    if (count == 0U)
 8004fc0:	68fb      	ldr	r3, [r7, #12]
 8004fc2:	2b00      	cmp	r3, #0
 8004fc4:	d107      	bne.n	8004fd6 <I2C_WaitOnSTOPRequestThroughIT+0x3e>
    {
      hi2c->ErrorCode           |= HAL_I2C_ERROR_TIMEOUT;
 8004fc6:	687b      	ldr	r3, [r7, #4]
 8004fc8:	6c1b      	ldr	r3, [r3, #64]	; 0x40
 8004fca:	f043 0220 	orr.w	r2, r3, #32
 8004fce:	687b      	ldr	r3, [r7, #4]
 8004fd0:	641a      	str	r2, [r3, #64]	; 0x40

      return HAL_ERROR;
 8004fd2:	2301      	movs	r3, #1
 8004fd4:	e008      	b.n	8004fe8 <I2C_WaitOnSTOPRequestThroughIT+0x50>
    }
  }
  while (READ_BIT(hi2c->Instance->CR1, I2C_CR1_STOP) == I2C_CR1_STOP);
 8004fd6:	687b      	ldr	r3, [r7, #4]
 8004fd8:	681b      	ldr	r3, [r3, #0]
 8004fda:	681b      	ldr	r3, [r3, #0]
 8004fdc:	f403 7300 	and.w	r3, r3, #512	; 0x200
 8004fe0:	f5b3 7f00 	cmp.w	r3, #512	; 0x200
 8004fe4:	d0e9      	beq.n	8004fba <I2C_WaitOnSTOPRequestThroughIT+0x22>

  return HAL_OK;
 8004fe6:	2300      	movs	r3, #0
}
 8004fe8:	4618      	mov	r0, r3
 8004fea:	3714      	adds	r7, #20
 8004fec:	46bd      	mov	sp, r7
 8004fee:	f85d 7b04 	ldr.w	r7, [sp], #4
 8004ff2:	4770      	bx	lr
 8004ff4:	2000001c 	.word	0x2000001c
 8004ff8:	14f8b589 	.word	0x14f8b589

08004ffc <I2C_WaitOnRXNEFlagUntilTimeout>:
  * @param  Timeout Timeout duration
  * @param  Tickstart Tick start value
  * @retval HAL status
  */
static HAL_StatusTypeDef I2C_WaitOnRXNEFlagUntilTimeout(I2C_HandleTypeDef *hi2c, uint32_t Timeout, uint32_t Tickstart)
{
 8004ffc:	b580      	push	{r7, lr}
 8004ffe:	b084      	sub	sp, #16
 8005000:	af00      	add	r7, sp, #0
 8005002:	60f8      	str	r0, [r7, #12]
 8005004:	60b9      	str	r1, [r7, #8]
 8005006:	607a      	str	r2, [r7, #4]

  while (__HAL_I2C_GET_FLAG(hi2c, I2C_FLAG_RXNE) == RESET)
 8005008:	e042      	b.n	8005090 <I2C_WaitOnRXNEFlagUntilTimeout+0x94>
  {
    /* Check if a STOPF is detected */
    if (__HAL_I2C_GET_FLAG(hi2c, I2C_FLAG_STOPF) == SET)
 800500a:	68fb      	ldr	r3, [r7, #12]
 800500c:	681b      	ldr	r3, [r3, #0]
 800500e:	695b      	ldr	r3, [r3, #20]
 8005010:	f003 0310 	and.w	r3, r3, #16
 8005014:	2b10      	cmp	r3, #16
 8005016:	d119      	bne.n	800504c <I2C_WaitOnRXNEFlagUntilTimeout+0x50>
    {
      /* Clear STOP Flag */
      __HAL_I2C_CLEAR_FLAG(hi2c, I2C_FLAG_STOPF);
 8005018:	68fb      	ldr	r3, [r7, #12]
 800501a:	681b      	ldr	r3, [r3, #0]
 800501c:	f06f 0210 	mvn.w	r2, #16
 8005020:	615a      	str	r2, [r3, #20]

      hi2c->PreviousState       = I2C_STATE_NONE;
 8005022:	68fb      	ldr	r3, [r7, #12]
 8005024:	2200      	movs	r2, #0
 8005026:	631a      	str	r2, [r3, #48]	; 0x30
      hi2c->State               = HAL_I2C_STATE_READY;
 8005028:	68fb      	ldr	r3, [r7, #12]
 800502a:	2220      	movs	r2, #32
 800502c:	f883 203d 	strb.w	r2, [r3, #61]	; 0x3d
      hi2c->Mode                = HAL_I2C_MODE_NONE;
 8005030:	68fb      	ldr	r3, [r7, #12]
 8005032:	2200      	movs	r2, #0
 8005034:	f883 203e 	strb.w	r2, [r3, #62]	; 0x3e
      hi2c->ErrorCode           |= HAL_I2C_ERROR_NONE;
 8005038:	68fb      	ldr	r3, [r7, #12]
 800503a:	6c1a      	ldr	r2, [r3, #64]	; 0x40
 800503c:	68fb      	ldr	r3, [r7, #12]
 800503e:	641a      	str	r2, [r3, #64]	; 0x40

      /* Process Unlocked */
      __HAL_UNLOCK(hi2c);
 8005040:	68fb      	ldr	r3, [r7, #12]
 8005042:	2200      	movs	r2, #0
 8005044:	f883 203c 	strb.w	r2, [r3, #60]	; 0x3c

      return HAL_ERROR;
 8005048:	2301      	movs	r3, #1
 800504a:	e029      	b.n	80050a0 <I2C_WaitOnRXNEFlagUntilTimeout+0xa4>
    }

    /* Check for the Timeout */
    if (((HAL_GetTick() - Tickstart) > Timeout) || (Timeout == 0U))
 800504c:	f7fc fd66 	bl	8001b1c <HAL_GetTick>
 8005050:	4602      	mov	r2, r0
 8005052:	687b      	ldr	r3, [r7, #4]
 8005054:	1ad3      	subs	r3, r2, r3
 8005056:	68ba      	ldr	r2, [r7, #8]
 8005058:	429a      	cmp	r2, r3
 800505a:	d302      	bcc.n	8005062 <I2C_WaitOnRXNEFlagUntilTimeout+0x66>
 800505c:	68bb      	ldr	r3, [r7, #8]
 800505e:	2b00      	cmp	r3, #0
 8005060:	d116      	bne.n	8005090 <I2C_WaitOnRXNEFlagUntilTimeout+0x94>
    {
      hi2c->PreviousState       = I2C_STATE_NONE;
 8005062:	68fb      	ldr	r3, [r7, #12]
 8005064:	2200      	movs	r2, #0
 8005066:	631a      	str	r2, [r3, #48]	; 0x30
      hi2c->State               = HAL_I2C_STATE_READY;
 8005068:	68fb      	ldr	r3, [r7, #12]
 800506a:	2220      	movs	r2, #32
 800506c:	f883 203d 	strb.w	r2, [r3, #61]	; 0x3d
      hi2c->Mode                = HAL_I2C_MODE_NONE;
 8005070:	68fb      	ldr	r3, [r7, #12]
 8005072:	2200      	movs	r2, #0
 8005074:	f883 203e 	strb.w	r2, [r3, #62]	; 0x3e
      hi2c->ErrorCode           |= HAL_I2C_ERROR_TIMEOUT;
 8005078:	68fb      	ldr	r3, [r7, #12]
 800507a:	6c1b      	ldr	r3, [r3, #64]	; 0x40
 800507c:	f043 0220 	orr.w	r2, r3, #32
 8005080:	68fb      	ldr	r3, [r7, #12]
 8005082:	641a      	str	r2, [r3, #64]	; 0x40

      /* Process Unlocked */
      __HAL_UNLOCK(hi2c);
 8005084:	68fb      	ldr	r3, [r7, #12]
 8005086:	2200      	movs	r2, #0
 8005088:	f883 203c 	strb.w	r2, [r3, #60]	; 0x3c

      return HAL_ERROR;
 800508c:	2301      	movs	r3, #1
 800508e:	e007      	b.n	80050a0 <I2C_WaitOnRXNEFlagUntilTimeout+0xa4>
  while (__HAL_I2C_GET_FLAG(hi2c, I2C_FLAG_RXNE) == RESET)
 8005090:	68fb      	ldr	r3, [r7, #12]
 8005092:	681b      	ldr	r3, [r3, #0]
 8005094:	695b      	ldr	r3, [r3, #20]
 8005096:	f003 0340 	and.w	r3, r3, #64	; 0x40
 800509a:	2b40      	cmp	r3, #64	; 0x40
 800509c:	d1b5      	bne.n	800500a <I2C_WaitOnRXNEFlagUntilTimeout+0xe>
    }
  }
  return HAL_OK;
 800509e:	2300      	movs	r3, #0
}
 80050a0:	4618      	mov	r0, r3
 80050a2:	3710      	adds	r7, #16
 80050a4:	46bd      	mov	sp, r7
 80050a6:	bd80      	pop	{r7, pc}

080050a8 <I2C_IsAcknowledgeFailed>:
  * @param  hi2c Pointer to a I2C_HandleTypeDef structure that contains
  *                the configuration information for the specified I2C.
  * @retval HAL status
  */
static HAL_StatusTypeDef I2C_IsAcknowledgeFailed(I2C_HandleTypeDef *hi2c)
{
 80050a8:	b480      	push	{r7}
 80050aa:	b083      	sub	sp, #12
 80050ac:	af00      	add	r7, sp, #0
 80050ae:	6078      	str	r0, [r7, #4]
  if (__HAL_I2C_GET_FLAG(hi2c, I2C_FLAG_AF) == SET)
 80050b0:	687b      	ldr	r3, [r7, #4]
 80050b2:	681b      	ldr	r3, [r3, #0]
 80050b4:	695b      	ldr	r3, [r3, #20]
 80050b6:	f403 6380 	and.w	r3, r3, #1024	; 0x400
 80050ba:	f5b3 6f80 	cmp.w	r3, #1024	; 0x400
 80050be:	d11b      	bne.n	80050f8 <I2C_IsAcknowledgeFailed+0x50>
  {
    /* Clear NACKF Flag */
    __HAL_I2C_CLEAR_FLAG(hi2c, I2C_FLAG_AF);
 80050c0:	687b      	ldr	r3, [r7, #4]
 80050c2:	681b      	ldr	r3, [r3, #0]
 80050c4:	f46f 6280 	mvn.w	r2, #1024	; 0x400
 80050c8:	615a      	str	r2, [r3, #20]

    hi2c->PreviousState       = I2C_STATE_NONE;
 80050ca:	687b      	ldr	r3, [r7, #4]
 80050cc:	2200      	movs	r2, #0
 80050ce:	631a      	str	r2, [r3, #48]	; 0x30
    hi2c->State               = HAL_I2C_STATE_READY;
 80050d0:	687b      	ldr	r3, [r7, #4]
 80050d2:	2220      	movs	r2, #32
 80050d4:	f883 203d 	strb.w	r2, [r3, #61]	; 0x3d
    hi2c->Mode                = HAL_I2C_MODE_NONE;
 80050d8:	687b      	ldr	r3, [r7, #4]
 80050da:	2200      	movs	r2, #0
 80050dc:	f883 203e 	strb.w	r2, [r3, #62]	; 0x3e
    hi2c->ErrorCode           |= HAL_I2C_ERROR_AF;
 80050e0:	687b      	ldr	r3, [r7, #4]
 80050e2:	6c1b      	ldr	r3, [r3, #64]	; 0x40
 80050e4:	f043 0204 	orr.w	r2, r3, #4
 80050e8:	687b      	ldr	r3, [r7, #4]
 80050ea:	641a      	str	r2, [r3, #64]	; 0x40

    /* Process Unlocked */
    __HAL_UNLOCK(hi2c);
 80050ec:	687b      	ldr	r3, [r7, #4]
 80050ee:	2200      	movs	r2, #0
 80050f0:	f883 203c 	strb.w	r2, [r3, #60]	; 0x3c

    return HAL_ERROR;
 80050f4:	2301      	movs	r3, #1
 80050f6:	e000      	b.n	80050fa <I2C_IsAcknowledgeFailed+0x52>
  }
  return HAL_OK;
 80050f8:	2300      	movs	r3, #0
}
 80050fa:	4618      	mov	r0, r3
 80050fc:	370c      	adds	r7, #12
 80050fe:	46bd      	mov	sp, r7
 8005100:	f85d 7b04 	ldr.w	r7, [sp], #4
 8005104:	4770      	bx	lr

08005106 <I2C_ConvertOtherXferOptions>:
  * @brief  Convert I2Cx OTHER_xxx XferOptions to functional XferOptions.
  * @param  hi2c I2C handle.
  * @retval None
  */
static void I2C_ConvertOtherXferOptions(I2C_HandleTypeDef *hi2c)
{
 8005106:	b480      	push	{r7}
 8005108:	b083      	sub	sp, #12
 800510a:	af00      	add	r7, sp, #0
 800510c:	6078      	str	r0, [r7, #4]
  /* if user set XferOptions to I2C_OTHER_FRAME            */
  /* it request implicitly to generate a restart condition */
  /* set XferOptions to I2C_FIRST_FRAME                    */
  if (hi2c->XferOptions == I2C_OTHER_FRAME)
 800510e:	687b      	ldr	r3, [r7, #4]
 8005110:	6adb      	ldr	r3, [r3, #44]	; 0x2c
 8005112:	f5b3 0f2a 	cmp.w	r3, #11141120	; 0xaa0000
 8005116:	d103      	bne.n	8005120 <I2C_ConvertOtherXferOptions+0x1a>
  {
    hi2c->XferOptions = I2C_FIRST_FRAME;
 8005118:	687b      	ldr	r3, [r7, #4]
 800511a:	2201      	movs	r2, #1
 800511c:	62da      	str	r2, [r3, #44]	; 0x2c
  }
  else
  {
    /* Nothing to do */
  }
}
 800511e:	e007      	b.n	8005130 <I2C_ConvertOtherXferOptions+0x2a>
  else if (hi2c->XferOptions == I2C_OTHER_AND_LAST_FRAME)
 8005120:	687b      	ldr	r3, [r7, #4]
 8005122:	6adb      	ldr	r3, [r3, #44]	; 0x2c
 8005124:	f1b3 4f2a 	cmp.w	r3, #2852126720	; 0xaa000000
 8005128:	d102      	bne.n	8005130 <I2C_ConvertOtherXferOptions+0x2a>
    hi2c->XferOptions = I2C_FIRST_AND_LAST_FRAME;
 800512a:	687b      	ldr	r3, [r7, #4]
 800512c:	2208      	movs	r2, #8
 800512e:	62da      	str	r2, [r3, #44]	; 0x2c
}
 8005130:	bf00      	nop
 8005132:	370c      	adds	r7, #12
 8005134:	46bd      	mov	sp, r7
 8005136:	f85d 7b04 	ldr.w	r7, [sp], #4
 800513a:	4770      	bx	lr

0800513c <HAL_RCC_OscConfig>:
  *         supported by this API. User should request a transition to HSE Off
  *         first and then HSE On or HSE Bypass.
  * @retval HAL status
  */
__weak HAL_StatusTypeDef HAL_RCC_OscConfig(RCC_OscInitTypeDef  *RCC_OscInitStruct)
{
 800513c:	b580      	push	{r7, lr}
 800513e:	b086      	sub	sp, #24
 8005140:	af00      	add	r7, sp, #0
 8005142:	6078      	str	r0, [r7, #4]
  uint32_t tickstart, pll_config;

  /* Check Null pointer */
  if(RCC_OscInitStruct == NULL)
 8005144:	687b      	ldr	r3, [r7, #4]
 8005146:	2b00      	cmp	r3, #0
 8005148:	d101      	bne.n	800514e <HAL_RCC_OscConfig+0x12>
  {
    return HAL_ERROR;
 800514a:	2301      	movs	r3, #1
 800514c:	e264      	b.n	8005618 <HAL_RCC_OscConfig+0x4dc>
  }

  /* Check the parameters */
  assert_param(IS_RCC_OSCILLATORTYPE(RCC_OscInitStruct->OscillatorType));
  /*------------------------------- HSE Configuration ------------------------*/
  if(((RCC_OscInitStruct->OscillatorType) & RCC_OSCILLATORTYPE_HSE) == RCC_OSCILLATORTYPE_HSE)
 800514e:	687b      	ldr	r3, [r7, #4]
 8005150:	681b      	ldr	r3, [r3, #0]
 8005152:	f003 0301 	and.w	r3, r3, #1
 8005156:	2b00      	cmp	r3, #0
 8005158:	d075      	beq.n	8005246 <HAL_RCC_OscConfig+0x10a>
  {
    /* Check the parameters */
    assert_param(IS_RCC_HSE(RCC_OscInitStruct->HSEState));
    /* When the HSE is used as system clock or clock source for PLL in these cases HSE will not disabled */
    if((__HAL_RCC_GET_SYSCLK_SOURCE() == RCC_CFGR_SWS_HSE) ||\
 800515a:	4ba3      	ldr	r3, [pc, #652]	; (80053e8 <HAL_RCC_OscConfig+0x2ac>)
 800515c:	689b      	ldr	r3, [r3, #8]
 800515e:	f003 030c 	and.w	r3, r3, #12
 8005162:	2b04      	cmp	r3, #4
 8005164:	d00c      	beq.n	8005180 <HAL_RCC_OscConfig+0x44>
      ((__HAL_RCC_GET_SYSCLK_SOURCE() == RCC_CFGR_SWS_PLL) && ((RCC->PLLCFGR & RCC_PLLCFGR_PLLSRC) == RCC_PLLCFGR_PLLSRC_HSE)))
 8005166:	4ba0      	ldr	r3, [pc, #640]	; (80053e8 <HAL_RCC_OscConfig+0x2ac>)
 8005168:	689b      	ldr	r3, [r3, #8]
 800516a:	f003 030c 	and.w	r3, r3, #12
    if((__HAL_RCC_GET_SYSCLK_SOURCE() == RCC_CFGR_SWS_HSE) ||\
 800516e:	2b08      	cmp	r3, #8
 8005170:	d112      	bne.n	8005198 <HAL_RCC_OscConfig+0x5c>
      ((__HAL_RCC_GET_SYSCLK_SOURCE() == RCC_CFGR_SWS_PLL) && ((RCC->PLLCFGR & RCC_PLLCFGR_PLLSRC) == RCC_PLLCFGR_PLLSRC_HSE)))
 8005172:	4b9d      	ldr	r3, [pc, #628]	; (80053e8 <HAL_RCC_OscConfig+0x2ac>)
 8005174:	685b      	ldr	r3, [r3, #4]
 8005176:	f403 0380 	and.w	r3, r3, #4194304	; 0x400000
 800517a:	f5b3 0f80 	cmp.w	r3, #4194304	; 0x400000
 800517e:	d10b      	bne.n	8005198 <HAL_RCC_OscConfig+0x5c>
    {
      if((__HAL_RCC_GET_FLAG(RCC_FLAG_HSERDY) != RESET) && (RCC_OscInitStruct->HSEState == RCC_HSE_OFF))
 8005180:	4b99      	ldr	r3, [pc, #612]	; (80053e8 <HAL_RCC_OscConfig+0x2ac>)
 8005182:	681b      	ldr	r3, [r3, #0]
 8005184:	f403 3300 	and.w	r3, r3, #131072	; 0x20000
 8005188:	2b00      	cmp	r3, #0
 800518a:	d05b      	beq.n	8005244 <HAL_RCC_OscConfig+0x108>
 800518c:	687b      	ldr	r3, [r7, #4]
 800518e:	685b      	ldr	r3, [r3, #4]
 8005190:	2b00      	cmp	r3, #0
 8005192:	d157      	bne.n	8005244 <HAL_RCC_OscConfig+0x108>
      {
        return HAL_ERROR;
 8005194:	2301      	movs	r3, #1
 8005196:	e23f      	b.n	8005618 <HAL_RCC_OscConfig+0x4dc>
      }
    }
    else
    {
      /* Set the new HSE configuration ---------------------------------------*/
      __HAL_RCC_HSE_CONFIG(RCC_OscInitStruct->HSEState);
 8005198:	687b      	ldr	r3, [r7, #4]
 800519a:	685b      	ldr	r3, [r3, #4]
 800519c:	f5b3 3f80 	cmp.w	r3, #65536	; 0x10000
 80051a0:	d106      	bne.n	80051b0 <HAL_RCC_OscConfig+0x74>
 80051a2:	4b91      	ldr	r3, [pc, #580]	; (80053e8 <HAL_RCC_OscConfig+0x2ac>)
 80051a4:	681b      	ldr	r3, [r3, #0]
 80051a6:	4a90      	ldr	r2, [pc, #576]	; (80053e8 <HAL_RCC_OscConfig+0x2ac>)
 80051a8:	f443 3380 	orr.w	r3, r3, #65536	; 0x10000
 80051ac:	6013      	str	r3, [r2, #0]
 80051ae:	e01d      	b.n	80051ec <HAL_RCC_OscConfig+0xb0>
 80051b0:	687b      	ldr	r3, [r7, #4]
 80051b2:	685b      	ldr	r3, [r3, #4]
 80051b4:	f5b3 2fa0 	cmp.w	r3, #327680	; 0x50000
 80051b8:	d10c      	bne.n	80051d4 <HAL_RCC_OscConfig+0x98>
 80051ba:	4b8b      	ldr	r3, [pc, #556]	; (80053e8 <HAL_RCC_OscConfig+0x2ac>)
 80051bc:	681b      	ldr	r3, [r3, #0]
 80051be:	4a8a      	ldr	r2, [pc, #552]	; (80053e8 <HAL_RCC_OscConfig+0x2ac>)
 80051c0:	f443 2380 	orr.w	r3, r3, #262144	; 0x40000
 80051c4:	6013      	str	r3, [r2, #0]
 80051c6:	4b88      	ldr	r3, [pc, #544]	; (80053e8 <HAL_RCC_OscConfig+0x2ac>)
 80051c8:	681b      	ldr	r3, [r3, #0]
 80051ca:	4a87      	ldr	r2, [pc, #540]	; (80053e8 <HAL_RCC_OscConfig+0x2ac>)
 80051cc:	f443 3380 	orr.w	r3, r3, #65536	; 0x10000
 80051d0:	6013      	str	r3, [r2, #0]
 80051d2:	e00b      	b.n	80051ec <HAL_RCC_OscConfig+0xb0>
 80051d4:	4b84      	ldr	r3, [pc, #528]	; (80053e8 <HAL_RCC_OscConfig+0x2ac>)
 80051d6:	681b      	ldr	r3, [r3, #0]
 80051d8:	4a83      	ldr	r2, [pc, #524]	; (80053e8 <HAL_RCC_OscConfig+0x2ac>)
 80051da:	f423 3380 	bic.w	r3, r3, #65536	; 0x10000
 80051de:	6013      	str	r3, [r2, #0]
 80051e0:	4b81      	ldr	r3, [pc, #516]	; (80053e8 <HAL_RCC_OscConfig+0x2ac>)
 80051e2:	681b      	ldr	r3, [r3, #0]
 80051e4:	4a80      	ldr	r2, [pc, #512]	; (80053e8 <HAL_RCC_OscConfig+0x2ac>)
 80051e6:	f423 2380 	bic.w	r3, r3, #262144	; 0x40000
 80051ea:	6013      	str	r3, [r2, #0]

      /* Check the HSE State */
      if((RCC_OscInitStruct->HSEState) != RCC_HSE_OFF)
 80051ec:	687b      	ldr	r3, [r7, #4]
 80051ee:	685b      	ldr	r3, [r3, #4]
 80051f0:	2b00      	cmp	r3, #0
 80051f2:	d013      	beq.n	800521c <HAL_RCC_OscConfig+0xe0>
      {
        /* Get Start Tick */
        tickstart = HAL_GetTick();
 80051f4:	f7fc fc92 	bl	8001b1c <HAL_GetTick>
 80051f8:	6138      	str	r0, [r7, #16]

        /* Wait till HSE is ready */
        while(__HAL_RCC_GET_FLAG(RCC_FLAG_HSERDY) == RESET)
 80051fa:	e008      	b.n	800520e <HAL_RCC_OscConfig+0xd2>
        {
          if((HAL_GetTick() - tickstart ) > HSE_TIMEOUT_VALUE)
 80051fc:	f7fc fc8e 	bl	8001b1c <HAL_GetTick>
 8005200:	4602      	mov	r2, r0
 8005202:	693b      	ldr	r3, [r7, #16]
 8005204:	1ad3      	subs	r3, r2, r3
 8005206:	2b64      	cmp	r3, #100	; 0x64
 8005208:	d901      	bls.n	800520e <HAL_RCC_OscConfig+0xd2>
          {
            return HAL_TIMEOUT;
 800520a:	2303      	movs	r3, #3
 800520c:	e204      	b.n	8005618 <HAL_RCC_OscConfig+0x4dc>
        while(__HAL_RCC_GET_FLAG(RCC_FLAG_HSERDY) == RESET)
 800520e:	4b76      	ldr	r3, [pc, #472]	; (80053e8 <HAL_RCC_OscConfig+0x2ac>)
 8005210:	681b      	ldr	r3, [r3, #0]
 8005212:	f403 3300 	and.w	r3, r3, #131072	; 0x20000
 8005216:	2b00      	cmp	r3, #0
 8005218:	d0f0      	beq.n	80051fc <HAL_RCC_OscConfig+0xc0>
 800521a:	e014      	b.n	8005246 <HAL_RCC_OscConfig+0x10a>
        }
      }
      else
      {
        /* Get Start Tick */
        tickstart = HAL_GetTick();
 800521c:	f7fc fc7e 	bl	8001b1c <HAL_GetTick>
 8005220:	6138      	str	r0, [r7, #16]

        /* Wait till HSE is bypassed or disabled */
        while(__HAL_RCC_GET_FLAG(RCC_FLAG_HSERDY) != RESET)
 8005222:	e008      	b.n	8005236 <HAL_RCC_OscConfig+0xfa>
        {
          if((HAL_GetTick() - tickstart ) > HSE_TIMEOUT_VALUE)
 8005224:	f7fc fc7a 	bl	8001b1c <HAL_GetTick>
 8005228:	4602      	mov	r2, r0
 800522a:	693b      	ldr	r3, [r7, #16]
 800522c:	1ad3      	subs	r3, r2, r3
 800522e:	2b64      	cmp	r3, #100	; 0x64
 8005230:	d901      	bls.n	8005236 <HAL_RCC_OscConfig+0xfa>
          {
            return HAL_TIMEOUT;
 8005232:	2303      	movs	r3, #3
 8005234:	e1f0      	b.n	8005618 <HAL_RCC_OscConfig+0x4dc>
        while(__HAL_RCC_GET_FLAG(RCC_FLAG_HSERDY) != RESET)
 8005236:	4b6c      	ldr	r3, [pc, #432]	; (80053e8 <HAL_RCC_OscConfig+0x2ac>)
 8005238:	681b      	ldr	r3, [r3, #0]
 800523a:	f403 3300 	and.w	r3, r3, #131072	; 0x20000
 800523e:	2b00      	cmp	r3, #0
 8005240:	d1f0      	bne.n	8005224 <HAL_RCC_OscConfig+0xe8>
 8005242:	e000      	b.n	8005246 <HAL_RCC_OscConfig+0x10a>
      if((__HAL_RCC_GET_FLAG(RCC_FLAG_HSERDY) != RESET) && (RCC_OscInitStruct->HSEState == RCC_HSE_OFF))
 8005244:	bf00      	nop
        }
      }
    }
  }
  /*----------------------------- HSI Configuration --------------------------*/
  if(((RCC_OscInitStruct->OscillatorType) & RCC_OSCILLATORTYPE_HSI) == RCC_OSCILLATORTYPE_HSI)
 8005246:	687b      	ldr	r3, [r7, #4]
 8005248:	681b      	ldr	r3, [r3, #0]
 800524a:	f003 0302 	and.w	r3, r3, #2
 800524e:	2b00      	cmp	r3, #0
 8005250:	d063      	beq.n	800531a <HAL_RCC_OscConfig+0x1de>
    /* Check the parameters */
    assert_param(IS_RCC_HSI(RCC_OscInitStruct->HSIState));
    assert_param(IS_RCC_CALIBRATION_VALUE(RCC_OscInitStruct->HSICalibrationValue));

    /* Check if HSI is used as system clock or as PLL source when PLL is selected as system clock */
    if((__HAL_RCC_GET_SYSCLK_SOURCE() == RCC_CFGR_SWS_HSI) ||\
 8005252:	4b65      	ldr	r3, [pc, #404]	; (80053e8 <HAL_RCC_OscConfig+0x2ac>)
 8005254:	689b      	ldr	r3, [r3, #8]
 8005256:	f003 030c 	and.w	r3, r3, #12
 800525a:	2b00      	cmp	r3, #0
 800525c:	d00b      	beq.n	8005276 <HAL_RCC_OscConfig+0x13a>
      ((__HAL_RCC_GET_SYSCLK_SOURCE() == RCC_CFGR_SWS_PLL) && ((RCC->PLLCFGR & RCC_PLLCFGR_PLLSRC) == RCC_PLLCFGR_PLLSRC_HSI)))
 800525e:	4b62      	ldr	r3, [pc, #392]	; (80053e8 <HAL_RCC_OscConfig+0x2ac>)
 8005260:	689b      	ldr	r3, [r3, #8]
 8005262:	f003 030c 	and.w	r3, r3, #12
    if((__HAL_RCC_GET_SYSCLK_SOURCE() == RCC_CFGR_SWS_HSI) ||\
 8005266:	2b08      	cmp	r3, #8
 8005268:	d11c      	bne.n	80052a4 <HAL_RCC_OscConfig+0x168>
      ((__HAL_RCC_GET_SYSCLK_SOURCE() == RCC_CFGR_SWS_PLL) && ((RCC->PLLCFGR & RCC_PLLCFGR_PLLSRC) == RCC_PLLCFGR_PLLSRC_HSI)))
 800526a:	4b5f      	ldr	r3, [pc, #380]	; (80053e8 <HAL_RCC_OscConfig+0x2ac>)
 800526c:	685b      	ldr	r3, [r3, #4]
 800526e:	f403 0380 	and.w	r3, r3, #4194304	; 0x400000
 8005272:	2b00      	cmp	r3, #0
 8005274:	d116      	bne.n	80052a4 <HAL_RCC_OscConfig+0x168>
    {
      /* When HSI is used as system clock it will not disabled */
      if((__HAL_RCC_GET_FLAG(RCC_FLAG_HSIRDY) != RESET) && (RCC_OscInitStruct->HSIState != RCC_HSI_ON))
 8005276:	4b5c      	ldr	r3, [pc, #368]	; (80053e8 <HAL_RCC_OscConfig+0x2ac>)
 8005278:	681b      	ldr	r3, [r3, #0]
 800527a:	f003 0302 	and.w	r3, r3, #2
 800527e:	2b00      	cmp	r3, #0
 8005280:	d005      	beq.n	800528e <HAL_RCC_OscConfig+0x152>
 8005282:	687b      	ldr	r3, [r7, #4]
 8005284:	68db      	ldr	r3, [r3, #12]
 8005286:	2b01      	cmp	r3, #1
 8005288:	d001      	beq.n	800528e <HAL_RCC_OscConfig+0x152>
      {
        return HAL_ERROR;
 800528a:	2301      	movs	r3, #1
 800528c:	e1c4      	b.n	8005618 <HAL_RCC_OscConfig+0x4dc>
      }
      /* Otherwise, just the calibration is allowed */
      else
      {
        /* Adjusts the Internal High Speed oscillator (HSI) calibration value.*/
        __HAL_RCC_HSI_CALIBRATIONVALUE_ADJUST(RCC_OscInitStruct->HSICalibrationValue);
 800528e:	4b56      	ldr	r3, [pc, #344]	; (80053e8 <HAL_RCC_OscConfig+0x2ac>)
 8005290:	681b      	ldr	r3, [r3, #0]
 8005292:	f023 02f8 	bic.w	r2, r3, #248	; 0xf8
 8005296:	687b      	ldr	r3, [r7, #4]
 8005298:	691b      	ldr	r3, [r3, #16]
 800529a:	00db      	lsls	r3, r3, #3
 800529c:	4952      	ldr	r1, [pc, #328]	; (80053e8 <HAL_RCC_OscConfig+0x2ac>)
 800529e:	4313      	orrs	r3, r2
 80052a0:	600b      	str	r3, [r1, #0]
      if((__HAL_RCC_GET_FLAG(RCC_FLAG_HSIRDY) != RESET) && (RCC_OscInitStruct->HSIState != RCC_HSI_ON))
 80052a2:	e03a      	b.n	800531a <HAL_RCC_OscConfig+0x1de>
      }
    }
    else
    {
      /* Check the HSI State */
      if((RCC_OscInitStruct->HSIState)!= RCC_HSI_OFF)
 80052a4:	687b      	ldr	r3, [r7, #4]
 80052a6:	68db      	ldr	r3, [r3, #12]
 80052a8:	2b00      	cmp	r3, #0
 80052aa:	d020      	beq.n	80052ee <HAL_RCC_OscConfig+0x1b2>
      {
        /* Enable the Internal High Speed oscillator (HSI). */
        __HAL_RCC_HSI_ENABLE();
 80052ac:	4b4f      	ldr	r3, [pc, #316]	; (80053ec <HAL_RCC_OscConfig+0x2b0>)
 80052ae:	2201      	movs	r2, #1
 80052b0:	601a      	str	r2, [r3, #0]

        /* Get Start Tick*/
        tickstart = HAL_GetTick();
 80052b2:	f7fc fc33 	bl	8001b1c <HAL_GetTick>
 80052b6:	6138      	str	r0, [r7, #16]

        /* Wait till HSI is ready */
        while(__HAL_RCC_GET_FLAG(RCC_FLAG_HSIRDY) == RESET)
 80052b8:	e008      	b.n	80052cc <HAL_RCC_OscConfig+0x190>
        {
          if((HAL_GetTick() - tickstart ) > HSI_TIMEOUT_VALUE)
 80052ba:	f7fc fc2f 	bl	8001b1c <HAL_GetTick>
 80052be:	4602      	mov	r2, r0
 80052c0:	693b      	ldr	r3, [r7, #16]
 80052c2:	1ad3      	subs	r3, r2, r3
 80052c4:	2b02      	cmp	r3, #2
 80052c6:	d901      	bls.n	80052cc <HAL_RCC_OscConfig+0x190>
          {
            return HAL_TIMEOUT;
 80052c8:	2303      	movs	r3, #3
 80052ca:	e1a5      	b.n	8005618 <HAL_RCC_OscConfig+0x4dc>
        while(__HAL_RCC_GET_FLAG(RCC_FLAG_HSIRDY) == RESET)
 80052cc:	4b46      	ldr	r3, [pc, #280]	; (80053e8 <HAL_RCC_OscConfig+0x2ac>)
 80052ce:	681b      	ldr	r3, [r3, #0]
 80052d0:	f003 0302 	and.w	r3, r3, #2
 80052d4:	2b00      	cmp	r3, #0
 80052d6:	d0f0      	beq.n	80052ba <HAL_RCC_OscConfig+0x17e>
          }
        }

        /* Adjusts the Internal High Speed oscillator (HSI) calibration value. */
        __HAL_RCC_HSI_CALIBRATIONVALUE_ADJUST(RCC_OscInitStruct->HSICalibrationValue);
 80052d8:	4b43      	ldr	r3, [pc, #268]	; (80053e8 <HAL_RCC_OscConfig+0x2ac>)
 80052da:	681b      	ldr	r3, [r3, #0]
 80052dc:	f023 02f8 	bic.w	r2, r3, #248	; 0xf8
 80052e0:	687b      	ldr	r3, [r7, #4]
 80052e2:	691b      	ldr	r3, [r3, #16]
 80052e4:	00db      	lsls	r3, r3, #3
 80052e6:	4940      	ldr	r1, [pc, #256]	; (80053e8 <HAL_RCC_OscConfig+0x2ac>)
 80052e8:	4313      	orrs	r3, r2
 80052ea:	600b      	str	r3, [r1, #0]
 80052ec:	e015      	b.n	800531a <HAL_RCC_OscConfig+0x1de>
      }
      else
      {
        /* Disable the Internal High Speed oscillator (HSI). */
        __HAL_RCC_HSI_DISABLE();
 80052ee:	4b3f      	ldr	r3, [pc, #252]	; (80053ec <HAL_RCC_OscConfig+0x2b0>)
 80052f0:	2200      	movs	r2, #0
 80052f2:	601a      	str	r2, [r3, #0]

        /* Get Start Tick*/
        tickstart = HAL_GetTick();
 80052f4:	f7fc fc12 	bl	8001b1c <HAL_GetTick>
 80052f8:	6138      	str	r0, [r7, #16]

        /* Wait till HSI is ready */
        while(__HAL_RCC_GET_FLAG(RCC_FLAG_HSIRDY) != RESET)
 80052fa:	e008      	b.n	800530e <HAL_RCC_OscConfig+0x1d2>
        {
          if((HAL_GetTick() - tickstart ) > HSI_TIMEOUT_VALUE)
 80052fc:	f7fc fc0e 	bl	8001b1c <HAL_GetTick>
 8005300:	4602      	mov	r2, r0
 8005302:	693b      	ldr	r3, [r7, #16]
 8005304:	1ad3      	subs	r3, r2, r3
 8005306:	2b02      	cmp	r3, #2
 8005308:	d901      	bls.n	800530e <HAL_RCC_OscConfig+0x1d2>
          {
            return HAL_TIMEOUT;
 800530a:	2303      	movs	r3, #3
 800530c:	e184      	b.n	8005618 <HAL_RCC_OscConfig+0x4dc>
        while(__HAL_RCC_GET_FLAG(RCC_FLAG_HSIRDY) != RESET)
 800530e:	4b36      	ldr	r3, [pc, #216]	; (80053e8 <HAL_RCC_OscConfig+0x2ac>)
 8005310:	681b      	ldr	r3, [r3, #0]
 8005312:	f003 0302 	and.w	r3, r3, #2
 8005316:	2b00      	cmp	r3, #0
 8005318:	d1f0      	bne.n	80052fc <HAL_RCC_OscConfig+0x1c0>
        }
      }
    }
  }
  /*------------------------------ LSI Configuration -------------------------*/
  if(((RCC_OscInitStruct->OscillatorType) & RCC_OSCILLATORTYPE_LSI) == RCC_OSCILLATORTYPE_LSI)
 800531a:	687b      	ldr	r3, [r7, #4]
 800531c:	681b      	ldr	r3, [r3, #0]
 800531e:	f003 0308 	and.w	r3, r3, #8
 8005322:	2b00      	cmp	r3, #0
 8005324:	d030      	beq.n	8005388 <HAL_RCC_OscConfig+0x24c>
  {
    /* Check the parameters */
    assert_param(IS_RCC_LSI(RCC_OscInitStruct->LSIState));

    /* Check the LSI State */
    if((RCC_OscInitStruct->LSIState)!= RCC_LSI_OFF)
 8005326:	687b      	ldr	r3, [r7, #4]
 8005328:	695b      	ldr	r3, [r3, #20]
 800532a:	2b00      	cmp	r3, #0
 800532c:	d016      	beq.n	800535c <HAL_RCC_OscConfig+0x220>
    {
      /* Enable the Internal Low Speed oscillator (LSI). */
      __HAL_RCC_LSI_ENABLE();
 800532e:	4b30      	ldr	r3, [pc, #192]	; (80053f0 <HAL_RCC_OscConfig+0x2b4>)
 8005330:	2201      	movs	r2, #1
 8005332:	601a      	str	r2, [r3, #0]

      /* Get Start Tick*/
      tickstart = HAL_GetTick();
 8005334:	f7fc fbf2 	bl	8001b1c <HAL_GetTick>
 8005338:	6138      	str	r0, [r7, #16]

      /* Wait till LSI is ready */
      while(__HAL_RCC_GET_FLAG(RCC_FLAG_LSIRDY) == RESET)
 800533a:	e008      	b.n	800534e <HAL_RCC_OscConfig+0x212>
      {
        if((HAL_GetTick() - tickstart ) > LSI_TIMEOUT_VALUE)
 800533c:	f7fc fbee 	bl	8001b1c <HAL_GetTick>
 8005340:	4602      	mov	r2, r0
 8005342:	693b      	ldr	r3, [r7, #16]
 8005344:	1ad3      	subs	r3, r2, r3
 8005346:	2b02      	cmp	r3, #2
 8005348:	d901      	bls.n	800534e <HAL_RCC_OscConfig+0x212>
        {
          return HAL_TIMEOUT;
 800534a:	2303      	movs	r3, #3
 800534c:	e164      	b.n	8005618 <HAL_RCC_OscConfig+0x4dc>
      while(__HAL_RCC_GET_FLAG(RCC_FLAG_LSIRDY) == RESET)
 800534e:	4b26      	ldr	r3, [pc, #152]	; (80053e8 <HAL_RCC_OscConfig+0x2ac>)
 8005350:	6f5b      	ldr	r3, [r3, #116]	; 0x74
 8005352:	f003 0302 	and.w	r3, r3, #2
 8005356:	2b00      	cmp	r3, #0
 8005358:	d0f0      	beq.n	800533c <HAL_RCC_OscConfig+0x200>
 800535a:	e015      	b.n	8005388 <HAL_RCC_OscConfig+0x24c>
      }
    }
    else
    {
      /* Disable the Internal Low Speed oscillator (LSI). */
      __HAL_RCC_LSI_DISABLE();
 800535c:	4b24      	ldr	r3, [pc, #144]	; (80053f0 <HAL_RCC_OscConfig+0x2b4>)
 800535e:	2200      	movs	r2, #0
 8005360:	601a      	str	r2, [r3, #0]

      /* Get Start Tick */
      tickstart = HAL_GetTick();
 8005362:	f7fc fbdb 	bl	8001b1c <HAL_GetTick>
 8005366:	6138      	str	r0, [r7, #16]

      /* Wait till LSI is ready */
      while(__HAL_RCC_GET_FLAG(RCC_FLAG_LSIRDY) != RESET)
 8005368:	e008      	b.n	800537c <HAL_RCC_OscConfig+0x240>
      {
        if((HAL_GetTick() - tickstart ) > LSI_TIMEOUT_VALUE)
 800536a:	f7fc fbd7 	bl	8001b1c <HAL_GetTick>
 800536e:	4602      	mov	r2, r0
 8005370:	693b      	ldr	r3, [r7, #16]
 8005372:	1ad3      	subs	r3, r2, r3
 8005374:	2b02      	cmp	r3, #2
 8005376:	d901      	bls.n	800537c <HAL_RCC_OscConfig+0x240>
        {
          return HAL_TIMEOUT;
 8005378:	2303      	movs	r3, #3
 800537a:	e14d      	b.n	8005618 <HAL_RCC_OscConfig+0x4dc>
      while(__HAL_RCC_GET_FLAG(RCC_FLAG_LSIRDY) != RESET)
 800537c:	4b1a      	ldr	r3, [pc, #104]	; (80053e8 <HAL_RCC_OscConfig+0x2ac>)
 800537e:	6f5b      	ldr	r3, [r3, #116]	; 0x74
 8005380:	f003 0302 	and.w	r3, r3, #2
 8005384:	2b00      	cmp	r3, #0
 8005386:	d1f0      	bne.n	800536a <HAL_RCC_OscConfig+0x22e>
        }
      }
    }
  }
  /*------------------------------ LSE Configuration -------------------------*/
  if(((RCC_OscInitStruct->OscillatorType) & RCC_OSCILLATORTYPE_LSE) == RCC_OSCILLATORTYPE_LSE)
 8005388:	687b      	ldr	r3, [r7, #4]
 800538a:	681b      	ldr	r3, [r3, #0]
 800538c:	f003 0304 	and.w	r3, r3, #4
 8005390:	2b00      	cmp	r3, #0
 8005392:	f000 80a0 	beq.w	80054d6 <HAL_RCC_OscConfig+0x39a>
  {
    FlagStatus       pwrclkchanged = RESET;
 8005396:	2300      	movs	r3, #0
 8005398:	75fb      	strb	r3, [r7, #23]
    /* Check the parameters */
    assert_param(IS_RCC_LSE(RCC_OscInitStruct->LSEState));

    /* Update LSE configuration in Backup Domain control register    */
    /* Requires to enable write access to Backup Domain of necessary */
    if(__HAL_RCC_PWR_IS_CLK_DISABLED())
 800539a:	4b13      	ldr	r3, [pc, #76]	; (80053e8 <HAL_RCC_OscConfig+0x2ac>)
 800539c:	6c1b      	ldr	r3, [r3, #64]	; 0x40
 800539e:	f003 5380 	and.w	r3, r3, #268435456	; 0x10000000
 80053a2:	2b00      	cmp	r3, #0
 80053a4:	d10f      	bne.n	80053c6 <HAL_RCC_OscConfig+0x28a>
    {
      __HAL_RCC_PWR_CLK_ENABLE();
 80053a6:	2300      	movs	r3, #0
 80053a8:	60bb      	str	r3, [r7, #8]
 80053aa:	4b0f      	ldr	r3, [pc, #60]	; (80053e8 <HAL_RCC_OscConfig+0x2ac>)
 80053ac:	6c1b      	ldr	r3, [r3, #64]	; 0x40
 80053ae:	4a0e      	ldr	r2, [pc, #56]	; (80053e8 <HAL_RCC_OscConfig+0x2ac>)
 80053b0:	f043 5380 	orr.w	r3, r3, #268435456	; 0x10000000
 80053b4:	6413      	str	r3, [r2, #64]	; 0x40
 80053b6:	4b0c      	ldr	r3, [pc, #48]	; (80053e8 <HAL_RCC_OscConfig+0x2ac>)
 80053b8:	6c1b      	ldr	r3, [r3, #64]	; 0x40
 80053ba:	f003 5380 	and.w	r3, r3, #268435456	; 0x10000000
 80053be:	60bb      	str	r3, [r7, #8]
 80053c0:	68bb      	ldr	r3, [r7, #8]
      pwrclkchanged = SET;
 80053c2:	2301      	movs	r3, #1
 80053c4:	75fb      	strb	r3, [r7, #23]
    }

    if(HAL_IS_BIT_CLR(PWR->CR, PWR_CR_DBP))
 80053c6:	4b0b      	ldr	r3, [pc, #44]	; (80053f4 <HAL_RCC_OscConfig+0x2b8>)
 80053c8:	681b      	ldr	r3, [r3, #0]
 80053ca:	f403 7380 	and.w	r3, r3, #256	; 0x100
 80053ce:	2b00      	cmp	r3, #0
 80053d0:	d121      	bne.n	8005416 <HAL_RCC_OscConfig+0x2da>
    {
      /* Enable write access to Backup domain */
      SET_BIT(PWR->CR, PWR_CR_DBP);
 80053d2:	4b08      	ldr	r3, [pc, #32]	; (80053f4 <HAL_RCC_OscConfig+0x2b8>)
 80053d4:	681b      	ldr	r3, [r3, #0]
 80053d6:	4a07      	ldr	r2, [pc, #28]	; (80053f4 <HAL_RCC_OscConfig+0x2b8>)
 80053d8:	f443 7380 	orr.w	r3, r3, #256	; 0x100
 80053dc:	6013      	str	r3, [r2, #0]

      /* Wait for Backup domain Write protection disable */
      tickstart = HAL_GetTick();
 80053de:	f7fc fb9d 	bl	8001b1c <HAL_GetTick>
 80053e2:	6138      	str	r0, [r7, #16]

      while(HAL_IS_BIT_CLR(PWR->CR, PWR_CR_DBP))
 80053e4:	e011      	b.n	800540a <HAL_RCC_OscConfig+0x2ce>
 80053e6:	bf00      	nop
 80053e8:	40023800 	.word	0x40023800
 80053ec:	42470000 	.word	0x42470000
 80053f0:	42470e80 	.word	0x42470e80
 80053f4:	40007000 	.word	0x40007000
      {
        if((HAL_GetTick() - tickstart) > RCC_DBP_TIMEOUT_VALUE)
 80053f8:	f7fc fb90 	bl	8001b1c <HAL_GetTick>
 80053fc:	4602      	mov	r2, r0
 80053fe:	693b      	ldr	r3, [r7, #16]
 8005400:	1ad3      	subs	r3, r2, r3
 8005402:	2b02      	cmp	r3, #2
 8005404:	d901      	bls.n	800540a <HAL_RCC_OscConfig+0x2ce>
        {
          return HAL_TIMEOUT;
 8005406:	2303      	movs	r3, #3
 8005408:	e106      	b.n	8005618 <HAL_RCC_OscConfig+0x4dc>
      while(HAL_IS_BIT_CLR(PWR->CR, PWR_CR_DBP))
 800540a:	4b85      	ldr	r3, [pc, #532]	; (8005620 <HAL_RCC_OscConfig+0x4e4>)
 800540c:	681b      	ldr	r3, [r3, #0]
 800540e:	f403 7380 	and.w	r3, r3, #256	; 0x100
 8005412:	2b00      	cmp	r3, #0
 8005414:	d0f0      	beq.n	80053f8 <HAL_RCC_OscConfig+0x2bc>
        }
      }
    }

    /* Set the new LSE configuration -----------------------------------------*/
    __HAL_RCC_LSE_CONFIG(RCC_OscInitStruct->LSEState);
 8005416:	687b      	ldr	r3, [r7, #4]
 8005418:	689b      	ldr	r3, [r3, #8]
 800541a:	2b01      	cmp	r3, #1
 800541c:	d106      	bne.n	800542c <HAL_RCC_OscConfig+0x2f0>
 800541e:	4b81      	ldr	r3, [pc, #516]	; (8005624 <HAL_RCC_OscConfig+0x4e8>)
 8005420:	6f1b      	ldr	r3, [r3, #112]	; 0x70
 8005422:	4a80      	ldr	r2, [pc, #512]	; (8005624 <HAL_RCC_OscConfig+0x4e8>)
 8005424:	f043 0301 	orr.w	r3, r3, #1
 8005428:	6713      	str	r3, [r2, #112]	; 0x70
 800542a:	e01c      	b.n	8005466 <HAL_RCC_OscConfig+0x32a>
 800542c:	687b      	ldr	r3, [r7, #4]
 800542e:	689b      	ldr	r3, [r3, #8]
 8005430:	2b05      	cmp	r3, #5
 8005432:	d10c      	bne.n	800544e <HAL_RCC_OscConfig+0x312>
 8005434:	4b7b      	ldr	r3, [pc, #492]	; (8005624 <HAL_RCC_OscConfig+0x4e8>)
 8005436:	6f1b      	ldr	r3, [r3, #112]	; 0x70
 8005438:	4a7a      	ldr	r2, [pc, #488]	; (8005624 <HAL_RCC_OscConfig+0x4e8>)
 800543a:	f043 0304 	orr.w	r3, r3, #4
 800543e:	6713      	str	r3, [r2, #112]	; 0x70
 8005440:	4b78      	ldr	r3, [pc, #480]	; (8005624 <HAL_RCC_OscConfig+0x4e8>)
 8005442:	6f1b      	ldr	r3, [r3, #112]	; 0x70
 8005444:	4a77      	ldr	r2, [pc, #476]	; (8005624 <HAL_RCC_OscConfig+0x4e8>)
 8005446:	f043 0301 	orr.w	r3, r3, #1
 800544a:	6713      	str	r3, [r2, #112]	; 0x70
 800544c:	e00b      	b.n	8005466 <HAL_RCC_OscConfig+0x32a>
 800544e:	4b75      	ldr	r3, [pc, #468]	; (8005624 <HAL_RCC_OscConfig+0x4e8>)
 8005450:	6f1b      	ldr	r3, [r3, #112]	; 0x70
 8005452:	4a74      	ldr	r2, [pc, #464]	; (8005624 <HAL_RCC_OscConfig+0x4e8>)
 8005454:	f023 0301 	bic.w	r3, r3, #1
 8005458:	6713      	str	r3, [r2, #112]	; 0x70
 800545a:	4b72      	ldr	r3, [pc, #456]	; (8005624 <HAL_RCC_OscConfig+0x4e8>)
 800545c:	6f1b      	ldr	r3, [r3, #112]	; 0x70
 800545e:	4a71      	ldr	r2, [pc, #452]	; (8005624 <HAL_RCC_OscConfig+0x4e8>)
 8005460:	f023 0304 	bic.w	r3, r3, #4
 8005464:	6713      	str	r3, [r2, #112]	; 0x70
    /* Check the LSE State */
    if((RCC_OscInitStruct->LSEState) != RCC_LSE_OFF)
 8005466:	687b      	ldr	r3, [r7, #4]
 8005468:	689b      	ldr	r3, [r3, #8]
 800546a:	2b00      	cmp	r3, #0
 800546c:	d015      	beq.n	800549a <HAL_RCC_OscConfig+0x35e>
    {
      /* Get Start Tick*/
      tickstart = HAL_GetTick();
 800546e:	f7fc fb55 	bl	8001b1c <HAL_GetTick>
 8005472:	6138      	str	r0, [r7, #16]

      /* Wait till LSE is ready */
      while(__HAL_RCC_GET_FLAG(RCC_FLAG_LSERDY) == RESET)
 8005474:	e00a      	b.n	800548c <HAL_RCC_OscConfig+0x350>
      {
        if((HAL_GetTick() - tickstart ) > RCC_LSE_TIMEOUT_VALUE)
 8005476:	f7fc fb51 	bl	8001b1c <HAL_GetTick>
 800547a:	4602      	mov	r2, r0
 800547c:	693b      	ldr	r3, [r7, #16]
 800547e:	1ad3      	subs	r3, r2, r3
 8005480:	f241 3288 	movw	r2, #5000	; 0x1388
 8005484:	4293      	cmp	r3, r2
 8005486:	d901      	bls.n	800548c <HAL_RCC_OscConfig+0x350>
        {
          return HAL_TIMEOUT;
 8005488:	2303      	movs	r3, #3
 800548a:	e0c5      	b.n	8005618 <HAL_RCC_OscConfig+0x4dc>
      while(__HAL_RCC_GET_FLAG(RCC_FLAG_LSERDY) == RESET)
 800548c:	4b65      	ldr	r3, [pc, #404]	; (8005624 <HAL_RCC_OscConfig+0x4e8>)
 800548e:	6f1b      	ldr	r3, [r3, #112]	; 0x70
 8005490:	f003 0302 	and.w	r3, r3, #2
 8005494:	2b00      	cmp	r3, #0
 8005496:	d0ee      	beq.n	8005476 <HAL_RCC_OscConfig+0x33a>
 8005498:	e014      	b.n	80054c4 <HAL_RCC_OscConfig+0x388>
      }
    }
    else
    {
      /* Get Start Tick */
      tickstart = HAL_GetTick();
 800549a:	f7fc fb3f 	bl	8001b1c <HAL_GetTick>
 800549e:	6138      	str	r0, [r7, #16]

      /* Wait till LSE is ready */
      while(__HAL_RCC_GET_FLAG(RCC_FLAG_LSERDY) != RESET)
 80054a0:	e00a      	b.n	80054b8 <HAL_RCC_OscConfig+0x37c>
      {
        if((HAL_GetTick() - tickstart ) > RCC_LSE_TIMEOUT_VALUE)
 80054a2:	f7fc fb3b 	bl	8001b1c <HAL_GetTick>
 80054a6:	4602      	mov	r2, r0
 80054a8:	693b      	ldr	r3, [r7, #16]
 80054aa:	1ad3      	subs	r3, r2, r3
 80054ac:	f241 3288 	movw	r2, #5000	; 0x1388
 80054b0:	4293      	cmp	r3, r2
 80054b2:	d901      	bls.n	80054b8 <HAL_RCC_OscConfig+0x37c>
        {
          return HAL_TIMEOUT;
 80054b4:	2303      	movs	r3, #3
 80054b6:	e0af      	b.n	8005618 <HAL_RCC_OscConfig+0x4dc>
      while(__HAL_RCC_GET_FLAG(RCC_FLAG_LSERDY) != RESET)
 80054b8:	4b5a      	ldr	r3, [pc, #360]	; (8005624 <HAL_RCC_OscConfig+0x4e8>)
 80054ba:	6f1b      	ldr	r3, [r3, #112]	; 0x70
 80054bc:	f003 0302 	and.w	r3, r3, #2
 80054c0:	2b00      	cmp	r3, #0
 80054c2:	d1ee      	bne.n	80054a2 <HAL_RCC_OscConfig+0x366>
        }
      }
    }

    /* Restore clock configuration if changed */
    if(pwrclkchanged == SET)
 80054c4:	7dfb      	ldrb	r3, [r7, #23]
 80054c6:	2b01      	cmp	r3, #1
 80054c8:	d105      	bne.n	80054d6 <HAL_RCC_OscConfig+0x39a>
    {
      __HAL_RCC_PWR_CLK_DISABLE();
 80054ca:	4b56      	ldr	r3, [pc, #344]	; (8005624 <HAL_RCC_OscConfig+0x4e8>)
 80054cc:	6c1b      	ldr	r3, [r3, #64]	; 0x40
 80054ce:	4a55      	ldr	r2, [pc, #340]	; (8005624 <HAL_RCC_OscConfig+0x4e8>)
 80054d0:	f023 5380 	bic.w	r3, r3, #268435456	; 0x10000000
 80054d4:	6413      	str	r3, [r2, #64]	; 0x40
    }
  }
  /*-------------------------------- PLL Configuration -----------------------*/
  /* Check the parameters */
  assert_param(IS_RCC_PLL(RCC_OscInitStruct->PLL.PLLState));
  if ((RCC_OscInitStruct->PLL.PLLState) != RCC_PLL_NONE)
 80054d6:	687b      	ldr	r3, [r7, #4]
 80054d8:	699b      	ldr	r3, [r3, #24]
 80054da:	2b00      	cmp	r3, #0
 80054dc:	f000 809b 	beq.w	8005616 <HAL_RCC_OscConfig+0x4da>
  {
    /* Check if the PLL is used as system clock or not */
    if(__HAL_RCC_GET_SYSCLK_SOURCE() != RCC_CFGR_SWS_PLL)
 80054e0:	4b50      	ldr	r3, [pc, #320]	; (8005624 <HAL_RCC_OscConfig+0x4e8>)
 80054e2:	689b      	ldr	r3, [r3, #8]
 80054e4:	f003 030c 	and.w	r3, r3, #12
 80054e8:	2b08      	cmp	r3, #8
 80054ea:	d05c      	beq.n	80055a6 <HAL_RCC_OscConfig+0x46a>
    {
      if((RCC_OscInitStruct->PLL.PLLState) == RCC_PLL_ON)
 80054ec:	687b      	ldr	r3, [r7, #4]
 80054ee:	699b      	ldr	r3, [r3, #24]
 80054f0:	2b02      	cmp	r3, #2
 80054f2:	d141      	bne.n	8005578 <HAL_RCC_OscConfig+0x43c>
        assert_param(IS_RCC_PLLN_VALUE(RCC_OscInitStruct->PLL.PLLN));
        assert_param(IS_RCC_PLLP_VALUE(RCC_OscInitStruct->PLL.PLLP));
        assert_param(IS_RCC_PLLQ_VALUE(RCC_OscInitStruct->PLL.PLLQ));

        /* Disable the main PLL. */
        __HAL_RCC_PLL_DISABLE();
 80054f4:	4b4c      	ldr	r3, [pc, #304]	; (8005628 <HAL_RCC_OscConfig+0x4ec>)
 80054f6:	2200      	movs	r2, #0
 80054f8:	601a      	str	r2, [r3, #0]

        /* Get Start Tick */
        tickstart = HAL_GetTick();
 80054fa:	f7fc fb0f 	bl	8001b1c <HAL_GetTick>
 80054fe:	6138      	str	r0, [r7, #16]

        /* Wait till PLL is ready */
        while(__HAL_RCC_GET_FLAG(RCC_FLAG_PLLRDY) != RESET)
 8005500:	e008      	b.n	8005514 <HAL_RCC_OscConfig+0x3d8>
        {
          if((HAL_GetTick() - tickstart ) > PLL_TIMEOUT_VALUE)
 8005502:	f7fc fb0b 	bl	8001b1c <HAL_GetTick>
 8005506:	4602      	mov	r2, r0
 8005508:	693b      	ldr	r3, [r7, #16]
 800550a:	1ad3      	subs	r3, r2, r3
 800550c:	2b02      	cmp	r3, #2
 800550e:	d901      	bls.n	8005514 <HAL_RCC_OscConfig+0x3d8>
          {
            return HAL_TIMEOUT;
 8005510:	2303      	movs	r3, #3
 8005512:	e081      	b.n	8005618 <HAL_RCC_OscConfig+0x4dc>
        while(__HAL_RCC_GET_FLAG(RCC_FLAG_PLLRDY) != RESET)
 8005514:	4b43      	ldr	r3, [pc, #268]	; (8005624 <HAL_RCC_OscConfig+0x4e8>)
 8005516:	681b      	ldr	r3, [r3, #0]
 8005518:	f003 7300 	and.w	r3, r3, #33554432	; 0x2000000
 800551c:	2b00      	cmp	r3, #0
 800551e:	d1f0      	bne.n	8005502 <HAL_RCC_OscConfig+0x3c6>
          }
        }

        /* Configure the main PLL clock source, multiplication and division factors. */
        WRITE_REG(RCC->PLLCFGR, (RCC_OscInitStruct->PLL.PLLSource                                            | \
 8005520:	687b      	ldr	r3, [r7, #4]
 8005522:	69da      	ldr	r2, [r3, #28]
 8005524:	687b      	ldr	r3, [r7, #4]
 8005526:	6a1b      	ldr	r3, [r3, #32]
 8005528:	431a      	orrs	r2, r3
 800552a:	687b      	ldr	r3, [r7, #4]
 800552c:	6a5b      	ldr	r3, [r3, #36]	; 0x24
 800552e:	019b      	lsls	r3, r3, #6
 8005530:	431a      	orrs	r2, r3
 8005532:	687b      	ldr	r3, [r7, #4]
 8005534:	6a9b      	ldr	r3, [r3, #40]	; 0x28
 8005536:	085b      	lsrs	r3, r3, #1
 8005538:	3b01      	subs	r3, #1
 800553a:	041b      	lsls	r3, r3, #16
 800553c:	431a      	orrs	r2, r3
 800553e:	687b      	ldr	r3, [r7, #4]
 8005540:	6adb      	ldr	r3, [r3, #44]	; 0x2c
 8005542:	061b      	lsls	r3, r3, #24
 8005544:	4937      	ldr	r1, [pc, #220]	; (8005624 <HAL_RCC_OscConfig+0x4e8>)
 8005546:	4313      	orrs	r3, r2
 8005548:	604b      	str	r3, [r1, #4]
                                 RCC_OscInitStruct->PLL.PLLM                                                 | \
                                 (RCC_OscInitStruct->PLL.PLLN << RCC_PLLCFGR_PLLN_Pos)             | \
                                 (((RCC_OscInitStruct->PLL.PLLP >> 1U) - 1U) << RCC_PLLCFGR_PLLP_Pos) | \
                                 (RCC_OscInitStruct->PLL.PLLQ << RCC_PLLCFGR_PLLQ_Pos)));
        /* Enable the main PLL. */
        __HAL_RCC_PLL_ENABLE();
 800554a:	4b37      	ldr	r3, [pc, #220]	; (8005628 <HAL_RCC_OscConfig+0x4ec>)
 800554c:	2201      	movs	r2, #1
 800554e:	601a      	str	r2, [r3, #0]

        /* Get Start Tick */
        tickstart = HAL_GetTick();
 8005550:	f7fc fae4 	bl	8001b1c <HAL_GetTick>
 8005554:	6138      	str	r0, [r7, #16]

        /* Wait till PLL is ready */
        while(__HAL_RCC_GET_FLAG(RCC_FLAG_PLLRDY) == RESET)
 8005556:	e008      	b.n	800556a <HAL_RCC_OscConfig+0x42e>
        {
          if((HAL_GetTick() - tickstart ) > PLL_TIMEOUT_VALUE)
 8005558:	f7fc fae0 	bl	8001b1c <HAL_GetTick>
 800555c:	4602      	mov	r2, r0
 800555e:	693b      	ldr	r3, [r7, #16]
 8005560:	1ad3      	subs	r3, r2, r3
 8005562:	2b02      	cmp	r3, #2
 8005564:	d901      	bls.n	800556a <HAL_RCC_OscConfig+0x42e>
          {
            return HAL_TIMEOUT;
 8005566:	2303      	movs	r3, #3
 8005568:	e056      	b.n	8005618 <HAL_RCC_OscConfig+0x4dc>
        while(__HAL_RCC_GET_FLAG(RCC_FLAG_PLLRDY) == RESET)
 800556a:	4b2e      	ldr	r3, [pc, #184]	; (8005624 <HAL_RCC_OscConfig+0x4e8>)
 800556c:	681b      	ldr	r3, [r3, #0]
 800556e:	f003 7300 	and.w	r3, r3, #33554432	; 0x2000000
 8005572:	2b00      	cmp	r3, #0
 8005574:	d0f0      	beq.n	8005558 <HAL_RCC_OscConfig+0x41c>
 8005576:	e04e      	b.n	8005616 <HAL_RCC_OscConfig+0x4da>
        }
      }
      else
      {
        /* Disable the main PLL. */
        __HAL_RCC_PLL_DISABLE();
 8005578:	4b2b      	ldr	r3, [pc, #172]	; (8005628 <HAL_RCC_OscConfig+0x4ec>)
 800557a:	2200      	movs	r2, #0
 800557c:	601a      	str	r2, [r3, #0]

        /* Get Start Tick */
        tickstart = HAL_GetTick();
 800557e:	f7fc facd 	bl	8001b1c <HAL_GetTick>
 8005582:	6138      	str	r0, [r7, #16]

        /* Wait till PLL is ready */
        while(__HAL_RCC_GET_FLAG(RCC_FLAG_PLLRDY) != RESET)
 8005584:	e008      	b.n	8005598 <HAL_RCC_OscConfig+0x45c>
        {
          if((HAL_GetTick() - tickstart ) > PLL_TIMEOUT_VALUE)
 8005586:	f7fc fac9 	bl	8001b1c <HAL_GetTick>
 800558a:	4602      	mov	r2, r0
 800558c:	693b      	ldr	r3, [r7, #16]
 800558e:	1ad3      	subs	r3, r2, r3
 8005590:	2b02      	cmp	r3, #2
 8005592:	d901      	bls.n	8005598 <HAL_RCC_OscConfig+0x45c>
          {
            return HAL_TIMEOUT;
 8005594:	2303      	movs	r3, #3
 8005596:	e03f      	b.n	8005618 <HAL_RCC_OscConfig+0x4dc>
        while(__HAL_RCC_GET_FLAG(RCC_FLAG_PLLRDY) != RESET)
 8005598:	4b22      	ldr	r3, [pc, #136]	; (8005624 <HAL_RCC_OscConfig+0x4e8>)
 800559a:	681b      	ldr	r3, [r3, #0]
 800559c:	f003 7300 	and.w	r3, r3, #33554432	; 0x2000000
 80055a0:	2b00      	cmp	r3, #0
 80055a2:	d1f0      	bne.n	8005586 <HAL_RCC_OscConfig+0x44a>
 80055a4:	e037      	b.n	8005616 <HAL_RCC_OscConfig+0x4da>
      }
    }
    else
    {
      /* Check if there is a request to disable the PLL used as System clock source */
      if((RCC_OscInitStruct->PLL.PLLState) == RCC_PLL_OFF)
 80055a6:	687b      	ldr	r3, [r7, #4]
 80055a8:	699b      	ldr	r3, [r3, #24]
 80055aa:	2b01      	cmp	r3, #1
 80055ac:	d101      	bne.n	80055b2 <HAL_RCC_OscConfig+0x476>
      {
        return HAL_ERROR;
 80055ae:	2301      	movs	r3, #1
 80055b0:	e032      	b.n	8005618 <HAL_RCC_OscConfig+0x4dc>
      }
      else
      {
        /* Do not return HAL_ERROR if request repeats the current configuration */
        pll_config = RCC->PLLCFGR;
 80055b2:	4b1c      	ldr	r3, [pc, #112]	; (8005624 <HAL_RCC_OscConfig+0x4e8>)
 80055b4:	685b      	ldr	r3, [r3, #4]
 80055b6:	60fb      	str	r3, [r7, #12]
            (READ_BIT(pll_config, RCC_PLLCFGR_PLLN) != (RCC_OscInitStruct->PLL.PLLN) << RCC_PLLCFGR_PLLN_Pos) ||
            (READ_BIT(pll_config, RCC_PLLCFGR_PLLP) != (((RCC_OscInitStruct->PLL.PLLP >> 1U) - 1U)) << RCC_PLLCFGR_PLLP_Pos) ||
            (READ_BIT(pll_config, RCC_PLLCFGR_PLLQ) != (RCC_OscInitStruct->PLL.PLLQ << RCC_PLLCFGR_PLLQ_Pos)) ||
            (READ_BIT(pll_config, RCC_PLLCFGR_PLLR) != (RCC_OscInitStruct->PLL.PLLR << RCC_PLLCFGR_PLLR_Pos)))
#else
        if (((RCC_OscInitStruct->PLL.PLLState) == RCC_PLL_OFF) ||
 80055b8:	687b      	ldr	r3, [r7, #4]
 80055ba:	699b      	ldr	r3, [r3, #24]
 80055bc:	2b01      	cmp	r3, #1
 80055be:	d028      	beq.n	8005612 <HAL_RCC_OscConfig+0x4d6>
            (READ_BIT(pll_config, RCC_PLLCFGR_PLLSRC) != RCC_OscInitStruct->PLL.PLLSource) ||
 80055c0:	68fb      	ldr	r3, [r7, #12]
 80055c2:	f403 0280 	and.w	r2, r3, #4194304	; 0x400000
 80055c6:	687b      	ldr	r3, [r7, #4]
 80055c8:	69db      	ldr	r3, [r3, #28]
        if (((RCC_OscInitStruct->PLL.PLLState) == RCC_PLL_OFF) ||
 80055ca:	429a      	cmp	r2, r3
 80055cc:	d121      	bne.n	8005612 <HAL_RCC_OscConfig+0x4d6>
            (READ_BIT(pll_config, RCC_PLLCFGR_PLLM) != (RCC_OscInitStruct->PLL.PLLM) << RCC_PLLCFGR_PLLM_Pos) ||
 80055ce:	68fb      	ldr	r3, [r7, #12]
 80055d0:	f003 023f 	and.w	r2, r3, #63	; 0x3f
 80055d4:	687b      	ldr	r3, [r7, #4]
 80055d6:	6a1b      	ldr	r3, [r3, #32]
            (READ_BIT(pll_config, RCC_PLLCFGR_PLLSRC) != RCC_OscInitStruct->PLL.PLLSource) ||
 80055d8:	429a      	cmp	r2, r3
 80055da:	d11a      	bne.n	8005612 <HAL_RCC_OscConfig+0x4d6>
            (READ_BIT(pll_config, RCC_PLLCFGR_PLLN) != (RCC_OscInitStruct->PLL.PLLN) << RCC_PLLCFGR_PLLN_Pos) ||
 80055dc:	68fa      	ldr	r2, [r7, #12]
 80055de:	f647 73c0 	movw	r3, #32704	; 0x7fc0
 80055e2:	4013      	ands	r3, r2
 80055e4:	687a      	ldr	r2, [r7, #4]
 80055e6:	6a52      	ldr	r2, [r2, #36]	; 0x24
 80055e8:	0192      	lsls	r2, r2, #6
            (READ_BIT(pll_config, RCC_PLLCFGR_PLLM) != (RCC_OscInitStruct->PLL.PLLM) << RCC_PLLCFGR_PLLM_Pos) ||
 80055ea:	4293      	cmp	r3, r2
 80055ec:	d111      	bne.n	8005612 <HAL_RCC_OscConfig+0x4d6>
            (READ_BIT(pll_config, RCC_PLLCFGR_PLLP) != (((RCC_OscInitStruct->PLL.PLLP >> 1U) - 1U)) << RCC_PLLCFGR_PLLP_Pos) ||
 80055ee:	68fb      	ldr	r3, [r7, #12]
 80055f0:	f403 3240 	and.w	r2, r3, #196608	; 0x30000
 80055f4:	687b      	ldr	r3, [r7, #4]
 80055f6:	6a9b      	ldr	r3, [r3, #40]	; 0x28
 80055f8:	085b      	lsrs	r3, r3, #1
 80055fa:	3b01      	subs	r3, #1
 80055fc:	041b      	lsls	r3, r3, #16
            (READ_BIT(pll_config, RCC_PLLCFGR_PLLN) != (RCC_OscInitStruct->PLL.PLLN) << RCC_PLLCFGR_PLLN_Pos) ||
 80055fe:	429a      	cmp	r2, r3
 8005600:	d107      	bne.n	8005612 <HAL_RCC_OscConfig+0x4d6>
            (READ_BIT(pll_config, RCC_PLLCFGR_PLLQ) != (RCC_OscInitStruct->PLL.PLLQ << RCC_PLLCFGR_PLLQ_Pos)))
 8005602:	68fb      	ldr	r3, [r7, #12]
 8005604:	f003 6270 	and.w	r2, r3, #251658240	; 0xf000000
 8005608:	687b      	ldr	r3, [r7, #4]
 800560a:	6adb      	ldr	r3, [r3, #44]	; 0x2c
 800560c:	061b      	lsls	r3, r3, #24
            (READ_BIT(pll_config, RCC_PLLCFGR_PLLP) != (((RCC_OscInitStruct->PLL.PLLP >> 1U) - 1U)) << RCC_PLLCFGR_PLLP_Pos) ||
 800560e:	429a      	cmp	r2, r3
 8005610:	d001      	beq.n	8005616 <HAL_RCC_OscConfig+0x4da>
#endif
        {
          return HAL_ERROR;
 8005612:	2301      	movs	r3, #1
 8005614:	e000      	b.n	8005618 <HAL_RCC_OscConfig+0x4dc>
        }
      }
    }
  }
  return HAL_OK;
 8005616:	2300      	movs	r3, #0
}
 8005618:	4618      	mov	r0, r3
 800561a:	3718      	adds	r7, #24
 800561c:	46bd      	mov	sp, r7
 800561e:	bd80      	pop	{r7, pc}
 8005620:	40007000 	.word	0x40007000
 8005624:	40023800 	.word	0x40023800
 8005628:	42470060 	.word	0x42470060

0800562c <HAL_RCC_ClockConfig>:
  *         HPRE[3:0] bits to ensure that HCLK not exceed the maximum allowed frequency
  *         (for more details refer to section above "Initialization/de-initialization functions")
  * @retval None
  */
HAL_StatusTypeDef HAL_RCC_ClockConfig(RCC_ClkInitTypeDef  *RCC_ClkInitStruct, uint32_t FLatency)
{
 800562c:	b580      	push	{r7, lr}
 800562e:	b084      	sub	sp, #16
 8005630:	af00      	add	r7, sp, #0
 8005632:	6078      	str	r0, [r7, #4]
 8005634:	6039      	str	r1, [r7, #0]
  uint32_t tickstart;

  /* Check Null pointer */
  if(RCC_ClkInitStruct == NULL)
 8005636:	687b      	ldr	r3, [r7, #4]
 8005638:	2b00      	cmp	r3, #0
 800563a:	d101      	bne.n	8005640 <HAL_RCC_ClockConfig+0x14>
  {
    return HAL_ERROR;
 800563c:	2301      	movs	r3, #1
 800563e:	e0cc      	b.n	80057da <HAL_RCC_ClockConfig+0x1ae>
  /* To correctly read data from FLASH memory, the number of wait states (LATENCY)
    must be correctly programmed according to the frequency of the CPU clock
    (HCLK) and the supply voltage of the device. */

  /* Increasing the number of wait states because of higher CPU frequency */
  if(FLatency > __HAL_FLASH_GET_LATENCY())
 8005640:	4b68      	ldr	r3, [pc, #416]	; (80057e4 <HAL_RCC_ClockConfig+0x1b8>)
 8005642:	681b      	ldr	r3, [r3, #0]
 8005644:	f003 0307 	and.w	r3, r3, #7
 8005648:	683a      	ldr	r2, [r7, #0]
 800564a:	429a      	cmp	r2, r3
 800564c:	d90c      	bls.n	8005668 <HAL_RCC_ClockConfig+0x3c>
  {
    /* Program the new number of wait states to the LATENCY bits in the FLASH_ACR register */
    __HAL_FLASH_SET_LATENCY(FLatency);
 800564e:	4b65      	ldr	r3, [pc, #404]	; (80057e4 <HAL_RCC_ClockConfig+0x1b8>)
 8005650:	683a      	ldr	r2, [r7, #0]
 8005652:	b2d2      	uxtb	r2, r2
 8005654:	701a      	strb	r2, [r3, #0]

    /* Check that the new number of wait states is taken into account to access the Flash
    memory by reading the FLASH_ACR register */
    if(__HAL_FLASH_GET_LATENCY() != FLatency)
 8005656:	4b63      	ldr	r3, [pc, #396]	; (80057e4 <HAL_RCC_ClockConfig+0x1b8>)
 8005658:	681b      	ldr	r3, [r3, #0]
 800565a:	f003 0307 	and.w	r3, r3, #7
 800565e:	683a      	ldr	r2, [r7, #0]
 8005660:	429a      	cmp	r2, r3
 8005662:	d001      	beq.n	8005668 <HAL_RCC_ClockConfig+0x3c>
    {
      return HAL_ERROR;
 8005664:	2301      	movs	r3, #1
 8005666:	e0b8      	b.n	80057da <HAL_RCC_ClockConfig+0x1ae>
    }
  }

  /*-------------------------- HCLK Configuration --------------------------*/
  if(((RCC_ClkInitStruct->ClockType) & RCC_CLOCKTYPE_HCLK) == RCC_CLOCKTYPE_HCLK)
 8005668:	687b      	ldr	r3, [r7, #4]
 800566a:	681b      	ldr	r3, [r3, #0]
 800566c:	f003 0302 	and.w	r3, r3, #2
 8005670:	2b00      	cmp	r3, #0
 8005672:	d020      	beq.n	80056b6 <HAL_RCC_ClockConfig+0x8a>
  {
    /* Set the highest APBx dividers in order to ensure that we do not go through
       a non-spec phase whatever we decrease or increase HCLK. */
    if(((RCC_ClkInitStruct->ClockType) & RCC_CLOCKTYPE_PCLK1) == RCC_CLOCKTYPE_PCLK1)
 8005674:	687b      	ldr	r3, [r7, #4]
 8005676:	681b      	ldr	r3, [r3, #0]
 8005678:	f003 0304 	and.w	r3, r3, #4
 800567c:	2b00      	cmp	r3, #0
 800567e:	d005      	beq.n	800568c <HAL_RCC_ClockConfig+0x60>
    {
      MODIFY_REG(RCC->CFGR, RCC_CFGR_PPRE1, RCC_HCLK_DIV16);
 8005680:	4b59      	ldr	r3, [pc, #356]	; (80057e8 <HAL_RCC_ClockConfig+0x1bc>)
 8005682:	689b      	ldr	r3, [r3, #8]
 8005684:	4a58      	ldr	r2, [pc, #352]	; (80057e8 <HAL_RCC_ClockConfig+0x1bc>)
 8005686:	f443 53e0 	orr.w	r3, r3, #7168	; 0x1c00
 800568a:	6093      	str	r3, [r2, #8]
    }

    if(((RCC_ClkInitStruct->ClockType) & RCC_CLOCKTYPE_PCLK2) == RCC_CLOCKTYPE_PCLK2)
 800568c:	687b      	ldr	r3, [r7, #4]
 800568e:	681b      	ldr	r3, [r3, #0]
 8005690:	f003 0308 	and.w	r3, r3, #8
 8005694:	2b00      	cmp	r3, #0
 8005696:	d005      	beq.n	80056a4 <HAL_RCC_ClockConfig+0x78>
    {
      MODIFY_REG(RCC->CFGR, RCC_CFGR_PPRE2, (RCC_HCLK_DIV16 << 3));
 8005698:	4b53      	ldr	r3, [pc, #332]	; (80057e8 <HAL_RCC_ClockConfig+0x1bc>)
 800569a:	689b      	ldr	r3, [r3, #8]
 800569c:	4a52      	ldr	r2, [pc, #328]	; (80057e8 <HAL_RCC_ClockConfig+0x1bc>)
 800569e:	f443 4360 	orr.w	r3, r3, #57344	; 0xe000
 80056a2:	6093      	str	r3, [r2, #8]
    }

    assert_param(IS_RCC_HCLK(RCC_ClkInitStruct->AHBCLKDivider));
    MODIFY_REG(RCC->CFGR, RCC_CFGR_HPRE, RCC_ClkInitStruct->AHBCLKDivider);
 80056a4:	4b50      	ldr	r3, [pc, #320]	; (80057e8 <HAL_RCC_ClockConfig+0x1bc>)
 80056a6:	689b      	ldr	r3, [r3, #8]
 80056a8:	f023 02f0 	bic.w	r2, r3, #240	; 0xf0
 80056ac:	687b      	ldr	r3, [r7, #4]
 80056ae:	689b      	ldr	r3, [r3, #8]
 80056b0:	494d      	ldr	r1, [pc, #308]	; (80057e8 <HAL_RCC_ClockConfig+0x1bc>)
 80056b2:	4313      	orrs	r3, r2
 80056b4:	608b      	str	r3, [r1, #8]
  }

  /*------------------------- SYSCLK Configuration ---------------------------*/
  if(((RCC_ClkInitStruct->ClockType) & RCC_CLOCKTYPE_SYSCLK) == RCC_CLOCKTYPE_SYSCLK)
 80056b6:	687b      	ldr	r3, [r7, #4]
 80056b8:	681b      	ldr	r3, [r3, #0]
 80056ba:	f003 0301 	and.w	r3, r3, #1
 80056be:	2b00      	cmp	r3, #0
 80056c0:	d044      	beq.n	800574c <HAL_RCC_ClockConfig+0x120>
  {
    assert_param(IS_RCC_SYSCLKSOURCE(RCC_ClkInitStruct->SYSCLKSource));

    /* HSE is selected as System Clock Source */
    if(RCC_ClkInitStruct->SYSCLKSource == RCC_SYSCLKSOURCE_HSE)
 80056c2:	687b      	ldr	r3, [r7, #4]
 80056c4:	685b      	ldr	r3, [r3, #4]
 80056c6:	2b01      	cmp	r3, #1
 80056c8:	d107      	bne.n	80056da <HAL_RCC_ClockConfig+0xae>
    {
      /* Check the HSE ready flag */
      if(__HAL_RCC_GET_FLAG(RCC_FLAG_HSERDY) == RESET)
 80056ca:	4b47      	ldr	r3, [pc, #284]	; (80057e8 <HAL_RCC_ClockConfig+0x1bc>)
 80056cc:	681b      	ldr	r3, [r3, #0]
 80056ce:	f403 3300 	and.w	r3, r3, #131072	; 0x20000
 80056d2:	2b00      	cmp	r3, #0
 80056d4:	d119      	bne.n	800570a <HAL_RCC_ClockConfig+0xde>
      {
        return HAL_ERROR;
 80056d6:	2301      	movs	r3, #1
 80056d8:	e07f      	b.n	80057da <HAL_RCC_ClockConfig+0x1ae>
      }
    }
    /* PLL is selected as System Clock Source */
    else if((RCC_ClkInitStruct->SYSCLKSource == RCC_SYSCLKSOURCE_PLLCLK)   ||
 80056da:	687b      	ldr	r3, [r7, #4]
 80056dc:	685b      	ldr	r3, [r3, #4]
 80056de:	2b02      	cmp	r3, #2
 80056e0:	d003      	beq.n	80056ea <HAL_RCC_ClockConfig+0xbe>
            (RCC_ClkInitStruct->SYSCLKSource == RCC_SYSCLKSOURCE_PLLRCLK))
 80056e2:	687b      	ldr	r3, [r7, #4]
 80056e4:	685b      	ldr	r3, [r3, #4]
    else if((RCC_ClkInitStruct->SYSCLKSource == RCC_SYSCLKSOURCE_PLLCLK)   ||
 80056e6:	2b03      	cmp	r3, #3
 80056e8:	d107      	bne.n	80056fa <HAL_RCC_ClockConfig+0xce>
    {
      /* Check the PLL ready flag */
      if(__HAL_RCC_GET_FLAG(RCC_FLAG_PLLRDY) == RESET)
 80056ea:	4b3f      	ldr	r3, [pc, #252]	; (80057e8 <HAL_RCC_ClockConfig+0x1bc>)
 80056ec:	681b      	ldr	r3, [r3, #0]
 80056ee:	f003 7300 	and.w	r3, r3, #33554432	; 0x2000000
 80056f2:	2b00      	cmp	r3, #0
 80056f4:	d109      	bne.n	800570a <HAL_RCC_ClockConfig+0xde>
      {
        return HAL_ERROR;
 80056f6:	2301      	movs	r3, #1
 80056f8:	e06f      	b.n	80057da <HAL_RCC_ClockConfig+0x1ae>
    }
    /* HSI is selected as System Clock Source */
    else
    {
      /* Check the HSI ready flag */
      if(__HAL_RCC_GET_FLAG(RCC_FLAG_HSIRDY) == RESET)
 80056fa:	4b3b      	ldr	r3, [pc, #236]	; (80057e8 <HAL_RCC_ClockConfig+0x1bc>)
 80056fc:	681b      	ldr	r3, [r3, #0]
 80056fe:	f003 0302 	and.w	r3, r3, #2
 8005702:	2b00      	cmp	r3, #0
 8005704:	d101      	bne.n	800570a <HAL_RCC_ClockConfig+0xde>
      {
        return HAL_ERROR;
 8005706:	2301      	movs	r3, #1
 8005708:	e067      	b.n	80057da <HAL_RCC_ClockConfig+0x1ae>
      }
    }

    __HAL_RCC_SYSCLK_CONFIG(RCC_ClkInitStruct->SYSCLKSource);
 800570a:	4b37      	ldr	r3, [pc, #220]	; (80057e8 <HAL_RCC_ClockConfig+0x1bc>)
 800570c:	689b      	ldr	r3, [r3, #8]
 800570e:	f023 0203 	bic.w	r2, r3, #3
 8005712:	687b      	ldr	r3, [r7, #4]
 8005714:	685b      	ldr	r3, [r3, #4]
 8005716:	4934      	ldr	r1, [pc, #208]	; (80057e8 <HAL_RCC_ClockConfig+0x1bc>)
 8005718:	4313      	orrs	r3, r2
 800571a:	608b      	str	r3, [r1, #8]

    /* Get Start Tick */
    tickstart = HAL_GetTick();
 800571c:	f7fc f9fe 	bl	8001b1c <HAL_GetTick>
 8005720:	60f8      	str	r0, [r7, #12]

    while (__HAL_RCC_GET_SYSCLK_SOURCE() != (RCC_ClkInitStruct->SYSCLKSource << RCC_CFGR_SWS_Pos))
 8005722:	e00a      	b.n	800573a <HAL_RCC_ClockConfig+0x10e>
    {
      if ((HAL_GetTick() - tickstart) > CLOCKSWITCH_TIMEOUT_VALUE)
 8005724:	f7fc f9fa 	bl	8001b1c <HAL_GetTick>
 8005728:	4602      	mov	r2, r0
 800572a:	68fb      	ldr	r3, [r7, #12]
 800572c:	1ad3      	subs	r3, r2, r3
 800572e:	f241 3288 	movw	r2, #5000	; 0x1388
 8005732:	4293      	cmp	r3, r2
 8005734:	d901      	bls.n	800573a <HAL_RCC_ClockConfig+0x10e>
      {
        return HAL_TIMEOUT;
 8005736:	2303      	movs	r3, #3
 8005738:	e04f      	b.n	80057da <HAL_RCC_ClockConfig+0x1ae>
    while (__HAL_RCC_GET_SYSCLK_SOURCE() != (RCC_ClkInitStruct->SYSCLKSource << RCC_CFGR_SWS_Pos))
 800573a:	4b2b      	ldr	r3, [pc, #172]	; (80057e8 <HAL_RCC_ClockConfig+0x1bc>)
 800573c:	689b      	ldr	r3, [r3, #8]
 800573e:	f003 020c 	and.w	r2, r3, #12
 8005742:	687b      	ldr	r3, [r7, #4]
 8005744:	685b      	ldr	r3, [r3, #4]
 8005746:	009b      	lsls	r3, r3, #2
 8005748:	429a      	cmp	r2, r3
 800574a:	d1eb      	bne.n	8005724 <HAL_RCC_ClockConfig+0xf8>
      }
    }
  }

  /* Decreasing the number of wait states because of lower CPU frequency */
  if(FLatency < __HAL_FLASH_GET_LATENCY())
 800574c:	4b25      	ldr	r3, [pc, #148]	; (80057e4 <HAL_RCC_ClockConfig+0x1b8>)
 800574e:	681b      	ldr	r3, [r3, #0]
 8005750:	f003 0307 	and.w	r3, r3, #7
 8005754:	683a      	ldr	r2, [r7, #0]
 8005756:	429a      	cmp	r2, r3
 8005758:	d20c      	bcs.n	8005774 <HAL_RCC_ClockConfig+0x148>
  {
     /* Program the new number of wait states to the LATENCY bits in the FLASH_ACR register */
    __HAL_FLASH_SET_LATENCY(FLatency);
 800575a:	4b22      	ldr	r3, [pc, #136]	; (80057e4 <HAL_RCC_ClockConfig+0x1b8>)
 800575c:	683a      	ldr	r2, [r7, #0]
 800575e:	b2d2      	uxtb	r2, r2
 8005760:	701a      	strb	r2, [r3, #0]

    /* Check that the new number of wait states is taken into account to access the Flash
    memory by reading the FLASH_ACR register */
    if(__HAL_FLASH_GET_LATENCY() != FLatency)
 8005762:	4b20      	ldr	r3, [pc, #128]	; (80057e4 <HAL_RCC_ClockConfig+0x1b8>)
 8005764:	681b      	ldr	r3, [r3, #0]
 8005766:	f003 0307 	and.w	r3, r3, #7
 800576a:	683a      	ldr	r2, [r7, #0]
 800576c:	429a      	cmp	r2, r3
 800576e:	d001      	beq.n	8005774 <HAL_RCC_ClockConfig+0x148>
    {
      return HAL_ERROR;
 8005770:	2301      	movs	r3, #1
 8005772:	e032      	b.n	80057da <HAL_RCC_ClockConfig+0x1ae>
    }
  }

  /*-------------------------- PCLK1 Configuration ---------------------------*/
  if(((RCC_ClkInitStruct->ClockType) & RCC_CLOCKTYPE_PCLK1) == RCC_CLOCKTYPE_PCLK1)
 8005774:	687b      	ldr	r3, [r7, #4]
 8005776:	681b      	ldr	r3, [r3, #0]
 8005778:	f003 0304 	and.w	r3, r3, #4
 800577c:	2b00      	cmp	r3, #0
 800577e:	d008      	beq.n	8005792 <HAL_RCC_ClockConfig+0x166>
  {
    assert_param(IS_RCC_PCLK(RCC_ClkInitStruct->APB1CLKDivider));
    MODIFY_REG(RCC->CFGR, RCC_CFGR_PPRE1, RCC_ClkInitStruct->APB1CLKDivider);
 8005780:	4b19      	ldr	r3, [pc, #100]	; (80057e8 <HAL_RCC_ClockConfig+0x1bc>)
 8005782:	689b      	ldr	r3, [r3, #8]
 8005784:	f423 52e0 	bic.w	r2, r3, #7168	; 0x1c00
 8005788:	687b      	ldr	r3, [r7, #4]
 800578a:	68db      	ldr	r3, [r3, #12]
 800578c:	4916      	ldr	r1, [pc, #88]	; (80057e8 <HAL_RCC_ClockConfig+0x1bc>)
 800578e:	4313      	orrs	r3, r2
 8005790:	608b      	str	r3, [r1, #8]
  }

  /*-------------------------- PCLK2 Configuration ---------------------------*/
  if(((RCC_ClkInitStruct->ClockType) & RCC_CLOCKTYPE_PCLK2) == RCC_CLOCKTYPE_PCLK2)
 8005792:	687b      	ldr	r3, [r7, #4]
 8005794:	681b      	ldr	r3, [r3, #0]
 8005796:	f003 0308 	and.w	r3, r3, #8
 800579a:	2b00      	cmp	r3, #0
 800579c:	d009      	beq.n	80057b2 <HAL_RCC_ClockConfig+0x186>
  {
    assert_param(IS_RCC_PCLK(RCC_ClkInitStruct->APB2CLKDivider));
    MODIFY_REG(RCC->CFGR, RCC_CFGR_PPRE2, ((RCC_ClkInitStruct->APB2CLKDivider) << 3U));
 800579e:	4b12      	ldr	r3, [pc, #72]	; (80057e8 <HAL_RCC_ClockConfig+0x1bc>)
 80057a0:	689b      	ldr	r3, [r3, #8]
 80057a2:	f423 4260 	bic.w	r2, r3, #57344	; 0xe000
 80057a6:	687b      	ldr	r3, [r7, #4]
 80057a8:	691b      	ldr	r3, [r3, #16]
 80057aa:	00db      	lsls	r3, r3, #3
 80057ac:	490e      	ldr	r1, [pc, #56]	; (80057e8 <HAL_RCC_ClockConfig+0x1bc>)
 80057ae:	4313      	orrs	r3, r2
 80057b0:	608b      	str	r3, [r1, #8]
  }

  /* Update the SystemCoreClock global variable */
  SystemCoreClock = HAL_RCC_GetSysClockFreq() >> AHBPrescTable[(RCC->CFGR & RCC_CFGR_HPRE)>> RCC_CFGR_HPRE_Pos];
 80057b2:	f000 f821 	bl	80057f8 <HAL_RCC_GetSysClockFreq>
 80057b6:	4602      	mov	r2, r0
 80057b8:	4b0b      	ldr	r3, [pc, #44]	; (80057e8 <HAL_RCC_ClockConfig+0x1bc>)
 80057ba:	689b      	ldr	r3, [r3, #8]
 80057bc:	091b      	lsrs	r3, r3, #4
 80057be:	f003 030f 	and.w	r3, r3, #15
 80057c2:	490a      	ldr	r1, [pc, #40]	; (80057ec <HAL_RCC_ClockConfig+0x1c0>)
 80057c4:	5ccb      	ldrb	r3, [r1, r3]
 80057c6:	fa22 f303 	lsr.w	r3, r2, r3
 80057ca:	4a09      	ldr	r2, [pc, #36]	; (80057f0 <HAL_RCC_ClockConfig+0x1c4>)
 80057cc:	6013      	str	r3, [r2, #0]

  /* Configure the source of time base considering new system clocks settings */
  HAL_InitTick (uwTickPrio);
 80057ce:	4b09      	ldr	r3, [pc, #36]	; (80057f4 <HAL_RCC_ClockConfig+0x1c8>)
 80057d0:	681b      	ldr	r3, [r3, #0]
 80057d2:	4618      	mov	r0, r3
 80057d4:	f7fc f95e 	bl	8001a94 <HAL_InitTick>

  return HAL_OK;
 80057d8:	2300      	movs	r3, #0
}
 80057da:	4618      	mov	r0, r3
 80057dc:	3710      	adds	r7, #16
 80057de:	46bd      	mov	sp, r7
 80057e0:	bd80      	pop	{r7, pc}
 80057e2:	bf00      	nop
 80057e4:	40023c00 	.word	0x40023c00
 80057e8:	40023800 	.word	0x40023800
 80057ec:	080075d0 	.word	0x080075d0
 80057f0:	2000001c 	.word	0x2000001c
 80057f4:	20000020 	.word	0x20000020

080057f8 <HAL_RCC_GetSysClockFreq>:
  *
  *
  * @retval SYSCLK frequency
  */
__weak uint32_t HAL_RCC_GetSysClockFreq(void)
{
 80057f8:	e92d 43b0 	stmdb	sp!, {r4, r5, r7, r8, r9, lr}
 80057fc:	b084      	sub	sp, #16
 80057fe:	af00      	add	r7, sp, #0
  uint32_t pllm = 0U, pllvco = 0U, pllp = 0U;
 8005800:	2300      	movs	r3, #0
 8005802:	607b      	str	r3, [r7, #4]
 8005804:	2300      	movs	r3, #0
 8005806:	60fb      	str	r3, [r7, #12]
 8005808:	2300      	movs	r3, #0
 800580a:	603b      	str	r3, [r7, #0]
  uint32_t sysclockfreq = 0U;
 800580c:	2300      	movs	r3, #0
 800580e:	60bb      	str	r3, [r7, #8]

  /* Get SYSCLK source -------------------------------------------------------*/
  switch (RCC->CFGR & RCC_CFGR_SWS)
 8005810:	4b67      	ldr	r3, [pc, #412]	; (80059b0 <HAL_RCC_GetSysClockFreq+0x1b8>)
 8005812:	689b      	ldr	r3, [r3, #8]
 8005814:	f003 030c 	and.w	r3, r3, #12
 8005818:	2b08      	cmp	r3, #8
 800581a:	d00d      	beq.n	8005838 <HAL_RCC_GetSysClockFreq+0x40>
 800581c:	2b08      	cmp	r3, #8
 800581e:	f200 80bd 	bhi.w	800599c <HAL_RCC_GetSysClockFreq+0x1a4>
 8005822:	2b00      	cmp	r3, #0
 8005824:	d002      	beq.n	800582c <HAL_RCC_GetSysClockFreq+0x34>
 8005826:	2b04      	cmp	r3, #4
 8005828:	d003      	beq.n	8005832 <HAL_RCC_GetSysClockFreq+0x3a>
 800582a:	e0b7      	b.n	800599c <HAL_RCC_GetSysClockFreq+0x1a4>
  {
    case RCC_CFGR_SWS_HSI:  /* HSI used as system clock source */
    {
      sysclockfreq = HSI_VALUE;
 800582c:	4b61      	ldr	r3, [pc, #388]	; (80059b4 <HAL_RCC_GetSysClockFreq+0x1bc>)
 800582e:	60bb      	str	r3, [r7, #8]
       break;
 8005830:	e0b7      	b.n	80059a2 <HAL_RCC_GetSysClockFreq+0x1aa>
    }
    case RCC_CFGR_SWS_HSE:  /* HSE used as system clock  source */
    {
      sysclockfreq = HSE_VALUE;
 8005832:	4b61      	ldr	r3, [pc, #388]	; (80059b8 <HAL_RCC_GetSysClockFreq+0x1c0>)
 8005834:	60bb      	str	r3, [r7, #8]
      break;
 8005836:	e0b4      	b.n	80059a2 <HAL_RCC_GetSysClockFreq+0x1aa>
    }
    case RCC_CFGR_SWS_PLL:  /* PLL used as system clock  source */
    {
      /* PLL_VCO = (HSE_VALUE or HSI_VALUE / PLLM) * PLLN
      SYSCLK = PLL_VCO / PLLP */
      pllm = RCC->PLLCFGR & RCC_PLLCFGR_PLLM;
 8005838:	4b5d      	ldr	r3, [pc, #372]	; (80059b0 <HAL_RCC_GetSysClockFreq+0x1b8>)
 800583a:	685b      	ldr	r3, [r3, #4]
 800583c:	f003 033f 	and.w	r3, r3, #63	; 0x3f
 8005840:	607b      	str	r3, [r7, #4]
      if(__HAL_RCC_GET_PLL_OSCSOURCE() != RCC_PLLSOURCE_HSI)
 8005842:	4b5b      	ldr	r3, [pc, #364]	; (80059b0 <HAL_RCC_GetSysClockFreq+0x1b8>)
 8005844:	685b      	ldr	r3, [r3, #4]
 8005846:	f403 0380 	and.w	r3, r3, #4194304	; 0x400000
 800584a:	2b00      	cmp	r3, #0
 800584c:	d04d      	beq.n	80058ea <HAL_RCC_GetSysClockFreq+0xf2>
      {
        /* HSE used as PLL clock source */
        pllvco = (uint32_t) ((((uint64_t) HSE_VALUE * ((uint64_t) ((RCC->PLLCFGR & RCC_PLLCFGR_PLLN) >> RCC_PLLCFGR_PLLN_Pos)))) / (uint64_t)pllm);
 800584e:	4b58      	ldr	r3, [pc, #352]	; (80059b0 <HAL_RCC_GetSysClockFreq+0x1b8>)
 8005850:	685b      	ldr	r3, [r3, #4]
 8005852:	099b      	lsrs	r3, r3, #6
 8005854:	461a      	mov	r2, r3
 8005856:	f04f 0300 	mov.w	r3, #0
 800585a:	f240 10ff 	movw	r0, #511	; 0x1ff
 800585e:	f04f 0100 	mov.w	r1, #0
 8005862:	ea02 0800 	and.w	r8, r2, r0
 8005866:	ea03 0901 	and.w	r9, r3, r1
 800586a:	4640      	mov	r0, r8
 800586c:	4649      	mov	r1, r9
 800586e:	f04f 0200 	mov.w	r2, #0
 8005872:	f04f 0300 	mov.w	r3, #0
 8005876:	014b      	lsls	r3, r1, #5
 8005878:	ea43 63d0 	orr.w	r3, r3, r0, lsr #27
 800587c:	0142      	lsls	r2, r0, #5
 800587e:	4610      	mov	r0, r2
 8005880:	4619      	mov	r1, r3
 8005882:	ebb0 0008 	subs.w	r0, r0, r8
 8005886:	eb61 0109 	sbc.w	r1, r1, r9
 800588a:	f04f 0200 	mov.w	r2, #0
 800588e:	f04f 0300 	mov.w	r3, #0
 8005892:	018b      	lsls	r3, r1, #6
 8005894:	ea43 6390 	orr.w	r3, r3, r0, lsr #26
 8005898:	0182      	lsls	r2, r0, #6
 800589a:	1a12      	subs	r2, r2, r0
 800589c:	eb63 0301 	sbc.w	r3, r3, r1
 80058a0:	f04f 0000 	mov.w	r0, #0
 80058a4:	f04f 0100 	mov.w	r1, #0
 80058a8:	00d9      	lsls	r1, r3, #3
 80058aa:	ea41 7152 	orr.w	r1, r1, r2, lsr #29
 80058ae:	00d0      	lsls	r0, r2, #3
 80058b0:	4602      	mov	r2, r0
 80058b2:	460b      	mov	r3, r1
 80058b4:	eb12 0208 	adds.w	r2, r2, r8
 80058b8:	eb43 0309 	adc.w	r3, r3, r9
 80058bc:	f04f 0000 	mov.w	r0, #0
 80058c0:	f04f 0100 	mov.w	r1, #0
 80058c4:	0259      	lsls	r1, r3, #9
 80058c6:	ea41 51d2 	orr.w	r1, r1, r2, lsr #23
 80058ca:	0250      	lsls	r0, r2, #9
 80058cc:	4602      	mov	r2, r0
 80058ce:	460b      	mov	r3, r1
 80058d0:	4610      	mov	r0, r2
 80058d2:	4619      	mov	r1, r3
 80058d4:	687b      	ldr	r3, [r7, #4]
 80058d6:	461a      	mov	r2, r3
 80058d8:	f04f 0300 	mov.w	r3, #0
 80058dc:	f7fb f89a 	bl	8000a14 <__aeabi_uldivmod>
 80058e0:	4602      	mov	r2, r0
 80058e2:	460b      	mov	r3, r1
 80058e4:	4613      	mov	r3, r2
 80058e6:	60fb      	str	r3, [r7, #12]
 80058e8:	e04a      	b.n	8005980 <HAL_RCC_GetSysClockFreq+0x188>
      }
      else
      {
        /* HSI used as PLL clock source */
        pllvco = (uint32_t) ((((uint64_t) HSI_VALUE * ((uint64_t) ((RCC->PLLCFGR & RCC_PLLCFGR_PLLN) >> RCC_PLLCFGR_PLLN_Pos)))) / (uint64_t)pllm);
 80058ea:	4b31      	ldr	r3, [pc, #196]	; (80059b0 <HAL_RCC_GetSysClockFreq+0x1b8>)
 80058ec:	685b      	ldr	r3, [r3, #4]
 80058ee:	099b      	lsrs	r3, r3, #6
 80058f0:	461a      	mov	r2, r3
 80058f2:	f04f 0300 	mov.w	r3, #0
 80058f6:	f240 10ff 	movw	r0, #511	; 0x1ff
 80058fa:	f04f 0100 	mov.w	r1, #0
 80058fe:	ea02 0400 	and.w	r4, r2, r0
 8005902:	ea03 0501 	and.w	r5, r3, r1
 8005906:	4620      	mov	r0, r4
 8005908:	4629      	mov	r1, r5
 800590a:	f04f 0200 	mov.w	r2, #0
 800590e:	f04f 0300 	mov.w	r3, #0
 8005912:	014b      	lsls	r3, r1, #5
 8005914:	ea43 63d0 	orr.w	r3, r3, r0, lsr #27
 8005918:	0142      	lsls	r2, r0, #5
 800591a:	4610      	mov	r0, r2
 800591c:	4619      	mov	r1, r3
 800591e:	1b00      	subs	r0, r0, r4
 8005920:	eb61 0105 	sbc.w	r1, r1, r5
 8005924:	f04f 0200 	mov.w	r2, #0
 8005928:	f04f 0300 	mov.w	r3, #0
 800592c:	018b      	lsls	r3, r1, #6
 800592e:	ea43 6390 	orr.w	r3, r3, r0, lsr #26
 8005932:	0182      	lsls	r2, r0, #6
 8005934:	1a12      	subs	r2, r2, r0
 8005936:	eb63 0301 	sbc.w	r3, r3, r1
 800593a:	f04f 0000 	mov.w	r0, #0
 800593e:	f04f 0100 	mov.w	r1, #0
 8005942:	00d9      	lsls	r1, r3, #3
 8005944:	ea41 7152 	orr.w	r1, r1, r2, lsr #29
 8005948:	00d0      	lsls	r0, r2, #3
 800594a:	4602      	mov	r2, r0
 800594c:	460b      	mov	r3, r1
 800594e:	1912      	adds	r2, r2, r4
 8005950:	eb45 0303 	adc.w	r3, r5, r3
 8005954:	f04f 0000 	mov.w	r0, #0
 8005958:	f04f 0100 	mov.w	r1, #0
 800595c:	0299      	lsls	r1, r3, #10
 800595e:	ea41 5192 	orr.w	r1, r1, r2, lsr #22
 8005962:	0290      	lsls	r0, r2, #10
 8005964:	4602      	mov	r2, r0
 8005966:	460b      	mov	r3, r1
 8005968:	4610      	mov	r0, r2
 800596a:	4619      	mov	r1, r3
 800596c:	687b      	ldr	r3, [r7, #4]
 800596e:	461a      	mov	r2, r3
 8005970:	f04f 0300 	mov.w	r3, #0
 8005974:	f7fb f84e 	bl	8000a14 <__aeabi_uldivmod>
 8005978:	4602      	mov	r2, r0
 800597a:	460b      	mov	r3, r1
 800597c:	4613      	mov	r3, r2
 800597e:	60fb      	str	r3, [r7, #12]
      }
      pllp = ((((RCC->PLLCFGR & RCC_PLLCFGR_PLLP) >> RCC_PLLCFGR_PLLP_Pos) + 1U) *2U);
 8005980:	4b0b      	ldr	r3, [pc, #44]	; (80059b0 <HAL_RCC_GetSysClockFreq+0x1b8>)
 8005982:	685b      	ldr	r3, [r3, #4]
 8005984:	0c1b      	lsrs	r3, r3, #16
 8005986:	f003 0303 	and.w	r3, r3, #3
 800598a:	3301      	adds	r3, #1
 800598c:	005b      	lsls	r3, r3, #1
 800598e:	603b      	str	r3, [r7, #0]

      sysclockfreq = pllvco/pllp;
 8005990:	68fa      	ldr	r2, [r7, #12]
 8005992:	683b      	ldr	r3, [r7, #0]
 8005994:	fbb2 f3f3 	udiv	r3, r2, r3
 8005998:	60bb      	str	r3, [r7, #8]
      break;
 800599a:	e002      	b.n	80059a2 <HAL_RCC_GetSysClockFreq+0x1aa>
    }
    default:
    {
      sysclockfreq = HSI_VALUE;
 800599c:	4b05      	ldr	r3, [pc, #20]	; (80059b4 <HAL_RCC_GetSysClockFreq+0x1bc>)
 800599e:	60bb      	str	r3, [r7, #8]
      break;
 80059a0:	bf00      	nop
    }
  }
  return sysclockfreq;
 80059a2:	68bb      	ldr	r3, [r7, #8]
}
 80059a4:	4618      	mov	r0, r3
 80059a6:	3710      	adds	r7, #16
 80059a8:	46bd      	mov	sp, r7
 80059aa:	e8bd 83b0 	ldmia.w	sp!, {r4, r5, r7, r8, r9, pc}
 80059ae:	bf00      	nop
 80059b0:	40023800 	.word	0x40023800
 80059b4:	00f42400 	.word	0x00f42400
 80059b8:	007a1200 	.word	0x007a1200

080059bc <HAL_RCC_GetHCLKFreq>:
  * @note   The SystemCoreClock CMSIS variable is used to store System Clock Frequency
  *         and updated within this function
  * @retval HCLK frequency
  */
uint32_t HAL_RCC_GetHCLKFreq(void)
{
 80059bc:	b480      	push	{r7}
 80059be:	af00      	add	r7, sp, #0
  return SystemCoreClock;
 80059c0:	4b03      	ldr	r3, [pc, #12]	; (80059d0 <HAL_RCC_GetHCLKFreq+0x14>)
 80059c2:	681b      	ldr	r3, [r3, #0]
}
 80059c4:	4618      	mov	r0, r3
 80059c6:	46bd      	mov	sp, r7
 80059c8:	f85d 7b04 	ldr.w	r7, [sp], #4
 80059cc:	4770      	bx	lr
 80059ce:	bf00      	nop
 80059d0:	2000001c 	.word	0x2000001c

080059d4 <HAL_RCC_GetPCLK1Freq>:
  * @note   Each time PCLK1 changes, this function must be called to update the
  *         right PCLK1 value. Otherwise, any configuration based on this function will be incorrect.
  * @retval PCLK1 frequency
  */
uint32_t HAL_RCC_GetPCLK1Freq(void)
{
 80059d4:	b580      	push	{r7, lr}
 80059d6:	af00      	add	r7, sp, #0
  /* Get HCLK source and Compute PCLK1 frequency ---------------------------*/
  return (HAL_RCC_GetHCLKFreq() >> APBPrescTable[(RCC->CFGR & RCC_CFGR_PPRE1)>> RCC_CFGR_PPRE1_Pos]);
 80059d8:	f7ff fff0 	bl	80059bc <HAL_RCC_GetHCLKFreq>
 80059dc:	4602      	mov	r2, r0
 80059de:	4b05      	ldr	r3, [pc, #20]	; (80059f4 <HAL_RCC_GetPCLK1Freq+0x20>)
 80059e0:	689b      	ldr	r3, [r3, #8]
 80059e2:	0a9b      	lsrs	r3, r3, #10
 80059e4:	f003 0307 	and.w	r3, r3, #7
 80059e8:	4903      	ldr	r1, [pc, #12]	; (80059f8 <HAL_RCC_GetPCLK1Freq+0x24>)
 80059ea:	5ccb      	ldrb	r3, [r1, r3]
 80059ec:	fa22 f303 	lsr.w	r3, r2, r3
}
 80059f0:	4618      	mov	r0, r3
 80059f2:	bd80      	pop	{r7, pc}
 80059f4:	40023800 	.word	0x40023800
 80059f8:	080075e0 	.word	0x080075e0

080059fc <HAL_RCC_GetPCLK2Freq>:
  * @note   Each time PCLK2 changes, this function must be called to update the
  *         right PCLK2 value. Otherwise, any configuration based on this function will be incorrect.
  * @retval PCLK2 frequency
  */
uint32_t HAL_RCC_GetPCLK2Freq(void)
{
 80059fc:	b580      	push	{r7, lr}
 80059fe:	af00      	add	r7, sp, #0
  /* Get HCLK source and Compute PCLK2 frequency ---------------------------*/
  return (HAL_RCC_GetHCLKFreq()>> APBPrescTable[(RCC->CFGR & RCC_CFGR_PPRE2)>> RCC_CFGR_PPRE2_Pos]);
 8005a00:	f7ff ffdc 	bl	80059bc <HAL_RCC_GetHCLKFreq>
 8005a04:	4602      	mov	r2, r0
 8005a06:	4b05      	ldr	r3, [pc, #20]	; (8005a1c <HAL_RCC_GetPCLK2Freq+0x20>)
 8005a08:	689b      	ldr	r3, [r3, #8]
 8005a0a:	0b5b      	lsrs	r3, r3, #13
 8005a0c:	f003 0307 	and.w	r3, r3, #7
 8005a10:	4903      	ldr	r1, [pc, #12]	; (8005a20 <HAL_RCC_GetPCLK2Freq+0x24>)
 8005a12:	5ccb      	ldrb	r3, [r1, r3]
 8005a14:	fa22 f303 	lsr.w	r3, r2, r3
}
 8005a18:	4618      	mov	r0, r3
 8005a1a:	bd80      	pop	{r7, pc}
 8005a1c:	40023800 	.word	0x40023800
 8005a20:	080075e0 	.word	0x080075e0

08005a24 <HAL_TIM_Base_Init>:
  *         Ex: call @ref HAL_TIM_Base_DeInit() before HAL_TIM_Base_Init()
  * @param  htim TIM Base handle
  * @retval HAL status
  */
HAL_StatusTypeDef HAL_TIM_Base_Init(TIM_HandleTypeDef *htim)
{
 8005a24:	b580      	push	{r7, lr}
 8005a26:	b082      	sub	sp, #8
 8005a28:	af00      	add	r7, sp, #0
 8005a2a:	6078      	str	r0, [r7, #4]
  /* Check the TIM handle allocation */
  if (htim == NULL)
 8005a2c:	687b      	ldr	r3, [r7, #4]
 8005a2e:	2b00      	cmp	r3, #0
 8005a30:	d101      	bne.n	8005a36 <HAL_TIM_Base_Init+0x12>
  {
    return HAL_ERROR;
 8005a32:	2301      	movs	r3, #1
 8005a34:	e041      	b.n	8005aba <HAL_TIM_Base_Init+0x96>
  assert_param(IS_TIM_INSTANCE(htim->Instance));
  assert_param(IS_TIM_COUNTER_MODE(htim->Init.CounterMode));
  assert_param(IS_TIM_CLOCKDIVISION_DIV(htim->Init.ClockDivision));
  assert_param(IS_TIM_AUTORELOAD_PRELOAD(htim->Init.AutoReloadPreload));

  if (htim->State == HAL_TIM_STATE_RESET)
 8005a36:	687b      	ldr	r3, [r7, #4]
 8005a38:	f893 303d 	ldrb.w	r3, [r3, #61]	; 0x3d
 8005a3c:	b2db      	uxtb	r3, r3
 8005a3e:	2b00      	cmp	r3, #0
 8005a40:	d106      	bne.n	8005a50 <HAL_TIM_Base_Init+0x2c>
  {
    /* Allocate lock resource and initialize it */
    htim->Lock = HAL_UNLOCKED;
 8005a42:	687b      	ldr	r3, [r7, #4]
 8005a44:	2200      	movs	r2, #0
 8005a46:	f883 203c 	strb.w	r2, [r3, #60]	; 0x3c
    }
    /* Init the low level hardware : GPIO, CLOCK, NVIC */
    htim->Base_MspInitCallback(htim);
#else
    /* Init the low level hardware : GPIO, CLOCK, NVIC */
    HAL_TIM_Base_MspInit(htim);
 8005a4a:	6878      	ldr	r0, [r7, #4]
 8005a4c:	f7fb fe54 	bl	80016f8 <HAL_TIM_Base_MspInit>
#endif /* USE_HAL_TIM_REGISTER_CALLBACKS */
  }

  /* Set the TIM state */
  htim->State = HAL_TIM_STATE_BUSY;
 8005a50:	687b      	ldr	r3, [r7, #4]
 8005a52:	2202      	movs	r2, #2
 8005a54:	f883 203d 	strb.w	r2, [r3, #61]	; 0x3d

  /* Set the Time Base configuration */
  TIM_Base_SetConfig(htim->Instance, &htim->Init);
 8005a58:	687b      	ldr	r3, [r7, #4]
 8005a5a:	681a      	ldr	r2, [r3, #0]
 8005a5c:	687b      	ldr	r3, [r7, #4]
 8005a5e:	3304      	adds	r3, #4
 8005a60:	4619      	mov	r1, r3
 8005a62:	4610      	mov	r0, r2
 8005a64:	f000 ff0e 	bl	8006884 <TIM_Base_SetConfig>

  /* Initialize the DMA burst operation state */
  htim->DMABurstState = HAL_DMA_BURST_STATE_READY;
 8005a68:	687b      	ldr	r3, [r7, #4]
 8005a6a:	2201      	movs	r2, #1
 8005a6c:	f883 2046 	strb.w	r2, [r3, #70]	; 0x46

  /* Initialize the TIM channels state */
  TIM_CHANNEL_STATE_SET_ALL(htim, HAL_TIM_CHANNEL_STATE_READY);
 8005a70:	687b      	ldr	r3, [r7, #4]
 8005a72:	2201      	movs	r2, #1
 8005a74:	f883 203e 	strb.w	r2, [r3, #62]	; 0x3e
 8005a78:	687b      	ldr	r3, [r7, #4]
 8005a7a:	2201      	movs	r2, #1
 8005a7c:	f883 203f 	strb.w	r2, [r3, #63]	; 0x3f
 8005a80:	687b      	ldr	r3, [r7, #4]
 8005a82:	2201      	movs	r2, #1
 8005a84:	f883 2040 	strb.w	r2, [r3, #64]	; 0x40
 8005a88:	687b      	ldr	r3, [r7, #4]
 8005a8a:	2201      	movs	r2, #1
 8005a8c:	f883 2041 	strb.w	r2, [r3, #65]	; 0x41
  TIM_CHANNEL_N_STATE_SET_ALL(htim, HAL_TIM_CHANNEL_STATE_READY);
 8005a90:	687b      	ldr	r3, [r7, #4]
 8005a92:	2201      	movs	r2, #1
 8005a94:	f883 2042 	strb.w	r2, [r3, #66]	; 0x42
 8005a98:	687b      	ldr	r3, [r7, #4]
 8005a9a:	2201      	movs	r2, #1
 8005a9c:	f883 2043 	strb.w	r2, [r3, #67]	; 0x43
 8005aa0:	687b      	ldr	r3, [r7, #4]
 8005aa2:	2201      	movs	r2, #1
 8005aa4:	f883 2044 	strb.w	r2, [r3, #68]	; 0x44
 8005aa8:	687b      	ldr	r3, [r7, #4]
 8005aaa:	2201      	movs	r2, #1
 8005aac:	f883 2045 	strb.w	r2, [r3, #69]	; 0x45

  /* Initialize the TIM state*/
  htim->State = HAL_TIM_STATE_READY;
 8005ab0:	687b      	ldr	r3, [r7, #4]
 8005ab2:	2201      	movs	r2, #1
 8005ab4:	f883 203d 	strb.w	r2, [r3, #61]	; 0x3d

  return HAL_OK;
 8005ab8:	2300      	movs	r3, #0
}
 8005aba:	4618      	mov	r0, r3
 8005abc:	3708      	adds	r7, #8
 8005abe:	46bd      	mov	sp, r7
 8005ac0:	bd80      	pop	{r7, pc}
	...

08005ac4 <HAL_TIM_Base_Start>:
  * @brief  Starts the TIM Base generation.
  * @param  htim TIM Base handle
  * @retval HAL status
  */
HAL_StatusTypeDef HAL_TIM_Base_Start(TIM_HandleTypeDef *htim)
{
 8005ac4:	b480      	push	{r7}
 8005ac6:	b085      	sub	sp, #20
 8005ac8:	af00      	add	r7, sp, #0
 8005aca:	6078      	str	r0, [r7, #4]

  /* Check the parameters */
  assert_param(IS_TIM_INSTANCE(htim->Instance));

  /* Check the TIM state */
  if (htim->State != HAL_TIM_STATE_READY)
 8005acc:	687b      	ldr	r3, [r7, #4]
 8005ace:	f893 303d 	ldrb.w	r3, [r3, #61]	; 0x3d
 8005ad2:	b2db      	uxtb	r3, r3
 8005ad4:	2b01      	cmp	r3, #1
 8005ad6:	d001      	beq.n	8005adc <HAL_TIM_Base_Start+0x18>
  {
    return HAL_ERROR;
 8005ad8:	2301      	movs	r3, #1
 8005ada:	e03c      	b.n	8005b56 <HAL_TIM_Base_Start+0x92>
  }

  /* Set the TIM state */
  htim->State = HAL_TIM_STATE_BUSY;
 8005adc:	687b      	ldr	r3, [r7, #4]
 8005ade:	2202      	movs	r2, #2
 8005ae0:	f883 203d 	strb.w	r2, [r3, #61]	; 0x3d

  /* Enable the Peripheral, except in trigger mode where enable is automatically done with trigger */
  if (IS_TIM_SLAVE_INSTANCE(htim->Instance))
 8005ae4:	687b      	ldr	r3, [r7, #4]
 8005ae6:	681b      	ldr	r3, [r3, #0]
 8005ae8:	4a1e      	ldr	r2, [pc, #120]	; (8005b64 <HAL_TIM_Base_Start+0xa0>)
 8005aea:	4293      	cmp	r3, r2
 8005aec:	d018      	beq.n	8005b20 <HAL_TIM_Base_Start+0x5c>
 8005aee:	687b      	ldr	r3, [r7, #4]
 8005af0:	681b      	ldr	r3, [r3, #0]
 8005af2:	f1b3 4f80 	cmp.w	r3, #1073741824	; 0x40000000
 8005af6:	d013      	beq.n	8005b20 <HAL_TIM_Base_Start+0x5c>
 8005af8:	687b      	ldr	r3, [r7, #4]
 8005afa:	681b      	ldr	r3, [r3, #0]
 8005afc:	4a1a      	ldr	r2, [pc, #104]	; (8005b68 <HAL_TIM_Base_Start+0xa4>)
 8005afe:	4293      	cmp	r3, r2
 8005b00:	d00e      	beq.n	8005b20 <HAL_TIM_Base_Start+0x5c>
 8005b02:	687b      	ldr	r3, [r7, #4]
 8005b04:	681b      	ldr	r3, [r3, #0]
 8005b06:	4a19      	ldr	r2, [pc, #100]	; (8005b6c <HAL_TIM_Base_Start+0xa8>)
 8005b08:	4293      	cmp	r3, r2
 8005b0a:	d009      	beq.n	8005b20 <HAL_TIM_Base_Start+0x5c>
 8005b0c:	687b      	ldr	r3, [r7, #4]
 8005b0e:	681b      	ldr	r3, [r3, #0]
 8005b10:	4a17      	ldr	r2, [pc, #92]	; (8005b70 <HAL_TIM_Base_Start+0xac>)
 8005b12:	4293      	cmp	r3, r2
 8005b14:	d004      	beq.n	8005b20 <HAL_TIM_Base_Start+0x5c>
 8005b16:	687b      	ldr	r3, [r7, #4]
 8005b18:	681b      	ldr	r3, [r3, #0]
 8005b1a:	4a16      	ldr	r2, [pc, #88]	; (8005b74 <HAL_TIM_Base_Start+0xb0>)
 8005b1c:	4293      	cmp	r3, r2
 8005b1e:	d111      	bne.n	8005b44 <HAL_TIM_Base_Start+0x80>
  {
    tmpsmcr = htim->Instance->SMCR & TIM_SMCR_SMS;
 8005b20:	687b      	ldr	r3, [r7, #4]
 8005b22:	681b      	ldr	r3, [r3, #0]
 8005b24:	689b      	ldr	r3, [r3, #8]
 8005b26:	f003 0307 	and.w	r3, r3, #7
 8005b2a:	60fb      	str	r3, [r7, #12]
    if (!IS_TIM_SLAVEMODE_TRIGGER_ENABLED(tmpsmcr))
 8005b2c:	68fb      	ldr	r3, [r7, #12]
 8005b2e:	2b06      	cmp	r3, #6
 8005b30:	d010      	beq.n	8005b54 <HAL_TIM_Base_Start+0x90>
    {
      __HAL_TIM_ENABLE(htim);
 8005b32:	687b      	ldr	r3, [r7, #4]
 8005b34:	681b      	ldr	r3, [r3, #0]
 8005b36:	681a      	ldr	r2, [r3, #0]
 8005b38:	687b      	ldr	r3, [r7, #4]
 8005b3a:	681b      	ldr	r3, [r3, #0]
 8005b3c:	f042 0201 	orr.w	r2, r2, #1
 8005b40:	601a      	str	r2, [r3, #0]
    if (!IS_TIM_SLAVEMODE_TRIGGER_ENABLED(tmpsmcr))
 8005b42:	e007      	b.n	8005b54 <HAL_TIM_Base_Start+0x90>
    }
  }
  else
  {
    __HAL_TIM_ENABLE(htim);
 8005b44:	687b      	ldr	r3, [r7, #4]
 8005b46:	681b      	ldr	r3, [r3, #0]
 8005b48:	681a      	ldr	r2, [r3, #0]
 8005b4a:	687b      	ldr	r3, [r7, #4]
 8005b4c:	681b      	ldr	r3, [r3, #0]
 8005b4e:	f042 0201 	orr.w	r2, r2, #1
 8005b52:	601a      	str	r2, [r3, #0]
  }

  /* Return function status */
  return HAL_OK;
 8005b54:	2300      	movs	r3, #0
}
 8005b56:	4618      	mov	r0, r3
 8005b58:	3714      	adds	r7, #20
 8005b5a:	46bd      	mov	sp, r7
 8005b5c:	f85d 7b04 	ldr.w	r7, [sp], #4
 8005b60:	4770      	bx	lr
 8005b62:	bf00      	nop
 8005b64:	40010000 	.word	0x40010000
 8005b68:	40000400 	.word	0x40000400
 8005b6c:	40000800 	.word	0x40000800
 8005b70:	40000c00 	.word	0x40000c00
 8005b74:	40014000 	.word	0x40014000

08005b78 <HAL_TIM_Base_Start_IT>:
  * @brief  Starts the TIM Base generation in interrupt mode.
  * @param  htim TIM Base handle
  * @retval HAL status
  */
HAL_StatusTypeDef HAL_TIM_Base_Start_IT(TIM_HandleTypeDef *htim)
{
 8005b78:	b480      	push	{r7}
 8005b7a:	b085      	sub	sp, #20
 8005b7c:	af00      	add	r7, sp, #0
 8005b7e:	6078      	str	r0, [r7, #4]

  /* Check the parameters */
  assert_param(IS_TIM_INSTANCE(htim->Instance));

  /* Check the TIM state */
  if (htim->State != HAL_TIM_STATE_READY)
 8005b80:	687b      	ldr	r3, [r7, #4]
 8005b82:	f893 303d 	ldrb.w	r3, [r3, #61]	; 0x3d
 8005b86:	b2db      	uxtb	r3, r3
 8005b88:	2b01      	cmp	r3, #1
 8005b8a:	d001      	beq.n	8005b90 <HAL_TIM_Base_Start_IT+0x18>
  {
    return HAL_ERROR;
 8005b8c:	2301      	movs	r3, #1
 8005b8e:	e044      	b.n	8005c1a <HAL_TIM_Base_Start_IT+0xa2>
  }

  /* Set the TIM state */
  htim->State = HAL_TIM_STATE_BUSY;
 8005b90:	687b      	ldr	r3, [r7, #4]
 8005b92:	2202      	movs	r2, #2
 8005b94:	f883 203d 	strb.w	r2, [r3, #61]	; 0x3d

  /* Enable the TIM Update interrupt */
  __HAL_TIM_ENABLE_IT(htim, TIM_IT_UPDATE);
 8005b98:	687b      	ldr	r3, [r7, #4]
 8005b9a:	681b      	ldr	r3, [r3, #0]
 8005b9c:	68da      	ldr	r2, [r3, #12]
 8005b9e:	687b      	ldr	r3, [r7, #4]
 8005ba0:	681b      	ldr	r3, [r3, #0]
 8005ba2:	f042 0201 	orr.w	r2, r2, #1
 8005ba6:	60da      	str	r2, [r3, #12]

  /* Enable the Peripheral, except in trigger mode where enable is automatically done with trigger */
  if (IS_TIM_SLAVE_INSTANCE(htim->Instance))
 8005ba8:	687b      	ldr	r3, [r7, #4]
 8005baa:	681b      	ldr	r3, [r3, #0]
 8005bac:	4a1e      	ldr	r2, [pc, #120]	; (8005c28 <HAL_TIM_Base_Start_IT+0xb0>)
 8005bae:	4293      	cmp	r3, r2
 8005bb0:	d018      	beq.n	8005be4 <HAL_TIM_Base_Start_IT+0x6c>
 8005bb2:	687b      	ldr	r3, [r7, #4]
 8005bb4:	681b      	ldr	r3, [r3, #0]
 8005bb6:	f1b3 4f80 	cmp.w	r3, #1073741824	; 0x40000000
 8005bba:	d013      	beq.n	8005be4 <HAL_TIM_Base_Start_IT+0x6c>
 8005bbc:	687b      	ldr	r3, [r7, #4]
 8005bbe:	681b      	ldr	r3, [r3, #0]
 8005bc0:	4a1a      	ldr	r2, [pc, #104]	; (8005c2c <HAL_TIM_Base_Start_IT+0xb4>)
 8005bc2:	4293      	cmp	r3, r2
 8005bc4:	d00e      	beq.n	8005be4 <HAL_TIM_Base_Start_IT+0x6c>
 8005bc6:	687b      	ldr	r3, [r7, #4]
 8005bc8:	681b      	ldr	r3, [r3, #0]
 8005bca:	4a19      	ldr	r2, [pc, #100]	; (8005c30 <HAL_TIM_Base_Start_IT+0xb8>)
 8005bcc:	4293      	cmp	r3, r2
 8005bce:	d009      	beq.n	8005be4 <HAL_TIM_Base_Start_IT+0x6c>
 8005bd0:	687b      	ldr	r3, [r7, #4]
 8005bd2:	681b      	ldr	r3, [r3, #0]
 8005bd4:	4a17      	ldr	r2, [pc, #92]	; (8005c34 <HAL_TIM_Base_Start_IT+0xbc>)
 8005bd6:	4293      	cmp	r3, r2
 8005bd8:	d004      	beq.n	8005be4 <HAL_TIM_Base_Start_IT+0x6c>
 8005bda:	687b      	ldr	r3, [r7, #4]
 8005bdc:	681b      	ldr	r3, [r3, #0]
 8005bde:	4a16      	ldr	r2, [pc, #88]	; (8005c38 <HAL_TIM_Base_Start_IT+0xc0>)
 8005be0:	4293      	cmp	r3, r2
 8005be2:	d111      	bne.n	8005c08 <HAL_TIM_Base_Start_IT+0x90>
  {
    tmpsmcr = htim->Instance->SMCR & TIM_SMCR_SMS;
 8005be4:	687b      	ldr	r3, [r7, #4]
 8005be6:	681b      	ldr	r3, [r3, #0]
 8005be8:	689b      	ldr	r3, [r3, #8]
 8005bea:	f003 0307 	and.w	r3, r3, #7
 8005bee:	60fb      	str	r3, [r7, #12]
    if (!IS_TIM_SLAVEMODE_TRIGGER_ENABLED(tmpsmcr))
 8005bf0:	68fb      	ldr	r3, [r7, #12]
 8005bf2:	2b06      	cmp	r3, #6
 8005bf4:	d010      	beq.n	8005c18 <HAL_TIM_Base_Start_IT+0xa0>
    {
      __HAL_TIM_ENABLE(htim);
 8005bf6:	687b      	ldr	r3, [r7, #4]
 8005bf8:	681b      	ldr	r3, [r3, #0]
 8005bfa:	681a      	ldr	r2, [r3, #0]
 8005bfc:	687b      	ldr	r3, [r7, #4]
 8005bfe:	681b      	ldr	r3, [r3, #0]
 8005c00:	f042 0201 	orr.w	r2, r2, #1
 8005c04:	601a      	str	r2, [r3, #0]
    if (!IS_TIM_SLAVEMODE_TRIGGER_ENABLED(tmpsmcr))
 8005c06:	e007      	b.n	8005c18 <HAL_TIM_Base_Start_IT+0xa0>
    }
  }
  else
  {
    __HAL_TIM_ENABLE(htim);
 8005c08:	687b      	ldr	r3, [r7, #4]
 8005c0a:	681b      	ldr	r3, [r3, #0]
 8005c0c:	681a      	ldr	r2, [r3, #0]
 8005c0e:	687b      	ldr	r3, [r7, #4]
 8005c10:	681b      	ldr	r3, [r3, #0]
 8005c12:	f042 0201 	orr.w	r2, r2, #1
 8005c16:	601a      	str	r2, [r3, #0]
  }

  /* Return function status */
  return HAL_OK;
 8005c18:	2300      	movs	r3, #0
}
 8005c1a:	4618      	mov	r0, r3
 8005c1c:	3714      	adds	r7, #20
 8005c1e:	46bd      	mov	sp, r7
 8005c20:	f85d 7b04 	ldr.w	r7, [sp], #4
 8005c24:	4770      	bx	lr
 8005c26:	bf00      	nop
 8005c28:	40010000 	.word	0x40010000
 8005c2c:	40000400 	.word	0x40000400
 8005c30:	40000800 	.word	0x40000800
 8005c34:	40000c00 	.word	0x40000c00
 8005c38:	40014000 	.word	0x40014000

08005c3c <HAL_TIM_PWM_Init>:
  *         Ex: call @ref HAL_TIM_PWM_DeInit() before HAL_TIM_PWM_Init()
  * @param  htim TIM PWM handle
  * @retval HAL status
  */
HAL_StatusTypeDef HAL_TIM_PWM_Init(TIM_HandleTypeDef *htim)
{
 8005c3c:	b580      	push	{r7, lr}
 8005c3e:	b082      	sub	sp, #8
 8005c40:	af00      	add	r7, sp, #0
 8005c42:	6078      	str	r0, [r7, #4]
  /* Check the TIM handle allocation */
  if (htim == NULL)
 8005c44:	687b      	ldr	r3, [r7, #4]
 8005c46:	2b00      	cmp	r3, #0
 8005c48:	d101      	bne.n	8005c4e <HAL_TIM_PWM_Init+0x12>
  {
    return HAL_ERROR;
 8005c4a:	2301      	movs	r3, #1
 8005c4c:	e041      	b.n	8005cd2 <HAL_TIM_PWM_Init+0x96>
  assert_param(IS_TIM_INSTANCE(htim->Instance));
  assert_param(IS_TIM_COUNTER_MODE(htim->Init.CounterMode));
  assert_param(IS_TIM_CLOCKDIVISION_DIV(htim->Init.ClockDivision));
  assert_param(IS_TIM_AUTORELOAD_PRELOAD(htim->Init.AutoReloadPreload));

  if (htim->State == HAL_TIM_STATE_RESET)
 8005c4e:	687b      	ldr	r3, [r7, #4]
 8005c50:	f893 303d 	ldrb.w	r3, [r3, #61]	; 0x3d
 8005c54:	b2db      	uxtb	r3, r3
 8005c56:	2b00      	cmp	r3, #0
 8005c58:	d106      	bne.n	8005c68 <HAL_TIM_PWM_Init+0x2c>
  {
    /* Allocate lock resource and initialize it */
    htim->Lock = HAL_UNLOCKED;
 8005c5a:	687b      	ldr	r3, [r7, #4]
 8005c5c:	2200      	movs	r2, #0
 8005c5e:	f883 203c 	strb.w	r2, [r3, #60]	; 0x3c
    }
    /* Init the low level hardware : GPIO, CLOCK, NVIC */
    htim->PWM_MspInitCallback(htim);
#else
    /* Init the low level hardware : GPIO, CLOCK, NVIC and DMA */
    HAL_TIM_PWM_MspInit(htim);
 8005c62:	6878      	ldr	r0, [r7, #4]
 8005c64:	f000 f839 	bl	8005cda <HAL_TIM_PWM_MspInit>
#endif /* USE_HAL_TIM_REGISTER_CALLBACKS */
  }

  /* Set the TIM state */
  htim->State = HAL_TIM_STATE_BUSY;
 8005c68:	687b      	ldr	r3, [r7, #4]
 8005c6a:	2202      	movs	r2, #2
 8005c6c:	f883 203d 	strb.w	r2, [r3, #61]	; 0x3d

  /* Init the base time for the PWM */
  TIM_Base_SetConfig(htim->Instance, &htim->Init);
 8005c70:	687b      	ldr	r3, [r7, #4]
 8005c72:	681a      	ldr	r2, [r3, #0]
 8005c74:	687b      	ldr	r3, [r7, #4]
 8005c76:	3304      	adds	r3, #4
 8005c78:	4619      	mov	r1, r3
 8005c7a:	4610      	mov	r0, r2
 8005c7c:	f000 fe02 	bl	8006884 <TIM_Base_SetConfig>

  /* Initialize the DMA burst operation state */
  htim->DMABurstState = HAL_DMA_BURST_STATE_READY;
 8005c80:	687b      	ldr	r3, [r7, #4]
 8005c82:	2201      	movs	r2, #1
 8005c84:	f883 2046 	strb.w	r2, [r3, #70]	; 0x46

  /* Initialize the TIM channels state */
  TIM_CHANNEL_STATE_SET_ALL(htim, HAL_TIM_CHANNEL_STATE_READY);
 8005c88:	687b      	ldr	r3, [r7, #4]
 8005c8a:	2201      	movs	r2, #1
 8005c8c:	f883 203e 	strb.w	r2, [r3, #62]	; 0x3e
 8005c90:	687b      	ldr	r3, [r7, #4]
 8005c92:	2201      	movs	r2, #1
 8005c94:	f883 203f 	strb.w	r2, [r3, #63]	; 0x3f
 8005c98:	687b      	ldr	r3, [r7, #4]
 8005c9a:	2201      	movs	r2, #1
 8005c9c:	f883 2040 	strb.w	r2, [r3, #64]	; 0x40
 8005ca0:	687b      	ldr	r3, [r7, #4]
 8005ca2:	2201      	movs	r2, #1
 8005ca4:	f883 2041 	strb.w	r2, [r3, #65]	; 0x41
  TIM_CHANNEL_N_STATE_SET_ALL(htim, HAL_TIM_CHANNEL_STATE_READY);
 8005ca8:	687b      	ldr	r3, [r7, #4]
 8005caa:	2201      	movs	r2, #1
 8005cac:	f883 2042 	strb.w	r2, [r3, #66]	; 0x42
 8005cb0:	687b      	ldr	r3, [r7, #4]
 8005cb2:	2201      	movs	r2, #1
 8005cb4:	f883 2043 	strb.w	r2, [r3, #67]	; 0x43
 8005cb8:	687b      	ldr	r3, [r7, #4]
 8005cba:	2201      	movs	r2, #1
 8005cbc:	f883 2044 	strb.w	r2, [r3, #68]	; 0x44
 8005cc0:	687b      	ldr	r3, [r7, #4]
 8005cc2:	2201      	movs	r2, #1
 8005cc4:	f883 2045 	strb.w	r2, [r3, #69]	; 0x45

  /* Initialize the TIM state*/
  htim->State = HAL_TIM_STATE_READY;
 8005cc8:	687b      	ldr	r3, [r7, #4]
 8005cca:	2201      	movs	r2, #1
 8005ccc:	f883 203d 	strb.w	r2, [r3, #61]	; 0x3d

  return HAL_OK;
 8005cd0:	2300      	movs	r3, #0
}
 8005cd2:	4618      	mov	r0, r3
 8005cd4:	3708      	adds	r7, #8
 8005cd6:	46bd      	mov	sp, r7
 8005cd8:	bd80      	pop	{r7, pc}

08005cda <HAL_TIM_PWM_MspInit>:
  * @brief  Initializes the TIM PWM MSP.
  * @param  htim TIM PWM handle
  * @retval None
  */
__weak void HAL_TIM_PWM_MspInit(TIM_HandleTypeDef *htim)
{
 8005cda:	b480      	push	{r7}
 8005cdc:	b083      	sub	sp, #12
 8005cde:	af00      	add	r7, sp, #0
 8005ce0:	6078      	str	r0, [r7, #4]
  UNUSED(htim);

  /* NOTE : This function should not be modified, when the callback is needed,
            the HAL_TIM_PWM_MspInit could be implemented in the user file
   */
}
 8005ce2:	bf00      	nop
 8005ce4:	370c      	adds	r7, #12
 8005ce6:	46bd      	mov	sp, r7
 8005ce8:	f85d 7b04 	ldr.w	r7, [sp], #4
 8005cec:	4770      	bx	lr
	...

08005cf0 <HAL_TIM_PWM_Start>:
  *            @arg TIM_CHANNEL_3: TIM Channel 3 selected
  *            @arg TIM_CHANNEL_4: TIM Channel 4 selected
  * @retval HAL status
  */
HAL_StatusTypeDef HAL_TIM_PWM_Start(TIM_HandleTypeDef *htim, uint32_t Channel)
{
 8005cf0:	b580      	push	{r7, lr}
 8005cf2:	b084      	sub	sp, #16
 8005cf4:	af00      	add	r7, sp, #0
 8005cf6:	6078      	str	r0, [r7, #4]
 8005cf8:	6039      	str	r1, [r7, #0]

  /* Check the parameters */
  assert_param(IS_TIM_CCX_INSTANCE(htim->Instance, Channel));

  /* Check the TIM channel state */
  if (TIM_CHANNEL_STATE_GET(htim, Channel) != HAL_TIM_CHANNEL_STATE_READY)
 8005cfa:	683b      	ldr	r3, [r7, #0]
 8005cfc:	2b00      	cmp	r3, #0
 8005cfe:	d109      	bne.n	8005d14 <HAL_TIM_PWM_Start+0x24>
 8005d00:	687b      	ldr	r3, [r7, #4]
 8005d02:	f893 303e 	ldrb.w	r3, [r3, #62]	; 0x3e
 8005d06:	b2db      	uxtb	r3, r3
 8005d08:	2b01      	cmp	r3, #1
 8005d0a:	bf14      	ite	ne
 8005d0c:	2301      	movne	r3, #1
 8005d0e:	2300      	moveq	r3, #0
 8005d10:	b2db      	uxtb	r3, r3
 8005d12:	e022      	b.n	8005d5a <HAL_TIM_PWM_Start+0x6a>
 8005d14:	683b      	ldr	r3, [r7, #0]
 8005d16:	2b04      	cmp	r3, #4
 8005d18:	d109      	bne.n	8005d2e <HAL_TIM_PWM_Start+0x3e>
 8005d1a:	687b      	ldr	r3, [r7, #4]
 8005d1c:	f893 303f 	ldrb.w	r3, [r3, #63]	; 0x3f
 8005d20:	b2db      	uxtb	r3, r3
 8005d22:	2b01      	cmp	r3, #1
 8005d24:	bf14      	ite	ne
 8005d26:	2301      	movne	r3, #1
 8005d28:	2300      	moveq	r3, #0
 8005d2a:	b2db      	uxtb	r3, r3
 8005d2c:	e015      	b.n	8005d5a <HAL_TIM_PWM_Start+0x6a>
 8005d2e:	683b      	ldr	r3, [r7, #0]
 8005d30:	2b08      	cmp	r3, #8
 8005d32:	d109      	bne.n	8005d48 <HAL_TIM_PWM_Start+0x58>
 8005d34:	687b      	ldr	r3, [r7, #4]
 8005d36:	f893 3040 	ldrb.w	r3, [r3, #64]	; 0x40
 8005d3a:	b2db      	uxtb	r3, r3
 8005d3c:	2b01      	cmp	r3, #1
 8005d3e:	bf14      	ite	ne
 8005d40:	2301      	movne	r3, #1
 8005d42:	2300      	moveq	r3, #0
 8005d44:	b2db      	uxtb	r3, r3
 8005d46:	e008      	b.n	8005d5a <HAL_TIM_PWM_Start+0x6a>
 8005d48:	687b      	ldr	r3, [r7, #4]
 8005d4a:	f893 3041 	ldrb.w	r3, [r3, #65]	; 0x41
 8005d4e:	b2db      	uxtb	r3, r3
 8005d50:	2b01      	cmp	r3, #1
 8005d52:	bf14      	ite	ne
 8005d54:	2301      	movne	r3, #1
 8005d56:	2300      	moveq	r3, #0
 8005d58:	b2db      	uxtb	r3, r3
 8005d5a:	2b00      	cmp	r3, #0
 8005d5c:	d001      	beq.n	8005d62 <HAL_TIM_PWM_Start+0x72>
  {
    return HAL_ERROR;
 8005d5e:	2301      	movs	r3, #1
 8005d60:	e068      	b.n	8005e34 <HAL_TIM_PWM_Start+0x144>
  }

  /* Set the TIM channel state */
  TIM_CHANNEL_STATE_SET(htim, Channel, HAL_TIM_CHANNEL_STATE_BUSY);
 8005d62:	683b      	ldr	r3, [r7, #0]
 8005d64:	2b00      	cmp	r3, #0
 8005d66:	d104      	bne.n	8005d72 <HAL_TIM_PWM_Start+0x82>
 8005d68:	687b      	ldr	r3, [r7, #4]
 8005d6a:	2202      	movs	r2, #2
 8005d6c:	f883 203e 	strb.w	r2, [r3, #62]	; 0x3e
 8005d70:	e013      	b.n	8005d9a <HAL_TIM_PWM_Start+0xaa>
 8005d72:	683b      	ldr	r3, [r7, #0]
 8005d74:	2b04      	cmp	r3, #4
 8005d76:	d104      	bne.n	8005d82 <HAL_TIM_PWM_Start+0x92>
 8005d78:	687b      	ldr	r3, [r7, #4]
 8005d7a:	2202      	movs	r2, #2
 8005d7c:	f883 203f 	strb.w	r2, [r3, #63]	; 0x3f
 8005d80:	e00b      	b.n	8005d9a <HAL_TIM_PWM_Start+0xaa>
 8005d82:	683b      	ldr	r3, [r7, #0]
 8005d84:	2b08      	cmp	r3, #8
 8005d86:	d104      	bne.n	8005d92 <HAL_TIM_PWM_Start+0xa2>
 8005d88:	687b      	ldr	r3, [r7, #4]
 8005d8a:	2202      	movs	r2, #2
 8005d8c:	f883 2040 	strb.w	r2, [r3, #64]	; 0x40
 8005d90:	e003      	b.n	8005d9a <HAL_TIM_PWM_Start+0xaa>
 8005d92:	687b      	ldr	r3, [r7, #4]
 8005d94:	2202      	movs	r2, #2
 8005d96:	f883 2041 	strb.w	r2, [r3, #65]	; 0x41

  /* Enable the Capture compare channel */
  TIM_CCxChannelCmd(htim->Instance, Channel, TIM_CCx_ENABLE);
 8005d9a:	687b      	ldr	r3, [r7, #4]
 8005d9c:	681b      	ldr	r3, [r3, #0]
 8005d9e:	2201      	movs	r2, #1
 8005da0:	6839      	ldr	r1, [r7, #0]
 8005da2:	4618      	mov	r0, r3
 8005da4:	f001 f932 	bl	800700c <TIM_CCxChannelCmd>

  if (IS_TIM_BREAK_INSTANCE(htim->Instance) != RESET)
 8005da8:	687b      	ldr	r3, [r7, #4]
 8005daa:	681b      	ldr	r3, [r3, #0]
 8005dac:	4a23      	ldr	r2, [pc, #140]	; (8005e3c <HAL_TIM_PWM_Start+0x14c>)
 8005dae:	4293      	cmp	r3, r2
 8005db0:	d107      	bne.n	8005dc2 <HAL_TIM_PWM_Start+0xd2>
  {
    /* Enable the main output */
    __HAL_TIM_MOE_ENABLE(htim);
 8005db2:	687b      	ldr	r3, [r7, #4]
 8005db4:	681b      	ldr	r3, [r3, #0]
 8005db6:	6c5a      	ldr	r2, [r3, #68]	; 0x44
 8005db8:	687b      	ldr	r3, [r7, #4]
 8005dba:	681b      	ldr	r3, [r3, #0]
 8005dbc:	f442 4200 	orr.w	r2, r2, #32768	; 0x8000
 8005dc0:	645a      	str	r2, [r3, #68]	; 0x44
  }

  /* Enable the Peripheral, except in trigger mode where enable is automatically done with trigger */
  if (IS_TIM_SLAVE_INSTANCE(htim->Instance))
 8005dc2:	687b      	ldr	r3, [r7, #4]
 8005dc4:	681b      	ldr	r3, [r3, #0]
 8005dc6:	4a1d      	ldr	r2, [pc, #116]	; (8005e3c <HAL_TIM_PWM_Start+0x14c>)
 8005dc8:	4293      	cmp	r3, r2
 8005dca:	d018      	beq.n	8005dfe <HAL_TIM_PWM_Start+0x10e>
 8005dcc:	687b      	ldr	r3, [r7, #4]
 8005dce:	681b      	ldr	r3, [r3, #0]
 8005dd0:	f1b3 4f80 	cmp.w	r3, #1073741824	; 0x40000000
 8005dd4:	d013      	beq.n	8005dfe <HAL_TIM_PWM_Start+0x10e>
 8005dd6:	687b      	ldr	r3, [r7, #4]
 8005dd8:	681b      	ldr	r3, [r3, #0]
 8005dda:	4a19      	ldr	r2, [pc, #100]	; (8005e40 <HAL_TIM_PWM_Start+0x150>)
 8005ddc:	4293      	cmp	r3, r2
 8005dde:	d00e      	beq.n	8005dfe <HAL_TIM_PWM_Start+0x10e>
 8005de0:	687b      	ldr	r3, [r7, #4]
 8005de2:	681b      	ldr	r3, [r3, #0]
 8005de4:	4a17      	ldr	r2, [pc, #92]	; (8005e44 <HAL_TIM_PWM_Start+0x154>)
 8005de6:	4293      	cmp	r3, r2
 8005de8:	d009      	beq.n	8005dfe <HAL_TIM_PWM_Start+0x10e>
 8005dea:	687b      	ldr	r3, [r7, #4]
 8005dec:	681b      	ldr	r3, [r3, #0]
 8005dee:	4a16      	ldr	r2, [pc, #88]	; (8005e48 <HAL_TIM_PWM_Start+0x158>)
 8005df0:	4293      	cmp	r3, r2
 8005df2:	d004      	beq.n	8005dfe <HAL_TIM_PWM_Start+0x10e>
 8005df4:	687b      	ldr	r3, [r7, #4]
 8005df6:	681b      	ldr	r3, [r3, #0]
 8005df8:	4a14      	ldr	r2, [pc, #80]	; (8005e4c <HAL_TIM_PWM_Start+0x15c>)
 8005dfa:	4293      	cmp	r3, r2
 8005dfc:	d111      	bne.n	8005e22 <HAL_TIM_PWM_Start+0x132>
  {
    tmpsmcr = htim->Instance->SMCR & TIM_SMCR_SMS;
 8005dfe:	687b      	ldr	r3, [r7, #4]
 8005e00:	681b      	ldr	r3, [r3, #0]
 8005e02:	689b      	ldr	r3, [r3, #8]
 8005e04:	f003 0307 	and.w	r3, r3, #7
 8005e08:	60fb      	str	r3, [r7, #12]
    if (!IS_TIM_SLAVEMODE_TRIGGER_ENABLED(tmpsmcr))
 8005e0a:	68fb      	ldr	r3, [r7, #12]
 8005e0c:	2b06      	cmp	r3, #6
 8005e0e:	d010      	beq.n	8005e32 <HAL_TIM_PWM_Start+0x142>
    {
      __HAL_TIM_ENABLE(htim);
 8005e10:	687b      	ldr	r3, [r7, #4]
 8005e12:	681b      	ldr	r3, [r3, #0]
 8005e14:	681a      	ldr	r2, [r3, #0]
 8005e16:	687b      	ldr	r3, [r7, #4]
 8005e18:	681b      	ldr	r3, [r3, #0]
 8005e1a:	f042 0201 	orr.w	r2, r2, #1
 8005e1e:	601a      	str	r2, [r3, #0]
    if (!IS_TIM_SLAVEMODE_TRIGGER_ENABLED(tmpsmcr))
 8005e20:	e007      	b.n	8005e32 <HAL_TIM_PWM_Start+0x142>
    }
  }
  else
  {
    __HAL_TIM_ENABLE(htim);
 8005e22:	687b      	ldr	r3, [r7, #4]
 8005e24:	681b      	ldr	r3, [r3, #0]
 8005e26:	681a      	ldr	r2, [r3, #0]
 8005e28:	687b      	ldr	r3, [r7, #4]
 8005e2a:	681b      	ldr	r3, [r3, #0]
 8005e2c:	f042 0201 	orr.w	r2, r2, #1
 8005e30:	601a      	str	r2, [r3, #0]
  }

  /* Return function status */
  return HAL_OK;
 8005e32:	2300      	movs	r3, #0
}
 8005e34:	4618      	mov	r0, r3
 8005e36:	3710      	adds	r7, #16
 8005e38:	46bd      	mov	sp, r7
 8005e3a:	bd80      	pop	{r7, pc}
 8005e3c:	40010000 	.word	0x40010000
 8005e40:	40000400 	.word	0x40000400
 8005e44:	40000800 	.word	0x40000800
 8005e48:	40000c00 	.word	0x40000c00
 8005e4c:	40014000 	.word	0x40014000

08005e50 <HAL_TIM_IC_Init>:
  *         Ex: call @ref HAL_TIM_IC_DeInit() before HAL_TIM_IC_Init()
  * @param  htim TIM Input Capture handle
  * @retval HAL status
  */
HAL_StatusTypeDef HAL_TIM_IC_Init(TIM_HandleTypeDef *htim)
{
 8005e50:	b580      	push	{r7, lr}
 8005e52:	b082      	sub	sp, #8
 8005e54:	af00      	add	r7, sp, #0
 8005e56:	6078      	str	r0, [r7, #4]
  /* Check the TIM handle allocation */
  if (htim == NULL)
 8005e58:	687b      	ldr	r3, [r7, #4]
 8005e5a:	2b00      	cmp	r3, #0
 8005e5c:	d101      	bne.n	8005e62 <HAL_TIM_IC_Init+0x12>
  {
    return HAL_ERROR;
 8005e5e:	2301      	movs	r3, #1
 8005e60:	e041      	b.n	8005ee6 <HAL_TIM_IC_Init+0x96>
  assert_param(IS_TIM_INSTANCE(htim->Instance));
  assert_param(IS_TIM_COUNTER_MODE(htim->Init.CounterMode));
  assert_param(IS_TIM_CLOCKDIVISION_DIV(htim->Init.ClockDivision));
  assert_param(IS_TIM_AUTORELOAD_PRELOAD(htim->Init.AutoReloadPreload));

  if (htim->State == HAL_TIM_STATE_RESET)
 8005e62:	687b      	ldr	r3, [r7, #4]
 8005e64:	f893 303d 	ldrb.w	r3, [r3, #61]	; 0x3d
 8005e68:	b2db      	uxtb	r3, r3
 8005e6a:	2b00      	cmp	r3, #0
 8005e6c:	d106      	bne.n	8005e7c <HAL_TIM_IC_Init+0x2c>
  {
    /* Allocate lock resource and initialize it */
    htim->Lock = HAL_UNLOCKED;
 8005e6e:	687b      	ldr	r3, [r7, #4]
 8005e70:	2200      	movs	r2, #0
 8005e72:	f883 203c 	strb.w	r2, [r3, #60]	; 0x3c
    }
    /* Init the low level hardware : GPIO, CLOCK, NVIC */
    htim->IC_MspInitCallback(htim);
#else
    /* Init the low level hardware : GPIO, CLOCK, NVIC and DMA */
    HAL_TIM_IC_MspInit(htim);
 8005e76:	6878      	ldr	r0, [r7, #4]
 8005e78:	f000 f839 	bl	8005eee <HAL_TIM_IC_MspInit>
#endif /* USE_HAL_TIM_REGISTER_CALLBACKS */
  }

  /* Set the TIM state */
  htim->State = HAL_TIM_STATE_BUSY;
 8005e7c:	687b      	ldr	r3, [r7, #4]
 8005e7e:	2202      	movs	r2, #2
 8005e80:	f883 203d 	strb.w	r2, [r3, #61]	; 0x3d

  /* Init the base time for the input capture */
  TIM_Base_SetConfig(htim->Instance, &htim->Init);
 8005e84:	687b      	ldr	r3, [r7, #4]
 8005e86:	681a      	ldr	r2, [r3, #0]
 8005e88:	687b      	ldr	r3, [r7, #4]
 8005e8a:	3304      	adds	r3, #4
 8005e8c:	4619      	mov	r1, r3
 8005e8e:	4610      	mov	r0, r2
 8005e90:	f000 fcf8 	bl	8006884 <TIM_Base_SetConfig>

  /* Initialize the DMA burst operation state */
  htim->DMABurstState = HAL_DMA_BURST_STATE_READY;
 8005e94:	687b      	ldr	r3, [r7, #4]
 8005e96:	2201      	movs	r2, #1
 8005e98:	f883 2046 	strb.w	r2, [r3, #70]	; 0x46

  /* Initialize the TIM channels state */
  TIM_CHANNEL_STATE_SET_ALL(htim, HAL_TIM_CHANNEL_STATE_READY);
 8005e9c:	687b      	ldr	r3, [r7, #4]
 8005e9e:	2201      	movs	r2, #1
 8005ea0:	f883 203e 	strb.w	r2, [r3, #62]	; 0x3e
 8005ea4:	687b      	ldr	r3, [r7, #4]
 8005ea6:	2201      	movs	r2, #1
 8005ea8:	f883 203f 	strb.w	r2, [r3, #63]	; 0x3f
 8005eac:	687b      	ldr	r3, [r7, #4]
 8005eae:	2201      	movs	r2, #1
 8005eb0:	f883 2040 	strb.w	r2, [r3, #64]	; 0x40
 8005eb4:	687b      	ldr	r3, [r7, #4]
 8005eb6:	2201      	movs	r2, #1
 8005eb8:	f883 2041 	strb.w	r2, [r3, #65]	; 0x41
  TIM_CHANNEL_N_STATE_SET_ALL(htim, HAL_TIM_CHANNEL_STATE_READY);
 8005ebc:	687b      	ldr	r3, [r7, #4]
 8005ebe:	2201      	movs	r2, #1
 8005ec0:	f883 2042 	strb.w	r2, [r3, #66]	; 0x42
 8005ec4:	687b      	ldr	r3, [r7, #4]
 8005ec6:	2201      	movs	r2, #1
 8005ec8:	f883 2043 	strb.w	r2, [r3, #67]	; 0x43
 8005ecc:	687b      	ldr	r3, [r7, #4]
 8005ece:	2201      	movs	r2, #1
 8005ed0:	f883 2044 	strb.w	r2, [r3, #68]	; 0x44
 8005ed4:	687b      	ldr	r3, [r7, #4]
 8005ed6:	2201      	movs	r2, #1
 8005ed8:	f883 2045 	strb.w	r2, [r3, #69]	; 0x45

  /* Initialize the TIM state*/
  htim->State = HAL_TIM_STATE_READY;
 8005edc:	687b      	ldr	r3, [r7, #4]
 8005ede:	2201      	movs	r2, #1
 8005ee0:	f883 203d 	strb.w	r2, [r3, #61]	; 0x3d

  return HAL_OK;
 8005ee4:	2300      	movs	r3, #0
}
 8005ee6:	4618      	mov	r0, r3
 8005ee8:	3708      	adds	r7, #8
 8005eea:	46bd      	mov	sp, r7
 8005eec:	bd80      	pop	{r7, pc}

08005eee <HAL_TIM_IC_MspInit>:
  * @brief  Initializes the TIM Input Capture MSP.
  * @param  htim TIM Input Capture handle
  * @retval None
  */
__weak void HAL_TIM_IC_MspInit(TIM_HandleTypeDef *htim)
{
 8005eee:	b480      	push	{r7}
 8005ef0:	b083      	sub	sp, #12
 8005ef2:	af00      	add	r7, sp, #0
 8005ef4:	6078      	str	r0, [r7, #4]
  UNUSED(htim);

  /* NOTE : This function should not be modified, when the callback is needed,
            the HAL_TIM_IC_MspInit could be implemented in the user file
   */
}
 8005ef6:	bf00      	nop
 8005ef8:	370c      	adds	r7, #12
 8005efa:	46bd      	mov	sp, r7
 8005efc:	f85d 7b04 	ldr.w	r7, [sp], #4
 8005f00:	4770      	bx	lr
	...

08005f04 <HAL_TIM_IC_Start_DMA>:
  * @param  pData The destination Buffer address.
  * @param  Length The length of data to be transferred from TIM peripheral to memory.
  * @retval HAL status
  */
HAL_StatusTypeDef HAL_TIM_IC_Start_DMA(TIM_HandleTypeDef *htim, uint32_t Channel, uint32_t *pData, uint16_t Length)
{
 8005f04:	b580      	push	{r7, lr}
 8005f06:	b086      	sub	sp, #24
 8005f08:	af00      	add	r7, sp, #0
 8005f0a:	60f8      	str	r0, [r7, #12]
 8005f0c:	60b9      	str	r1, [r7, #8]
 8005f0e:	607a      	str	r2, [r7, #4]
 8005f10:	807b      	strh	r3, [r7, #2]
  HAL_StatusTypeDef status = HAL_OK;
 8005f12:	2300      	movs	r3, #0
 8005f14:	75fb      	strb	r3, [r7, #23]
  uint32_t tmpsmcr;

  HAL_TIM_ChannelStateTypeDef channel_state = TIM_CHANNEL_STATE_GET(htim, Channel);
 8005f16:	68bb      	ldr	r3, [r7, #8]
 8005f18:	2b00      	cmp	r3, #0
 8005f1a:	d104      	bne.n	8005f26 <HAL_TIM_IC_Start_DMA+0x22>
 8005f1c:	68fb      	ldr	r3, [r7, #12]
 8005f1e:	f893 303e 	ldrb.w	r3, [r3, #62]	; 0x3e
 8005f22:	b2db      	uxtb	r3, r3
 8005f24:	e013      	b.n	8005f4e <HAL_TIM_IC_Start_DMA+0x4a>
 8005f26:	68bb      	ldr	r3, [r7, #8]
 8005f28:	2b04      	cmp	r3, #4
 8005f2a:	d104      	bne.n	8005f36 <HAL_TIM_IC_Start_DMA+0x32>
 8005f2c:	68fb      	ldr	r3, [r7, #12]
 8005f2e:	f893 303f 	ldrb.w	r3, [r3, #63]	; 0x3f
 8005f32:	b2db      	uxtb	r3, r3
 8005f34:	e00b      	b.n	8005f4e <HAL_TIM_IC_Start_DMA+0x4a>
 8005f36:	68bb      	ldr	r3, [r7, #8]
 8005f38:	2b08      	cmp	r3, #8
 8005f3a:	d104      	bne.n	8005f46 <HAL_TIM_IC_Start_DMA+0x42>
 8005f3c:	68fb      	ldr	r3, [r7, #12]
 8005f3e:	f893 3040 	ldrb.w	r3, [r3, #64]	; 0x40
 8005f42:	b2db      	uxtb	r3, r3
 8005f44:	e003      	b.n	8005f4e <HAL_TIM_IC_Start_DMA+0x4a>
 8005f46:	68fb      	ldr	r3, [r7, #12]
 8005f48:	f893 3041 	ldrb.w	r3, [r3, #65]	; 0x41
 8005f4c:	b2db      	uxtb	r3, r3
 8005f4e:	75bb      	strb	r3, [r7, #22]
  HAL_TIM_ChannelStateTypeDef complementary_channel_state = TIM_CHANNEL_N_STATE_GET(htim, Channel);
 8005f50:	68bb      	ldr	r3, [r7, #8]
 8005f52:	2b00      	cmp	r3, #0
 8005f54:	d104      	bne.n	8005f60 <HAL_TIM_IC_Start_DMA+0x5c>
 8005f56:	68fb      	ldr	r3, [r7, #12]
 8005f58:	f893 3042 	ldrb.w	r3, [r3, #66]	; 0x42
 8005f5c:	b2db      	uxtb	r3, r3
 8005f5e:	e013      	b.n	8005f88 <HAL_TIM_IC_Start_DMA+0x84>
 8005f60:	68bb      	ldr	r3, [r7, #8]
 8005f62:	2b04      	cmp	r3, #4
 8005f64:	d104      	bne.n	8005f70 <HAL_TIM_IC_Start_DMA+0x6c>
 8005f66:	68fb      	ldr	r3, [r7, #12]
 8005f68:	f893 3043 	ldrb.w	r3, [r3, #67]	; 0x43
 8005f6c:	b2db      	uxtb	r3, r3
 8005f6e:	e00b      	b.n	8005f88 <HAL_TIM_IC_Start_DMA+0x84>
 8005f70:	68bb      	ldr	r3, [r7, #8]
 8005f72:	2b08      	cmp	r3, #8
 8005f74:	d104      	bne.n	8005f80 <HAL_TIM_IC_Start_DMA+0x7c>
 8005f76:	68fb      	ldr	r3, [r7, #12]
 8005f78:	f893 3044 	ldrb.w	r3, [r3, #68]	; 0x44
 8005f7c:	b2db      	uxtb	r3, r3
 8005f7e:	e003      	b.n	8005f88 <HAL_TIM_IC_Start_DMA+0x84>
 8005f80:	68fb      	ldr	r3, [r7, #12]
 8005f82:	f893 3045 	ldrb.w	r3, [r3, #69]	; 0x45
 8005f86:	b2db      	uxtb	r3, r3
 8005f88:	757b      	strb	r3, [r7, #21]
  /* Check the parameters */
  assert_param(IS_TIM_CCX_INSTANCE(htim->Instance, Channel));
  assert_param(IS_TIM_DMA_CC_INSTANCE(htim->Instance));

  /* Set the TIM channel state */
  if ((channel_state == HAL_TIM_CHANNEL_STATE_BUSY)
 8005f8a:	7dbb      	ldrb	r3, [r7, #22]
 8005f8c:	2b02      	cmp	r3, #2
 8005f8e:	d002      	beq.n	8005f96 <HAL_TIM_IC_Start_DMA+0x92>
      || (complementary_channel_state == HAL_TIM_CHANNEL_STATE_BUSY))
 8005f90:	7d7b      	ldrb	r3, [r7, #21]
 8005f92:	2b02      	cmp	r3, #2
 8005f94:	d101      	bne.n	8005f9a <HAL_TIM_IC_Start_DMA+0x96>
  {
    return HAL_BUSY;
 8005f96:	2302      	movs	r3, #2
 8005f98:	e13c      	b.n	8006214 <HAL_TIM_IC_Start_DMA+0x310>
  }
  else if ((channel_state == HAL_TIM_CHANNEL_STATE_READY)
 8005f9a:	7dbb      	ldrb	r3, [r7, #22]
 8005f9c:	2b01      	cmp	r3, #1
 8005f9e:	d143      	bne.n	8006028 <HAL_TIM_IC_Start_DMA+0x124>
           && (complementary_channel_state == HAL_TIM_CHANNEL_STATE_READY))
 8005fa0:	7d7b      	ldrb	r3, [r7, #21]
 8005fa2:	2b01      	cmp	r3, #1
 8005fa4:	d140      	bne.n	8006028 <HAL_TIM_IC_Start_DMA+0x124>
  {
    if ((pData == NULL) && (Length > 0U))
 8005fa6:	687b      	ldr	r3, [r7, #4]
 8005fa8:	2b00      	cmp	r3, #0
 8005faa:	d104      	bne.n	8005fb6 <HAL_TIM_IC_Start_DMA+0xb2>
 8005fac:	887b      	ldrh	r3, [r7, #2]
 8005fae:	2b00      	cmp	r3, #0
 8005fb0:	d001      	beq.n	8005fb6 <HAL_TIM_IC_Start_DMA+0xb2>
    {
      return HAL_ERROR;
 8005fb2:	2301      	movs	r3, #1
 8005fb4:	e12e      	b.n	8006214 <HAL_TIM_IC_Start_DMA+0x310>
    }
    else
    {
      TIM_CHANNEL_STATE_SET(htim, Channel, HAL_TIM_CHANNEL_STATE_BUSY);
 8005fb6:	68bb      	ldr	r3, [r7, #8]
 8005fb8:	2b00      	cmp	r3, #0
 8005fba:	d104      	bne.n	8005fc6 <HAL_TIM_IC_Start_DMA+0xc2>
 8005fbc:	68fb      	ldr	r3, [r7, #12]
 8005fbe:	2202      	movs	r2, #2
 8005fc0:	f883 203e 	strb.w	r2, [r3, #62]	; 0x3e
 8005fc4:	e013      	b.n	8005fee <HAL_TIM_IC_Start_DMA+0xea>
 8005fc6:	68bb      	ldr	r3, [r7, #8]
 8005fc8:	2b04      	cmp	r3, #4
 8005fca:	d104      	bne.n	8005fd6 <HAL_TIM_IC_Start_DMA+0xd2>
 8005fcc:	68fb      	ldr	r3, [r7, #12]
 8005fce:	2202      	movs	r2, #2
 8005fd0:	f883 203f 	strb.w	r2, [r3, #63]	; 0x3f
 8005fd4:	e00b      	b.n	8005fee <HAL_TIM_IC_Start_DMA+0xea>
 8005fd6:	68bb      	ldr	r3, [r7, #8]
 8005fd8:	2b08      	cmp	r3, #8
 8005fda:	d104      	bne.n	8005fe6 <HAL_TIM_IC_Start_DMA+0xe2>
 8005fdc:	68fb      	ldr	r3, [r7, #12]
 8005fde:	2202      	movs	r2, #2
 8005fe0:	f883 2040 	strb.w	r2, [r3, #64]	; 0x40
 8005fe4:	e003      	b.n	8005fee <HAL_TIM_IC_Start_DMA+0xea>
 8005fe6:	68fb      	ldr	r3, [r7, #12]
 8005fe8:	2202      	movs	r2, #2
 8005fea:	f883 2041 	strb.w	r2, [r3, #65]	; 0x41
      TIM_CHANNEL_N_STATE_SET(htim, Channel, HAL_TIM_CHANNEL_STATE_BUSY);
 8005fee:	68bb      	ldr	r3, [r7, #8]
 8005ff0:	2b00      	cmp	r3, #0
 8005ff2:	d104      	bne.n	8005ffe <HAL_TIM_IC_Start_DMA+0xfa>
 8005ff4:	68fb      	ldr	r3, [r7, #12]
 8005ff6:	2202      	movs	r2, #2
 8005ff8:	f883 2042 	strb.w	r2, [r3, #66]	; 0x42
    if ((pData == NULL) && (Length > 0U))
 8005ffc:	e016      	b.n	800602c <HAL_TIM_IC_Start_DMA+0x128>
      TIM_CHANNEL_N_STATE_SET(htim, Channel, HAL_TIM_CHANNEL_STATE_BUSY);
 8005ffe:	68bb      	ldr	r3, [r7, #8]
 8006000:	2b04      	cmp	r3, #4
 8006002:	d104      	bne.n	800600e <HAL_TIM_IC_Start_DMA+0x10a>
 8006004:	68fb      	ldr	r3, [r7, #12]
 8006006:	2202      	movs	r2, #2
 8006008:	f883 2043 	strb.w	r2, [r3, #67]	; 0x43
    if ((pData == NULL) && (Length > 0U))
 800600c:	e00e      	b.n	800602c <HAL_TIM_IC_Start_DMA+0x128>
      TIM_CHANNEL_N_STATE_SET(htim, Channel, HAL_TIM_CHANNEL_STATE_BUSY);
 800600e:	68bb      	ldr	r3, [r7, #8]
 8006010:	2b08      	cmp	r3, #8
 8006012:	d104      	bne.n	800601e <HAL_TIM_IC_Start_DMA+0x11a>
 8006014:	68fb      	ldr	r3, [r7, #12]
 8006016:	2202      	movs	r2, #2
 8006018:	f883 2044 	strb.w	r2, [r3, #68]	; 0x44
    if ((pData == NULL) && (Length > 0U))
 800601c:	e006      	b.n	800602c <HAL_TIM_IC_Start_DMA+0x128>
      TIM_CHANNEL_N_STATE_SET(htim, Channel, HAL_TIM_CHANNEL_STATE_BUSY);
 800601e:	68fb      	ldr	r3, [r7, #12]
 8006020:	2202      	movs	r2, #2
 8006022:	f883 2045 	strb.w	r2, [r3, #69]	; 0x45
    if ((pData == NULL) && (Length > 0U))
 8006026:	e001      	b.n	800602c <HAL_TIM_IC_Start_DMA+0x128>
    }
  }
  else
  {
    return HAL_ERROR;
 8006028:	2301      	movs	r3, #1
 800602a:	e0f3      	b.n	8006214 <HAL_TIM_IC_Start_DMA+0x310>
  }

  /* Enable the Input Capture channel */
  TIM_CCxChannelCmd(htim->Instance, Channel, TIM_CCx_ENABLE);
 800602c:	68fb      	ldr	r3, [r7, #12]
 800602e:	681b      	ldr	r3, [r3, #0]
 8006030:	2201      	movs	r2, #1
 8006032:	68b9      	ldr	r1, [r7, #8]
 8006034:	4618      	mov	r0, r3
 8006036:	f000 ffe9 	bl	800700c <TIM_CCxChannelCmd>
 800603a:	68bb      	ldr	r3, [r7, #8]
 800603c:	2b0c      	cmp	r3, #12
 800603e:	f200 80ad 	bhi.w	800619c <HAL_TIM_IC_Start_DMA+0x298>
 8006042:	a201      	add	r2, pc, #4	; (adr r2, 8006048 <HAL_TIM_IC_Start_DMA+0x144>)
 8006044:	f852 f023 	ldr.w	pc, [r2, r3, lsl #2]
 8006048:	0800607d 	.word	0x0800607d
 800604c:	0800619d 	.word	0x0800619d
 8006050:	0800619d 	.word	0x0800619d
 8006054:	0800619d 	.word	0x0800619d
 8006058:	080060c5 	.word	0x080060c5
 800605c:	0800619d 	.word	0x0800619d
 8006060:	0800619d 	.word	0x0800619d
 8006064:	0800619d 	.word	0x0800619d
 8006068:	0800610d 	.word	0x0800610d
 800606c:	0800619d 	.word	0x0800619d
 8006070:	0800619d 	.word	0x0800619d
 8006074:	0800619d 	.word	0x0800619d
 8006078:	08006155 	.word	0x08006155
  switch (Channel)
  {
    case TIM_CHANNEL_1:
    {
      /* Set the DMA capture callbacks */
      htim->hdma[TIM_DMA_ID_CC1]->XferCpltCallback = TIM_DMACaptureCplt;
 800607c:	68fb      	ldr	r3, [r7, #12]
 800607e:	6a5b      	ldr	r3, [r3, #36]	; 0x24
 8006080:	4a66      	ldr	r2, [pc, #408]	; (800621c <HAL_TIM_IC_Start_DMA+0x318>)
 8006082:	63da      	str	r2, [r3, #60]	; 0x3c
      htim->hdma[TIM_DMA_ID_CC1]->XferHalfCpltCallback = TIM_DMACaptureHalfCplt;
 8006084:	68fb      	ldr	r3, [r7, #12]
 8006086:	6a5b      	ldr	r3, [r3, #36]	; 0x24
 8006088:	4a65      	ldr	r2, [pc, #404]	; (8006220 <HAL_TIM_IC_Start_DMA+0x31c>)
 800608a:	641a      	str	r2, [r3, #64]	; 0x40

      /* Set the DMA error callback */
      htim->hdma[TIM_DMA_ID_CC1]->XferErrorCallback = TIM_DMAError ;
 800608c:	68fb      	ldr	r3, [r7, #12]
 800608e:	6a5b      	ldr	r3, [r3, #36]	; 0x24
 8006090:	4a64      	ldr	r2, [pc, #400]	; (8006224 <HAL_TIM_IC_Start_DMA+0x320>)
 8006092:	64da      	str	r2, [r3, #76]	; 0x4c

      /* Enable the DMA stream */
      if (HAL_DMA_Start_IT(htim->hdma[TIM_DMA_ID_CC1], (uint32_t)&htim->Instance->CCR1, (uint32_t)pData,
 8006094:	68fb      	ldr	r3, [r7, #12]
 8006096:	6a58      	ldr	r0, [r3, #36]	; 0x24
 8006098:	68fb      	ldr	r3, [r7, #12]
 800609a:	681b      	ldr	r3, [r3, #0]
 800609c:	3334      	adds	r3, #52	; 0x34
 800609e:	4619      	mov	r1, r3
 80060a0:	687a      	ldr	r2, [r7, #4]
 80060a2:	887b      	ldrh	r3, [r7, #2]
 80060a4:	f7fb ff2a 	bl	8001efc <HAL_DMA_Start_IT>
 80060a8:	4603      	mov	r3, r0
 80060aa:	2b00      	cmp	r3, #0
 80060ac:	d001      	beq.n	80060b2 <HAL_TIM_IC_Start_DMA+0x1ae>
                           Length) != HAL_OK)
      {
        /* Return error status */
        return HAL_ERROR;
 80060ae:	2301      	movs	r3, #1
 80060b0:	e0b0      	b.n	8006214 <HAL_TIM_IC_Start_DMA+0x310>
      }
      /* Enable the TIM Capture/Compare 1 DMA request */
      __HAL_TIM_ENABLE_DMA(htim, TIM_DMA_CC1);
 80060b2:	68fb      	ldr	r3, [r7, #12]
 80060b4:	681b      	ldr	r3, [r3, #0]
 80060b6:	68da      	ldr	r2, [r3, #12]
 80060b8:	68fb      	ldr	r3, [r7, #12]
 80060ba:	681b      	ldr	r3, [r3, #0]
 80060bc:	f442 7200 	orr.w	r2, r2, #512	; 0x200
 80060c0:	60da      	str	r2, [r3, #12]
      break;
 80060c2:	e06e      	b.n	80061a2 <HAL_TIM_IC_Start_DMA+0x29e>
    }

    case TIM_CHANNEL_2:
    {
      /* Set the DMA capture callbacks */
      htim->hdma[TIM_DMA_ID_CC2]->XferCpltCallback = TIM_DMACaptureCplt;
 80060c4:	68fb      	ldr	r3, [r7, #12]
 80060c6:	6a9b      	ldr	r3, [r3, #40]	; 0x28
 80060c8:	4a54      	ldr	r2, [pc, #336]	; (800621c <HAL_TIM_IC_Start_DMA+0x318>)
 80060ca:	63da      	str	r2, [r3, #60]	; 0x3c
      htim->hdma[TIM_DMA_ID_CC2]->XferHalfCpltCallback = TIM_DMACaptureHalfCplt;
 80060cc:	68fb      	ldr	r3, [r7, #12]
 80060ce:	6a9b      	ldr	r3, [r3, #40]	; 0x28
 80060d0:	4a53      	ldr	r2, [pc, #332]	; (8006220 <HAL_TIM_IC_Start_DMA+0x31c>)
 80060d2:	641a      	str	r2, [r3, #64]	; 0x40

      /* Set the DMA error callback */
      htim->hdma[TIM_DMA_ID_CC2]->XferErrorCallback = TIM_DMAError ;
 80060d4:	68fb      	ldr	r3, [r7, #12]
 80060d6:	6a9b      	ldr	r3, [r3, #40]	; 0x28
 80060d8:	4a52      	ldr	r2, [pc, #328]	; (8006224 <HAL_TIM_IC_Start_DMA+0x320>)
 80060da:	64da      	str	r2, [r3, #76]	; 0x4c

      /* Enable the DMA stream */
      if (HAL_DMA_Start_IT(htim->hdma[TIM_DMA_ID_CC2], (uint32_t)&htim->Instance->CCR2, (uint32_t)pData,
 80060dc:	68fb      	ldr	r3, [r7, #12]
 80060de:	6a98      	ldr	r0, [r3, #40]	; 0x28
 80060e0:	68fb      	ldr	r3, [r7, #12]
 80060e2:	681b      	ldr	r3, [r3, #0]
 80060e4:	3338      	adds	r3, #56	; 0x38
 80060e6:	4619      	mov	r1, r3
 80060e8:	687a      	ldr	r2, [r7, #4]
 80060ea:	887b      	ldrh	r3, [r7, #2]
 80060ec:	f7fb ff06 	bl	8001efc <HAL_DMA_Start_IT>
 80060f0:	4603      	mov	r3, r0
 80060f2:	2b00      	cmp	r3, #0
 80060f4:	d001      	beq.n	80060fa <HAL_TIM_IC_Start_DMA+0x1f6>
                           Length) != HAL_OK)
      {
        /* Return error status */
        return HAL_ERROR;
 80060f6:	2301      	movs	r3, #1
 80060f8:	e08c      	b.n	8006214 <HAL_TIM_IC_Start_DMA+0x310>
      }
      /* Enable the TIM Capture/Compare 2  DMA request */
      __HAL_TIM_ENABLE_DMA(htim, TIM_DMA_CC2);
 80060fa:	68fb      	ldr	r3, [r7, #12]
 80060fc:	681b      	ldr	r3, [r3, #0]
 80060fe:	68da      	ldr	r2, [r3, #12]
 8006100:	68fb      	ldr	r3, [r7, #12]
 8006102:	681b      	ldr	r3, [r3, #0]
 8006104:	f442 6280 	orr.w	r2, r2, #1024	; 0x400
 8006108:	60da      	str	r2, [r3, #12]
      break;
 800610a:	e04a      	b.n	80061a2 <HAL_TIM_IC_Start_DMA+0x29e>
    }

    case TIM_CHANNEL_3:
    {
      /* Set the DMA capture callbacks */
      htim->hdma[TIM_DMA_ID_CC3]->XferCpltCallback = TIM_DMACaptureCplt;
 800610c:	68fb      	ldr	r3, [r7, #12]
 800610e:	6adb      	ldr	r3, [r3, #44]	; 0x2c
 8006110:	4a42      	ldr	r2, [pc, #264]	; (800621c <HAL_TIM_IC_Start_DMA+0x318>)
 8006112:	63da      	str	r2, [r3, #60]	; 0x3c
      htim->hdma[TIM_DMA_ID_CC3]->XferHalfCpltCallback = TIM_DMACaptureHalfCplt;
 8006114:	68fb      	ldr	r3, [r7, #12]
 8006116:	6adb      	ldr	r3, [r3, #44]	; 0x2c
 8006118:	4a41      	ldr	r2, [pc, #260]	; (8006220 <HAL_TIM_IC_Start_DMA+0x31c>)
 800611a:	641a      	str	r2, [r3, #64]	; 0x40

      /* Set the DMA error callback */
      htim->hdma[TIM_DMA_ID_CC3]->XferErrorCallback = TIM_DMAError ;
 800611c:	68fb      	ldr	r3, [r7, #12]
 800611e:	6adb      	ldr	r3, [r3, #44]	; 0x2c
 8006120:	4a40      	ldr	r2, [pc, #256]	; (8006224 <HAL_TIM_IC_Start_DMA+0x320>)
 8006122:	64da      	str	r2, [r3, #76]	; 0x4c

      /* Enable the DMA stream */
      if (HAL_DMA_Start_IT(htim->hdma[TIM_DMA_ID_CC3], (uint32_t)&htim->Instance->CCR3, (uint32_t)pData,
 8006124:	68fb      	ldr	r3, [r7, #12]
 8006126:	6ad8      	ldr	r0, [r3, #44]	; 0x2c
 8006128:	68fb      	ldr	r3, [r7, #12]
 800612a:	681b      	ldr	r3, [r3, #0]
 800612c:	333c      	adds	r3, #60	; 0x3c
 800612e:	4619      	mov	r1, r3
 8006130:	687a      	ldr	r2, [r7, #4]
 8006132:	887b      	ldrh	r3, [r7, #2]
 8006134:	f7fb fee2 	bl	8001efc <HAL_DMA_Start_IT>
 8006138:	4603      	mov	r3, r0
 800613a:	2b00      	cmp	r3, #0
 800613c:	d001      	beq.n	8006142 <HAL_TIM_IC_Start_DMA+0x23e>
                           Length) != HAL_OK)
      {
        /* Return error status */
        return HAL_ERROR;
 800613e:	2301      	movs	r3, #1
 8006140:	e068      	b.n	8006214 <HAL_TIM_IC_Start_DMA+0x310>
      }
      /* Enable the TIM Capture/Compare 3  DMA request */
      __HAL_TIM_ENABLE_DMA(htim, TIM_DMA_CC3);
 8006142:	68fb      	ldr	r3, [r7, #12]
 8006144:	681b      	ldr	r3, [r3, #0]
 8006146:	68da      	ldr	r2, [r3, #12]
 8006148:	68fb      	ldr	r3, [r7, #12]
 800614a:	681b      	ldr	r3, [r3, #0]
 800614c:	f442 6200 	orr.w	r2, r2, #2048	; 0x800
 8006150:	60da      	str	r2, [r3, #12]
      break;
 8006152:	e026      	b.n	80061a2 <HAL_TIM_IC_Start_DMA+0x29e>
    }

    case TIM_CHANNEL_4:
    {
      /* Set the DMA capture callbacks */
      htim->hdma[TIM_DMA_ID_CC4]->XferCpltCallback = TIM_DMACaptureCplt;
 8006154:	68fb      	ldr	r3, [r7, #12]
 8006156:	6b1b      	ldr	r3, [r3, #48]	; 0x30
 8006158:	4a30      	ldr	r2, [pc, #192]	; (800621c <HAL_TIM_IC_Start_DMA+0x318>)
 800615a:	63da      	str	r2, [r3, #60]	; 0x3c
      htim->hdma[TIM_DMA_ID_CC4]->XferHalfCpltCallback = TIM_DMACaptureHalfCplt;
 800615c:	68fb      	ldr	r3, [r7, #12]
 800615e:	6b1b      	ldr	r3, [r3, #48]	; 0x30
 8006160:	4a2f      	ldr	r2, [pc, #188]	; (8006220 <HAL_TIM_IC_Start_DMA+0x31c>)
 8006162:	641a      	str	r2, [r3, #64]	; 0x40

      /* Set the DMA error callback */
      htim->hdma[TIM_DMA_ID_CC4]->XferErrorCallback = TIM_DMAError ;
 8006164:	68fb      	ldr	r3, [r7, #12]
 8006166:	6b1b      	ldr	r3, [r3, #48]	; 0x30
 8006168:	4a2e      	ldr	r2, [pc, #184]	; (8006224 <HAL_TIM_IC_Start_DMA+0x320>)
 800616a:	64da      	str	r2, [r3, #76]	; 0x4c

      /* Enable the DMA stream */
      if (HAL_DMA_Start_IT(htim->hdma[TIM_DMA_ID_CC4], (uint32_t)&htim->Instance->CCR4, (uint32_t)pData,
 800616c:	68fb      	ldr	r3, [r7, #12]
 800616e:	6b18      	ldr	r0, [r3, #48]	; 0x30
 8006170:	68fb      	ldr	r3, [r7, #12]
 8006172:	681b      	ldr	r3, [r3, #0]
 8006174:	3340      	adds	r3, #64	; 0x40
 8006176:	4619      	mov	r1, r3
 8006178:	687a      	ldr	r2, [r7, #4]
 800617a:	887b      	ldrh	r3, [r7, #2]
 800617c:	f7fb febe 	bl	8001efc <HAL_DMA_Start_IT>
 8006180:	4603      	mov	r3, r0
 8006182:	2b00      	cmp	r3, #0
 8006184:	d001      	beq.n	800618a <HAL_TIM_IC_Start_DMA+0x286>
                           Length) != HAL_OK)
      {
        /* Return error status */
        return HAL_ERROR;
 8006186:	2301      	movs	r3, #1
 8006188:	e044      	b.n	8006214 <HAL_TIM_IC_Start_DMA+0x310>
      }
      /* Enable the TIM Capture/Compare 4  DMA request */
      __HAL_TIM_ENABLE_DMA(htim, TIM_DMA_CC4);
 800618a:	68fb      	ldr	r3, [r7, #12]
 800618c:	681b      	ldr	r3, [r3, #0]
 800618e:	68da      	ldr	r2, [r3, #12]
 8006190:	68fb      	ldr	r3, [r7, #12]
 8006192:	681b      	ldr	r3, [r3, #0]
 8006194:	f442 5280 	orr.w	r2, r2, #4096	; 0x1000
 8006198:	60da      	str	r2, [r3, #12]
      break;
 800619a:	e002      	b.n	80061a2 <HAL_TIM_IC_Start_DMA+0x29e>
    }

    default:
      status = HAL_ERROR;
 800619c:	2301      	movs	r3, #1
 800619e:	75fb      	strb	r3, [r7, #23]
      break;
 80061a0:	bf00      	nop
  }

  /* Enable the Peripheral, except in trigger mode where enable is automatically done with trigger */
  if (IS_TIM_SLAVE_INSTANCE(htim->Instance))
 80061a2:	68fb      	ldr	r3, [r7, #12]
 80061a4:	681b      	ldr	r3, [r3, #0]
 80061a6:	4a20      	ldr	r2, [pc, #128]	; (8006228 <HAL_TIM_IC_Start_DMA+0x324>)
 80061a8:	4293      	cmp	r3, r2
 80061aa:	d018      	beq.n	80061de <HAL_TIM_IC_Start_DMA+0x2da>
 80061ac:	68fb      	ldr	r3, [r7, #12]
 80061ae:	681b      	ldr	r3, [r3, #0]
 80061b0:	f1b3 4f80 	cmp.w	r3, #1073741824	; 0x40000000
 80061b4:	d013      	beq.n	80061de <HAL_TIM_IC_Start_DMA+0x2da>
 80061b6:	68fb      	ldr	r3, [r7, #12]
 80061b8:	681b      	ldr	r3, [r3, #0]
 80061ba:	4a1c      	ldr	r2, [pc, #112]	; (800622c <HAL_TIM_IC_Start_DMA+0x328>)
 80061bc:	4293      	cmp	r3, r2
 80061be:	d00e      	beq.n	80061de <HAL_TIM_IC_Start_DMA+0x2da>
 80061c0:	68fb      	ldr	r3, [r7, #12]
 80061c2:	681b      	ldr	r3, [r3, #0]
 80061c4:	4a1a      	ldr	r2, [pc, #104]	; (8006230 <HAL_TIM_IC_Start_DMA+0x32c>)
 80061c6:	4293      	cmp	r3, r2
 80061c8:	d009      	beq.n	80061de <HAL_TIM_IC_Start_DMA+0x2da>
 80061ca:	68fb      	ldr	r3, [r7, #12]
 80061cc:	681b      	ldr	r3, [r3, #0]
 80061ce:	4a19      	ldr	r2, [pc, #100]	; (8006234 <HAL_TIM_IC_Start_DMA+0x330>)
 80061d0:	4293      	cmp	r3, r2
 80061d2:	d004      	beq.n	80061de <HAL_TIM_IC_Start_DMA+0x2da>
 80061d4:	68fb      	ldr	r3, [r7, #12]
 80061d6:	681b      	ldr	r3, [r3, #0]
 80061d8:	4a17      	ldr	r2, [pc, #92]	; (8006238 <HAL_TIM_IC_Start_DMA+0x334>)
 80061da:	4293      	cmp	r3, r2
 80061dc:	d111      	bne.n	8006202 <HAL_TIM_IC_Start_DMA+0x2fe>
  {
    tmpsmcr = htim->Instance->SMCR & TIM_SMCR_SMS;
 80061de:	68fb      	ldr	r3, [r7, #12]
 80061e0:	681b      	ldr	r3, [r3, #0]
 80061e2:	689b      	ldr	r3, [r3, #8]
 80061e4:	f003 0307 	and.w	r3, r3, #7
 80061e8:	613b      	str	r3, [r7, #16]
    if (!IS_TIM_SLAVEMODE_TRIGGER_ENABLED(tmpsmcr))
 80061ea:	693b      	ldr	r3, [r7, #16]
 80061ec:	2b06      	cmp	r3, #6
 80061ee:	d010      	beq.n	8006212 <HAL_TIM_IC_Start_DMA+0x30e>
    {
      __HAL_TIM_ENABLE(htim);
 80061f0:	68fb      	ldr	r3, [r7, #12]
 80061f2:	681b      	ldr	r3, [r3, #0]
 80061f4:	681a      	ldr	r2, [r3, #0]
 80061f6:	68fb      	ldr	r3, [r7, #12]
 80061f8:	681b      	ldr	r3, [r3, #0]
 80061fa:	f042 0201 	orr.w	r2, r2, #1
 80061fe:	601a      	str	r2, [r3, #0]
    if (!IS_TIM_SLAVEMODE_TRIGGER_ENABLED(tmpsmcr))
 8006200:	e007      	b.n	8006212 <HAL_TIM_IC_Start_DMA+0x30e>
    }
  }
  else
  {
    __HAL_TIM_ENABLE(htim);
 8006202:	68fb      	ldr	r3, [r7, #12]
 8006204:	681b      	ldr	r3, [r3, #0]
 8006206:	681a      	ldr	r2, [r3, #0]
 8006208:	68fb      	ldr	r3, [r7, #12]
 800620a:	681b      	ldr	r3, [r3, #0]
 800620c:	f042 0201 	orr.w	r2, r2, #1
 8006210:	601a      	str	r2, [r3, #0]
  }

  /* Return function status */
  return status;
 8006212:	7dfb      	ldrb	r3, [r7, #23]
}
 8006214:	4618      	mov	r0, r3
 8006216:	3718      	adds	r7, #24
 8006218:	46bd      	mov	sp, r7
 800621a:	bd80      	pop	{r7, pc}
 800621c:	08006755 	.word	0x08006755
 8006220:	0800681d 	.word	0x0800681d
 8006224:	080066c3 	.word	0x080066c3
 8006228:	40010000 	.word	0x40010000
 800622c:	40000400 	.word	0x40000400
 8006230:	40000800 	.word	0x40000800
 8006234:	40000c00 	.word	0x40000c00
 8006238:	40014000 	.word	0x40014000

0800623c <HAL_TIM_IC_ConfigChannel>:
  *            @arg TIM_CHANNEL_3: TIM Channel 3 selected
  *            @arg TIM_CHANNEL_4: TIM Channel 4 selected
  * @retval HAL status
  */
HAL_StatusTypeDef HAL_TIM_IC_ConfigChannel(TIM_HandleTypeDef *htim, TIM_IC_InitTypeDef *sConfig, uint32_t Channel)
{
 800623c:	b580      	push	{r7, lr}
 800623e:	b086      	sub	sp, #24
 8006240:	af00      	add	r7, sp, #0
 8006242:	60f8      	str	r0, [r7, #12]
 8006244:	60b9      	str	r1, [r7, #8]
 8006246:	607a      	str	r2, [r7, #4]
  HAL_StatusTypeDef status = HAL_OK;
 8006248:	2300      	movs	r3, #0
 800624a:	75fb      	strb	r3, [r7, #23]
  assert_param(IS_TIM_IC_SELECTION(sConfig->ICSelection));
  assert_param(IS_TIM_IC_PRESCALER(sConfig->ICPrescaler));
  assert_param(IS_TIM_IC_FILTER(sConfig->ICFilter));

  /* Process Locked */
  __HAL_LOCK(htim);
 800624c:	68fb      	ldr	r3, [r7, #12]
 800624e:	f893 303c 	ldrb.w	r3, [r3, #60]	; 0x3c
 8006252:	2b01      	cmp	r3, #1
 8006254:	d101      	bne.n	800625a <HAL_TIM_IC_ConfigChannel+0x1e>
 8006256:	2302      	movs	r3, #2
 8006258:	e088      	b.n	800636c <HAL_TIM_IC_ConfigChannel+0x130>
 800625a:	68fb      	ldr	r3, [r7, #12]
 800625c:	2201      	movs	r2, #1
 800625e:	f883 203c 	strb.w	r2, [r3, #60]	; 0x3c

  if (Channel == TIM_CHANNEL_1)
 8006262:	687b      	ldr	r3, [r7, #4]
 8006264:	2b00      	cmp	r3, #0
 8006266:	d11b      	bne.n	80062a0 <HAL_TIM_IC_ConfigChannel+0x64>
  {
    /* TI1 Configuration */
    TIM_TI1_SetConfig(htim->Instance,
 8006268:	68fb      	ldr	r3, [r7, #12]
 800626a:	6818      	ldr	r0, [r3, #0]
 800626c:	68bb      	ldr	r3, [r7, #8]
 800626e:	6819      	ldr	r1, [r3, #0]
 8006270:	68bb      	ldr	r3, [r7, #8]
 8006272:	685a      	ldr	r2, [r3, #4]
 8006274:	68bb      	ldr	r3, [r7, #8]
 8006276:	68db      	ldr	r3, [r3, #12]
 8006278:	f000 fd10 	bl	8006c9c <TIM_TI1_SetConfig>
                      sConfig->ICPolarity,
                      sConfig->ICSelection,
                      sConfig->ICFilter);

    /* Reset the IC1PSC Bits */
    htim->Instance->CCMR1 &= ~TIM_CCMR1_IC1PSC;
 800627c:	68fb      	ldr	r3, [r7, #12]
 800627e:	681b      	ldr	r3, [r3, #0]
 8006280:	699a      	ldr	r2, [r3, #24]
 8006282:	68fb      	ldr	r3, [r7, #12]
 8006284:	681b      	ldr	r3, [r3, #0]
 8006286:	f022 020c 	bic.w	r2, r2, #12
 800628a:	619a      	str	r2, [r3, #24]

    /* Set the IC1PSC value */
    htim->Instance->CCMR1 |= sConfig->ICPrescaler;
 800628c:	68fb      	ldr	r3, [r7, #12]
 800628e:	681b      	ldr	r3, [r3, #0]
 8006290:	6999      	ldr	r1, [r3, #24]
 8006292:	68bb      	ldr	r3, [r7, #8]
 8006294:	689a      	ldr	r2, [r3, #8]
 8006296:	68fb      	ldr	r3, [r7, #12]
 8006298:	681b      	ldr	r3, [r3, #0]
 800629a:	430a      	orrs	r2, r1
 800629c:	619a      	str	r2, [r3, #24]
 800629e:	e060      	b.n	8006362 <HAL_TIM_IC_ConfigChannel+0x126>
  }
  else if (Channel == TIM_CHANNEL_2)
 80062a0:	687b      	ldr	r3, [r7, #4]
 80062a2:	2b04      	cmp	r3, #4
 80062a4:	d11c      	bne.n	80062e0 <HAL_TIM_IC_ConfigChannel+0xa4>
  {
    /* TI2 Configuration */
    assert_param(IS_TIM_CC2_INSTANCE(htim->Instance));

    TIM_TI2_SetConfig(htim->Instance,
 80062a6:	68fb      	ldr	r3, [r7, #12]
 80062a8:	6818      	ldr	r0, [r3, #0]
 80062aa:	68bb      	ldr	r3, [r7, #8]
 80062ac:	6819      	ldr	r1, [r3, #0]
 80062ae:	68bb      	ldr	r3, [r7, #8]
 80062b0:	685a      	ldr	r2, [r3, #4]
 80062b2:	68bb      	ldr	r3, [r7, #8]
 80062b4:	68db      	ldr	r3, [r3, #12]
 80062b6:	f000 fd88 	bl	8006dca <TIM_TI2_SetConfig>
                      sConfig->ICPolarity,
                      sConfig->ICSelection,
                      sConfig->ICFilter);

    /* Reset the IC2PSC Bits */
    htim->Instance->CCMR1 &= ~TIM_CCMR1_IC2PSC;
 80062ba:	68fb      	ldr	r3, [r7, #12]
 80062bc:	681b      	ldr	r3, [r3, #0]
 80062be:	699a      	ldr	r2, [r3, #24]
 80062c0:	68fb      	ldr	r3, [r7, #12]
 80062c2:	681b      	ldr	r3, [r3, #0]
 80062c4:	f422 6240 	bic.w	r2, r2, #3072	; 0xc00
 80062c8:	619a      	str	r2, [r3, #24]

    /* Set the IC2PSC value */
    htim->Instance->CCMR1 |= (sConfig->ICPrescaler << 8U);
 80062ca:	68fb      	ldr	r3, [r7, #12]
 80062cc:	681b      	ldr	r3, [r3, #0]
 80062ce:	6999      	ldr	r1, [r3, #24]
 80062d0:	68bb      	ldr	r3, [r7, #8]
 80062d2:	689b      	ldr	r3, [r3, #8]
 80062d4:	021a      	lsls	r2, r3, #8
 80062d6:	68fb      	ldr	r3, [r7, #12]
 80062d8:	681b      	ldr	r3, [r3, #0]
 80062da:	430a      	orrs	r2, r1
 80062dc:	619a      	str	r2, [r3, #24]
 80062de:	e040      	b.n	8006362 <HAL_TIM_IC_ConfigChannel+0x126>
  }
  else if (Channel == TIM_CHANNEL_3)
 80062e0:	687b      	ldr	r3, [r7, #4]
 80062e2:	2b08      	cmp	r3, #8
 80062e4:	d11b      	bne.n	800631e <HAL_TIM_IC_ConfigChannel+0xe2>
  {
    /* TI3 Configuration */
    assert_param(IS_TIM_CC3_INSTANCE(htim->Instance));

    TIM_TI3_SetConfig(htim->Instance,
 80062e6:	68fb      	ldr	r3, [r7, #12]
 80062e8:	6818      	ldr	r0, [r3, #0]
 80062ea:	68bb      	ldr	r3, [r7, #8]
 80062ec:	6819      	ldr	r1, [r3, #0]
 80062ee:	68bb      	ldr	r3, [r7, #8]
 80062f0:	685a      	ldr	r2, [r3, #4]
 80062f2:	68bb      	ldr	r3, [r7, #8]
 80062f4:	68db      	ldr	r3, [r3, #12]
 80062f6:	f000 fdd5 	bl	8006ea4 <TIM_TI3_SetConfig>
                      sConfig->ICPolarity,
                      sConfig->ICSelection,
                      sConfig->ICFilter);

    /* Reset the IC3PSC Bits */
    htim->Instance->CCMR2 &= ~TIM_CCMR2_IC3PSC;
 80062fa:	68fb      	ldr	r3, [r7, #12]
 80062fc:	681b      	ldr	r3, [r3, #0]
 80062fe:	69da      	ldr	r2, [r3, #28]
 8006300:	68fb      	ldr	r3, [r7, #12]
 8006302:	681b      	ldr	r3, [r3, #0]
 8006304:	f022 020c 	bic.w	r2, r2, #12
 8006308:	61da      	str	r2, [r3, #28]

    /* Set the IC3PSC value */
    htim->Instance->CCMR2 |= sConfig->ICPrescaler;
 800630a:	68fb      	ldr	r3, [r7, #12]
 800630c:	681b      	ldr	r3, [r3, #0]
 800630e:	69d9      	ldr	r1, [r3, #28]
 8006310:	68bb      	ldr	r3, [r7, #8]
 8006312:	689a      	ldr	r2, [r3, #8]
 8006314:	68fb      	ldr	r3, [r7, #12]
 8006316:	681b      	ldr	r3, [r3, #0]
 8006318:	430a      	orrs	r2, r1
 800631a:	61da      	str	r2, [r3, #28]
 800631c:	e021      	b.n	8006362 <HAL_TIM_IC_ConfigChannel+0x126>
  }
  else if (Channel == TIM_CHANNEL_4)
 800631e:	687b      	ldr	r3, [r7, #4]
 8006320:	2b0c      	cmp	r3, #12
 8006322:	d11c      	bne.n	800635e <HAL_TIM_IC_ConfigChannel+0x122>
  {
    /* TI4 Configuration */
    assert_param(IS_TIM_CC4_INSTANCE(htim->Instance));

    TIM_TI4_SetConfig(htim->Instance,
 8006324:	68fb      	ldr	r3, [r7, #12]
 8006326:	6818      	ldr	r0, [r3, #0]
 8006328:	68bb      	ldr	r3, [r7, #8]
 800632a:	6819      	ldr	r1, [r3, #0]
 800632c:	68bb      	ldr	r3, [r7, #8]
 800632e:	685a      	ldr	r2, [r3, #4]
 8006330:	68bb      	ldr	r3, [r7, #8]
 8006332:	68db      	ldr	r3, [r3, #12]
 8006334:	f000 fdf2 	bl	8006f1c <TIM_TI4_SetConfig>
                      sConfig->ICPolarity,
                      sConfig->ICSelection,
                      sConfig->ICFilter);

    /* Reset the IC4PSC Bits */
    htim->Instance->CCMR2 &= ~TIM_CCMR2_IC4PSC;
 8006338:	68fb      	ldr	r3, [r7, #12]
 800633a:	681b      	ldr	r3, [r3, #0]
 800633c:	69da      	ldr	r2, [r3, #28]
 800633e:	68fb      	ldr	r3, [r7, #12]
 8006340:	681b      	ldr	r3, [r3, #0]
 8006342:	f422 6240 	bic.w	r2, r2, #3072	; 0xc00
 8006346:	61da      	str	r2, [r3, #28]

    /* Set the IC4PSC value */
    htim->Instance->CCMR2 |= (sConfig->ICPrescaler << 8U);
 8006348:	68fb      	ldr	r3, [r7, #12]
 800634a:	681b      	ldr	r3, [r3, #0]
 800634c:	69d9      	ldr	r1, [r3, #28]
 800634e:	68bb      	ldr	r3, [r7, #8]
 8006350:	689b      	ldr	r3, [r3, #8]
 8006352:	021a      	lsls	r2, r3, #8
 8006354:	68fb      	ldr	r3, [r7, #12]
 8006356:	681b      	ldr	r3, [r3, #0]
 8006358:	430a      	orrs	r2, r1
 800635a:	61da      	str	r2, [r3, #28]
 800635c:	e001      	b.n	8006362 <HAL_TIM_IC_ConfigChannel+0x126>
  }
  else
  {
    status = HAL_ERROR;
 800635e:	2301      	movs	r3, #1
 8006360:	75fb      	strb	r3, [r7, #23]
  }

  __HAL_UNLOCK(htim);
 8006362:	68fb      	ldr	r3, [r7, #12]
 8006364:	2200      	movs	r2, #0
 8006366:	f883 203c 	strb.w	r2, [r3, #60]	; 0x3c

  return status;
 800636a:	7dfb      	ldrb	r3, [r7, #23]
}
 800636c:	4618      	mov	r0, r3
 800636e:	3718      	adds	r7, #24
 8006370:	46bd      	mov	sp, r7
 8006372:	bd80      	pop	{r7, pc}

08006374 <HAL_TIM_PWM_ConfigChannel>:
  * @retval HAL status
  */
HAL_StatusTypeDef HAL_TIM_PWM_ConfigChannel(TIM_HandleTypeDef *htim,
                                            TIM_OC_InitTypeDef *sConfig,
                                            uint32_t Channel)
{
 8006374:	b580      	push	{r7, lr}
 8006376:	b086      	sub	sp, #24
 8006378:	af00      	add	r7, sp, #0
 800637a:	60f8      	str	r0, [r7, #12]
 800637c:	60b9      	str	r1, [r7, #8]
 800637e:	607a      	str	r2, [r7, #4]
  HAL_StatusTypeDef status = HAL_OK;
 8006380:	2300      	movs	r3, #0
 8006382:	75fb      	strb	r3, [r7, #23]
  assert_param(IS_TIM_PWM_MODE(sConfig->OCMode));
  assert_param(IS_TIM_OC_POLARITY(sConfig->OCPolarity));
  assert_param(IS_TIM_FAST_STATE(sConfig->OCFastMode));

  /* Process Locked */
  __HAL_LOCK(htim);
 8006384:	68fb      	ldr	r3, [r7, #12]
 8006386:	f893 303c 	ldrb.w	r3, [r3, #60]	; 0x3c
 800638a:	2b01      	cmp	r3, #1
 800638c:	d101      	bne.n	8006392 <HAL_TIM_PWM_ConfigChannel+0x1e>
 800638e:	2302      	movs	r3, #2
 8006390:	e0ae      	b.n	80064f0 <HAL_TIM_PWM_ConfigChannel+0x17c>
 8006392:	68fb      	ldr	r3, [r7, #12]
 8006394:	2201      	movs	r2, #1
 8006396:	f883 203c 	strb.w	r2, [r3, #60]	; 0x3c
 800639a:	687b      	ldr	r3, [r7, #4]
 800639c:	2b0c      	cmp	r3, #12
 800639e:	f200 809f 	bhi.w	80064e0 <HAL_TIM_PWM_ConfigChannel+0x16c>
 80063a2:	a201      	add	r2, pc, #4	; (adr r2, 80063a8 <HAL_TIM_PWM_ConfigChannel+0x34>)
 80063a4:	f852 f023 	ldr.w	pc, [r2, r3, lsl #2]
 80063a8:	080063dd 	.word	0x080063dd
 80063ac:	080064e1 	.word	0x080064e1
 80063b0:	080064e1 	.word	0x080064e1
 80063b4:	080064e1 	.word	0x080064e1
 80063b8:	0800641d 	.word	0x0800641d
 80063bc:	080064e1 	.word	0x080064e1
 80063c0:	080064e1 	.word	0x080064e1
 80063c4:	080064e1 	.word	0x080064e1
 80063c8:	0800645f 	.word	0x0800645f
 80063cc:	080064e1 	.word	0x080064e1
 80063d0:	080064e1 	.word	0x080064e1
 80063d4:	080064e1 	.word	0x080064e1
 80063d8:	0800649f 	.word	0x0800649f
    {
      /* Check the parameters */
      assert_param(IS_TIM_CC1_INSTANCE(htim->Instance));

      /* Configure the Channel 1 in PWM mode */
      TIM_OC1_SetConfig(htim->Instance, sConfig);
 80063dc:	68fb      	ldr	r3, [r7, #12]
 80063de:	681b      	ldr	r3, [r3, #0]
 80063e0:	68b9      	ldr	r1, [r7, #8]
 80063e2:	4618      	mov	r0, r3
 80063e4:	f000 face 	bl	8006984 <TIM_OC1_SetConfig>

      /* Set the Preload enable bit for channel1 */
      htim->Instance->CCMR1 |= TIM_CCMR1_OC1PE;
 80063e8:	68fb      	ldr	r3, [r7, #12]
 80063ea:	681b      	ldr	r3, [r3, #0]
 80063ec:	699a      	ldr	r2, [r3, #24]
 80063ee:	68fb      	ldr	r3, [r7, #12]
 80063f0:	681b      	ldr	r3, [r3, #0]
 80063f2:	f042 0208 	orr.w	r2, r2, #8
 80063f6:	619a      	str	r2, [r3, #24]

      /* Configure the Output Fast mode */
      htim->Instance->CCMR1 &= ~TIM_CCMR1_OC1FE;
 80063f8:	68fb      	ldr	r3, [r7, #12]
 80063fa:	681b      	ldr	r3, [r3, #0]
 80063fc:	699a      	ldr	r2, [r3, #24]
 80063fe:	68fb      	ldr	r3, [r7, #12]
 8006400:	681b      	ldr	r3, [r3, #0]
 8006402:	f022 0204 	bic.w	r2, r2, #4
 8006406:	619a      	str	r2, [r3, #24]
      htim->Instance->CCMR1 |= sConfig->OCFastMode;
 8006408:	68fb      	ldr	r3, [r7, #12]
 800640a:	681b      	ldr	r3, [r3, #0]
 800640c:	6999      	ldr	r1, [r3, #24]
 800640e:	68bb      	ldr	r3, [r7, #8]
 8006410:	691a      	ldr	r2, [r3, #16]
 8006412:	68fb      	ldr	r3, [r7, #12]
 8006414:	681b      	ldr	r3, [r3, #0]
 8006416:	430a      	orrs	r2, r1
 8006418:	619a      	str	r2, [r3, #24]
      break;
 800641a:	e064      	b.n	80064e6 <HAL_TIM_PWM_ConfigChannel+0x172>
    {
      /* Check the parameters */
      assert_param(IS_TIM_CC2_INSTANCE(htim->Instance));

      /* Configure the Channel 2 in PWM mode */
      TIM_OC2_SetConfig(htim->Instance, sConfig);
 800641c:	68fb      	ldr	r3, [r7, #12]
 800641e:	681b      	ldr	r3, [r3, #0]
 8006420:	68b9      	ldr	r1, [r7, #8]
 8006422:	4618      	mov	r0, r3
 8006424:	f000 fb14 	bl	8006a50 <TIM_OC2_SetConfig>

      /* Set the Preload enable bit for channel2 */
      htim->Instance->CCMR1 |= TIM_CCMR1_OC2PE;
 8006428:	68fb      	ldr	r3, [r7, #12]
 800642a:	681b      	ldr	r3, [r3, #0]
 800642c:	699a      	ldr	r2, [r3, #24]
 800642e:	68fb      	ldr	r3, [r7, #12]
 8006430:	681b      	ldr	r3, [r3, #0]
 8006432:	f442 6200 	orr.w	r2, r2, #2048	; 0x800
 8006436:	619a      	str	r2, [r3, #24]

      /* Configure the Output Fast mode */
      htim->Instance->CCMR1 &= ~TIM_CCMR1_OC2FE;
 8006438:	68fb      	ldr	r3, [r7, #12]
 800643a:	681b      	ldr	r3, [r3, #0]
 800643c:	699a      	ldr	r2, [r3, #24]
 800643e:	68fb      	ldr	r3, [r7, #12]
 8006440:	681b      	ldr	r3, [r3, #0]
 8006442:	f422 6280 	bic.w	r2, r2, #1024	; 0x400
 8006446:	619a      	str	r2, [r3, #24]
      htim->Instance->CCMR1 |= sConfig->OCFastMode << 8U;
 8006448:	68fb      	ldr	r3, [r7, #12]
 800644a:	681b      	ldr	r3, [r3, #0]
 800644c:	6999      	ldr	r1, [r3, #24]
 800644e:	68bb      	ldr	r3, [r7, #8]
 8006450:	691b      	ldr	r3, [r3, #16]
 8006452:	021a      	lsls	r2, r3, #8
 8006454:	68fb      	ldr	r3, [r7, #12]
 8006456:	681b      	ldr	r3, [r3, #0]
 8006458:	430a      	orrs	r2, r1
 800645a:	619a      	str	r2, [r3, #24]
      break;
 800645c:	e043      	b.n	80064e6 <HAL_TIM_PWM_ConfigChannel+0x172>
    {
      /* Check the parameters */
      assert_param(IS_TIM_CC3_INSTANCE(htim->Instance));

      /* Configure the Channel 3 in PWM mode */
      TIM_OC3_SetConfig(htim->Instance, sConfig);
 800645e:	68fb      	ldr	r3, [r7, #12]
 8006460:	681b      	ldr	r3, [r3, #0]
 8006462:	68b9      	ldr	r1, [r7, #8]
 8006464:	4618      	mov	r0, r3
 8006466:	f000 fb5f 	bl	8006b28 <TIM_OC3_SetConfig>

      /* Set the Preload enable bit for channel3 */
      htim->Instance->CCMR2 |= TIM_CCMR2_OC3PE;
 800646a:	68fb      	ldr	r3, [r7, #12]
 800646c:	681b      	ldr	r3, [r3, #0]
 800646e:	69da      	ldr	r2, [r3, #28]
 8006470:	68fb      	ldr	r3, [r7, #12]
 8006472:	681b      	ldr	r3, [r3, #0]
 8006474:	f042 0208 	orr.w	r2, r2, #8
 8006478:	61da      	str	r2, [r3, #28]

      /* Configure the Output Fast mode */
      htim->Instance->CCMR2 &= ~TIM_CCMR2_OC3FE;
 800647a:	68fb      	ldr	r3, [r7, #12]
 800647c:	681b      	ldr	r3, [r3, #0]
 800647e:	69da      	ldr	r2, [r3, #28]
 8006480:	68fb      	ldr	r3, [r7, #12]
 8006482:	681b      	ldr	r3, [r3, #0]
 8006484:	f022 0204 	bic.w	r2, r2, #4
 8006488:	61da      	str	r2, [r3, #28]
      htim->Instance->CCMR2 |= sConfig->OCFastMode;
 800648a:	68fb      	ldr	r3, [r7, #12]
 800648c:	681b      	ldr	r3, [r3, #0]
 800648e:	69d9      	ldr	r1, [r3, #28]
 8006490:	68bb      	ldr	r3, [r7, #8]
 8006492:	691a      	ldr	r2, [r3, #16]
 8006494:	68fb      	ldr	r3, [r7, #12]
 8006496:	681b      	ldr	r3, [r3, #0]
 8006498:	430a      	orrs	r2, r1
 800649a:	61da      	str	r2, [r3, #28]
      break;
 800649c:	e023      	b.n	80064e6 <HAL_TIM_PWM_ConfigChannel+0x172>
    {
      /* Check the parameters */
      assert_param(IS_TIM_CC4_INSTANCE(htim->Instance));

      /* Configure the Channel 4 in PWM mode */
      TIM_OC4_SetConfig(htim->Instance, sConfig);
 800649e:	68fb      	ldr	r3, [r7, #12]
 80064a0:	681b      	ldr	r3, [r3, #0]
 80064a2:	68b9      	ldr	r1, [r7, #8]
 80064a4:	4618      	mov	r0, r3
 80064a6:	f000 fba9 	bl	8006bfc <TIM_OC4_SetConfig>

      /* Set the Preload enable bit for channel4 */
      htim->Instance->CCMR2 |= TIM_CCMR2_OC4PE;
 80064aa:	68fb      	ldr	r3, [r7, #12]
 80064ac:	681b      	ldr	r3, [r3, #0]
 80064ae:	69da      	ldr	r2, [r3, #28]
 80064b0:	68fb      	ldr	r3, [r7, #12]
 80064b2:	681b      	ldr	r3, [r3, #0]
 80064b4:	f442 6200 	orr.w	r2, r2, #2048	; 0x800
 80064b8:	61da      	str	r2, [r3, #28]

      /* Configure the Output Fast mode */
      htim->Instance->CCMR2 &= ~TIM_CCMR2_OC4FE;
 80064ba:	68fb      	ldr	r3, [r7, #12]
 80064bc:	681b      	ldr	r3, [r3, #0]
 80064be:	69da      	ldr	r2, [r3, #28]
 80064c0:	68fb      	ldr	r3, [r7, #12]
 80064c2:	681b      	ldr	r3, [r3, #0]
 80064c4:	f422 6280 	bic.w	r2, r2, #1024	; 0x400
 80064c8:	61da      	str	r2, [r3, #28]
      htim->Instance->CCMR2 |= sConfig->OCFastMode << 8U;
 80064ca:	68fb      	ldr	r3, [r7, #12]
 80064cc:	681b      	ldr	r3, [r3, #0]
 80064ce:	69d9      	ldr	r1, [r3, #28]
 80064d0:	68bb      	ldr	r3, [r7, #8]
 80064d2:	691b      	ldr	r3, [r3, #16]
 80064d4:	021a      	lsls	r2, r3, #8
 80064d6:	68fb      	ldr	r3, [r7, #12]
 80064d8:	681b      	ldr	r3, [r3, #0]
 80064da:	430a      	orrs	r2, r1
 80064dc:	61da      	str	r2, [r3, #28]
      break;
 80064de:	e002      	b.n	80064e6 <HAL_TIM_PWM_ConfigChannel+0x172>
    }

    default:
      status = HAL_ERROR;
 80064e0:	2301      	movs	r3, #1
 80064e2:	75fb      	strb	r3, [r7, #23]
      break;
 80064e4:	bf00      	nop
  }

  __HAL_UNLOCK(htim);
 80064e6:	68fb      	ldr	r3, [r7, #12]
 80064e8:	2200      	movs	r2, #0
 80064ea:	f883 203c 	strb.w	r2, [r3, #60]	; 0x3c

  return status;
 80064ee:	7dfb      	ldrb	r3, [r7, #23]
}
 80064f0:	4618      	mov	r0, r3
 80064f2:	3718      	adds	r7, #24
 80064f4:	46bd      	mov	sp, r7
 80064f6:	bd80      	pop	{r7, pc}

080064f8 <HAL_TIM_ConfigClockSource>:
  * @param  sClockSourceConfig pointer to a TIM_ClockConfigTypeDef structure that
  *         contains the clock source information for the TIM peripheral.
  * @retval HAL status
  */
HAL_StatusTypeDef HAL_TIM_ConfigClockSource(TIM_HandleTypeDef *htim, TIM_ClockConfigTypeDef *sClockSourceConfig)
{
 80064f8:	b580      	push	{r7, lr}
 80064fa:	b084      	sub	sp, #16
 80064fc:	af00      	add	r7, sp, #0
 80064fe:	6078      	str	r0, [r7, #4]
 8006500:	6039      	str	r1, [r7, #0]
  HAL_StatusTypeDef status = HAL_OK;
 8006502:	2300      	movs	r3, #0
 8006504:	73fb      	strb	r3, [r7, #15]
  uint32_t tmpsmcr;

  /* Process Locked */
  __HAL_LOCK(htim);
 8006506:	687b      	ldr	r3, [r7, #4]
 8006508:	f893 303c 	ldrb.w	r3, [r3, #60]	; 0x3c
 800650c:	2b01      	cmp	r3, #1
 800650e:	d101      	bne.n	8006514 <HAL_TIM_ConfigClockSource+0x1c>
 8006510:	2302      	movs	r3, #2
 8006512:	e0b4      	b.n	800667e <HAL_TIM_ConfigClockSource+0x186>
 8006514:	687b      	ldr	r3, [r7, #4]
 8006516:	2201      	movs	r2, #1
 8006518:	f883 203c 	strb.w	r2, [r3, #60]	; 0x3c

  htim->State = HAL_TIM_STATE_BUSY;
 800651c:	687b      	ldr	r3, [r7, #4]
 800651e:	2202      	movs	r2, #2
 8006520:	f883 203d 	strb.w	r2, [r3, #61]	; 0x3d

  /* Check the parameters */
  assert_param(IS_TIM_CLOCKSOURCE(sClockSourceConfig->ClockSource));

  /* Reset the SMS, TS, ECE, ETPS and ETRF bits */
  tmpsmcr = htim->Instance->SMCR;
 8006524:	687b      	ldr	r3, [r7, #4]
 8006526:	681b      	ldr	r3, [r3, #0]
 8006528:	689b      	ldr	r3, [r3, #8]
 800652a:	60bb      	str	r3, [r7, #8]
  tmpsmcr &= ~(TIM_SMCR_SMS | TIM_SMCR_TS);
 800652c:	68bb      	ldr	r3, [r7, #8]
 800652e:	f023 0377 	bic.w	r3, r3, #119	; 0x77
 8006532:	60bb      	str	r3, [r7, #8]
  tmpsmcr &= ~(TIM_SMCR_ETF | TIM_SMCR_ETPS | TIM_SMCR_ECE | TIM_SMCR_ETP);
 8006534:	68bb      	ldr	r3, [r7, #8]
 8006536:	f423 437f 	bic.w	r3, r3, #65280	; 0xff00
 800653a:	60bb      	str	r3, [r7, #8]
  htim->Instance->SMCR = tmpsmcr;
 800653c:	687b      	ldr	r3, [r7, #4]
 800653e:	681b      	ldr	r3, [r3, #0]
 8006540:	68ba      	ldr	r2, [r7, #8]
 8006542:	609a      	str	r2, [r3, #8]

  switch (sClockSourceConfig->ClockSource)
 8006544:	683b      	ldr	r3, [r7, #0]
 8006546:	681b      	ldr	r3, [r3, #0]
 8006548:	f5b3 5f00 	cmp.w	r3, #8192	; 0x2000
 800654c:	d03e      	beq.n	80065cc <HAL_TIM_ConfigClockSource+0xd4>
 800654e:	f5b3 5f00 	cmp.w	r3, #8192	; 0x2000
 8006552:	f200 8087 	bhi.w	8006664 <HAL_TIM_ConfigClockSource+0x16c>
 8006556:	f5b3 5f80 	cmp.w	r3, #4096	; 0x1000
 800655a:	f000 8086 	beq.w	800666a <HAL_TIM_ConfigClockSource+0x172>
 800655e:	f5b3 5f80 	cmp.w	r3, #4096	; 0x1000
 8006562:	d87f      	bhi.n	8006664 <HAL_TIM_ConfigClockSource+0x16c>
 8006564:	2b70      	cmp	r3, #112	; 0x70
 8006566:	d01a      	beq.n	800659e <HAL_TIM_ConfigClockSource+0xa6>
 8006568:	2b70      	cmp	r3, #112	; 0x70
 800656a:	d87b      	bhi.n	8006664 <HAL_TIM_ConfigClockSource+0x16c>
 800656c:	2b60      	cmp	r3, #96	; 0x60
 800656e:	d050      	beq.n	8006612 <HAL_TIM_ConfigClockSource+0x11a>
 8006570:	2b60      	cmp	r3, #96	; 0x60
 8006572:	d877      	bhi.n	8006664 <HAL_TIM_ConfigClockSource+0x16c>
 8006574:	2b50      	cmp	r3, #80	; 0x50
 8006576:	d03c      	beq.n	80065f2 <HAL_TIM_ConfigClockSource+0xfa>
 8006578:	2b50      	cmp	r3, #80	; 0x50
 800657a:	d873      	bhi.n	8006664 <HAL_TIM_ConfigClockSource+0x16c>
 800657c:	2b40      	cmp	r3, #64	; 0x40
 800657e:	d058      	beq.n	8006632 <HAL_TIM_ConfigClockSource+0x13a>
 8006580:	2b40      	cmp	r3, #64	; 0x40
 8006582:	d86f      	bhi.n	8006664 <HAL_TIM_ConfigClockSource+0x16c>
 8006584:	2b30      	cmp	r3, #48	; 0x30
 8006586:	d064      	beq.n	8006652 <HAL_TIM_ConfigClockSource+0x15a>
 8006588:	2b30      	cmp	r3, #48	; 0x30
 800658a:	d86b      	bhi.n	8006664 <HAL_TIM_ConfigClockSource+0x16c>
 800658c:	2b20      	cmp	r3, #32
 800658e:	d060      	beq.n	8006652 <HAL_TIM_ConfigClockSource+0x15a>
 8006590:	2b20      	cmp	r3, #32
 8006592:	d867      	bhi.n	8006664 <HAL_TIM_ConfigClockSource+0x16c>
 8006594:	2b00      	cmp	r3, #0
 8006596:	d05c      	beq.n	8006652 <HAL_TIM_ConfigClockSource+0x15a>
 8006598:	2b10      	cmp	r3, #16
 800659a:	d05a      	beq.n	8006652 <HAL_TIM_ConfigClockSource+0x15a>
 800659c:	e062      	b.n	8006664 <HAL_TIM_ConfigClockSource+0x16c>
      assert_param(IS_TIM_CLOCKPRESCALER(sClockSourceConfig->ClockPrescaler));
      assert_param(IS_TIM_CLOCKPOLARITY(sClockSourceConfig->ClockPolarity));
      assert_param(IS_TIM_CLOCKFILTER(sClockSourceConfig->ClockFilter));

      /* Configure the ETR Clock source */
      TIM_ETR_SetConfig(htim->Instance,
 800659e:	687b      	ldr	r3, [r7, #4]
 80065a0:	6818      	ldr	r0, [r3, #0]
 80065a2:	683b      	ldr	r3, [r7, #0]
 80065a4:	6899      	ldr	r1, [r3, #8]
 80065a6:	683b      	ldr	r3, [r7, #0]
 80065a8:	685a      	ldr	r2, [r3, #4]
 80065aa:	683b      	ldr	r3, [r7, #0]
 80065ac:	68db      	ldr	r3, [r3, #12]
 80065ae:	f000 fd0d 	bl	8006fcc <TIM_ETR_SetConfig>
                        sClockSourceConfig->ClockPrescaler,
                        sClockSourceConfig->ClockPolarity,
                        sClockSourceConfig->ClockFilter);

      /* Select the External clock mode1 and the ETRF trigger */
      tmpsmcr = htim->Instance->SMCR;
 80065b2:	687b      	ldr	r3, [r7, #4]
 80065b4:	681b      	ldr	r3, [r3, #0]
 80065b6:	689b      	ldr	r3, [r3, #8]
 80065b8:	60bb      	str	r3, [r7, #8]
      tmpsmcr |= (TIM_SLAVEMODE_EXTERNAL1 | TIM_CLOCKSOURCE_ETRMODE1);
 80065ba:	68bb      	ldr	r3, [r7, #8]
 80065bc:	f043 0377 	orr.w	r3, r3, #119	; 0x77
 80065c0:	60bb      	str	r3, [r7, #8]
      /* Write to TIMx SMCR */
      htim->Instance->SMCR = tmpsmcr;
 80065c2:	687b      	ldr	r3, [r7, #4]
 80065c4:	681b      	ldr	r3, [r3, #0]
 80065c6:	68ba      	ldr	r2, [r7, #8]
 80065c8:	609a      	str	r2, [r3, #8]
      break;
 80065ca:	e04f      	b.n	800666c <HAL_TIM_ConfigClockSource+0x174>
      assert_param(IS_TIM_CLOCKPRESCALER(sClockSourceConfig->ClockPrescaler));
      assert_param(IS_TIM_CLOCKPOLARITY(sClockSourceConfig->ClockPolarity));
      assert_param(IS_TIM_CLOCKFILTER(sClockSourceConfig->ClockFilter));

      /* Configure the ETR Clock source */
      TIM_ETR_SetConfig(htim->Instance,
 80065cc:	687b      	ldr	r3, [r7, #4]
 80065ce:	6818      	ldr	r0, [r3, #0]
 80065d0:	683b      	ldr	r3, [r7, #0]
 80065d2:	6899      	ldr	r1, [r3, #8]
 80065d4:	683b      	ldr	r3, [r7, #0]
 80065d6:	685a      	ldr	r2, [r3, #4]
 80065d8:	683b      	ldr	r3, [r7, #0]
 80065da:	68db      	ldr	r3, [r3, #12]
 80065dc:	f000 fcf6 	bl	8006fcc <TIM_ETR_SetConfig>
                        sClockSourceConfig->ClockPrescaler,
                        sClockSourceConfig->ClockPolarity,
                        sClockSourceConfig->ClockFilter);
      /* Enable the External clock mode2 */
      htim->Instance->SMCR |= TIM_SMCR_ECE;
 80065e0:	687b      	ldr	r3, [r7, #4]
 80065e2:	681b      	ldr	r3, [r3, #0]
 80065e4:	689a      	ldr	r2, [r3, #8]
 80065e6:	687b      	ldr	r3, [r7, #4]
 80065e8:	681b      	ldr	r3, [r3, #0]
 80065ea:	f442 4280 	orr.w	r2, r2, #16384	; 0x4000
 80065ee:	609a      	str	r2, [r3, #8]
      break;
 80065f0:	e03c      	b.n	800666c <HAL_TIM_ConfigClockSource+0x174>

      /* Check TI1 input conditioning related parameters */
      assert_param(IS_TIM_CLOCKPOLARITY(sClockSourceConfig->ClockPolarity));
      assert_param(IS_TIM_CLOCKFILTER(sClockSourceConfig->ClockFilter));

      TIM_TI1_ConfigInputStage(htim->Instance,
 80065f2:	687b      	ldr	r3, [r7, #4]
 80065f4:	6818      	ldr	r0, [r3, #0]
 80065f6:	683b      	ldr	r3, [r7, #0]
 80065f8:	6859      	ldr	r1, [r3, #4]
 80065fa:	683b      	ldr	r3, [r7, #0]
 80065fc:	68db      	ldr	r3, [r3, #12]
 80065fe:	461a      	mov	r2, r3
 8006600:	f000 fbb4 	bl	8006d6c <TIM_TI1_ConfigInputStage>
                               sClockSourceConfig->ClockPolarity,
                               sClockSourceConfig->ClockFilter);
      TIM_ITRx_SetConfig(htim->Instance, TIM_CLOCKSOURCE_TI1);
 8006604:	687b      	ldr	r3, [r7, #4]
 8006606:	681b      	ldr	r3, [r3, #0]
 8006608:	2150      	movs	r1, #80	; 0x50
 800660a:	4618      	mov	r0, r3
 800660c:	f000 fcc3 	bl	8006f96 <TIM_ITRx_SetConfig>
      break;
 8006610:	e02c      	b.n	800666c <HAL_TIM_ConfigClockSource+0x174>

      /* Check TI2 input conditioning related parameters */
      assert_param(IS_TIM_CLOCKPOLARITY(sClockSourceConfig->ClockPolarity));
      assert_param(IS_TIM_CLOCKFILTER(sClockSourceConfig->ClockFilter));

      TIM_TI2_ConfigInputStage(htim->Instance,
 8006612:	687b      	ldr	r3, [r7, #4]
 8006614:	6818      	ldr	r0, [r3, #0]
 8006616:	683b      	ldr	r3, [r7, #0]
 8006618:	6859      	ldr	r1, [r3, #4]
 800661a:	683b      	ldr	r3, [r7, #0]
 800661c:	68db      	ldr	r3, [r3, #12]
 800661e:	461a      	mov	r2, r3
 8006620:	f000 fc10 	bl	8006e44 <TIM_TI2_ConfigInputStage>
                               sClockSourceConfig->ClockPolarity,
                               sClockSourceConfig->ClockFilter);
      TIM_ITRx_SetConfig(htim->Instance, TIM_CLOCKSOURCE_TI2);
 8006624:	687b      	ldr	r3, [r7, #4]
 8006626:	681b      	ldr	r3, [r3, #0]
 8006628:	2160      	movs	r1, #96	; 0x60
 800662a:	4618      	mov	r0, r3
 800662c:	f000 fcb3 	bl	8006f96 <TIM_ITRx_SetConfig>
      break;
 8006630:	e01c      	b.n	800666c <HAL_TIM_ConfigClockSource+0x174>

      /* Check TI1 input conditioning related parameters */
      assert_param(IS_TIM_CLOCKPOLARITY(sClockSourceConfig->ClockPolarity));
      assert_param(IS_TIM_CLOCKFILTER(sClockSourceConfig->ClockFilter));

      TIM_TI1_ConfigInputStage(htim->Instance,
 8006632:	687b      	ldr	r3, [r7, #4]
 8006634:	6818      	ldr	r0, [r3, #0]
 8006636:	683b      	ldr	r3, [r7, #0]
 8006638:	6859      	ldr	r1, [r3, #4]
 800663a:	683b      	ldr	r3, [r7, #0]
 800663c:	68db      	ldr	r3, [r3, #12]
 800663e:	461a      	mov	r2, r3
 8006640:	f000 fb94 	bl	8006d6c <TIM_TI1_ConfigInputStage>
                               sClockSourceConfig->ClockPolarity,
                               sClockSourceConfig->ClockFilter);
      TIM_ITRx_SetConfig(htim->Instance, TIM_CLOCKSOURCE_TI1ED);
 8006644:	687b      	ldr	r3, [r7, #4]
 8006646:	681b      	ldr	r3, [r3, #0]
 8006648:	2140      	movs	r1, #64	; 0x40
 800664a:	4618      	mov	r0, r3
 800664c:	f000 fca3 	bl	8006f96 <TIM_ITRx_SetConfig>
      break;
 8006650:	e00c      	b.n	800666c <HAL_TIM_ConfigClockSource+0x174>
    case TIM_CLOCKSOURCE_ITR3:
    {
      /* Check whether or not the timer instance supports internal trigger input */
      assert_param(IS_TIM_CLOCKSOURCE_ITRX_INSTANCE(htim->Instance));

      TIM_ITRx_SetConfig(htim->Instance, sClockSourceConfig->ClockSource);
 8006652:	687b      	ldr	r3, [r7, #4]
 8006654:	681a      	ldr	r2, [r3, #0]
 8006656:	683b      	ldr	r3, [r7, #0]
 8006658:	681b      	ldr	r3, [r3, #0]
 800665a:	4619      	mov	r1, r3
 800665c:	4610      	mov	r0, r2
 800665e:	f000 fc9a 	bl	8006f96 <TIM_ITRx_SetConfig>
      break;
 8006662:	e003      	b.n	800666c <HAL_TIM_ConfigClockSource+0x174>
    }

    default:
      status = HAL_ERROR;
 8006664:	2301      	movs	r3, #1
 8006666:	73fb      	strb	r3, [r7, #15]
      break;
 8006668:	e000      	b.n	800666c <HAL_TIM_ConfigClockSource+0x174>
      break;
 800666a:	bf00      	nop
  }
  htim->State = HAL_TIM_STATE_READY;
 800666c:	687b      	ldr	r3, [r7, #4]
 800666e:	2201      	movs	r2, #1
 8006670:	f883 203d 	strb.w	r2, [r3, #61]	; 0x3d

  __HAL_UNLOCK(htim);
 8006674:	687b      	ldr	r3, [r7, #4]
 8006676:	2200      	movs	r2, #0
 8006678:	f883 203c 	strb.w	r2, [r3, #60]	; 0x3c

  return status;
 800667c:	7bfb      	ldrb	r3, [r7, #15]
}
 800667e:	4618      	mov	r0, r3
 8006680:	3710      	adds	r7, #16
 8006682:	46bd      	mov	sp, r7
 8006684:	bd80      	pop	{r7, pc}

08006686 <HAL_TIM_IC_CaptureCallback>:
  * @brief  Input Capture callback in non-blocking mode
  * @param  htim TIM IC handle
  * @retval None
  */
__weak void HAL_TIM_IC_CaptureCallback(TIM_HandleTypeDef *htim)
{
 8006686:	b480      	push	{r7}
 8006688:	b083      	sub	sp, #12
 800668a:	af00      	add	r7, sp, #0
 800668c:	6078      	str	r0, [r7, #4]
  UNUSED(htim);

  /* NOTE : This function should not be modified, when the callback is needed,
            the HAL_TIM_IC_CaptureCallback could be implemented in the user file
   */
}
 800668e:	bf00      	nop
 8006690:	370c      	adds	r7, #12
 8006692:	46bd      	mov	sp, r7
 8006694:	f85d 7b04 	ldr.w	r7, [sp], #4
 8006698:	4770      	bx	lr

0800669a <HAL_TIM_IC_CaptureHalfCpltCallback>:
  * @brief  Input Capture half complete callback in non-blocking mode
  * @param  htim TIM IC handle
  * @retval None
  */
__weak void HAL_TIM_IC_CaptureHalfCpltCallback(TIM_HandleTypeDef *htim)
{
 800669a:	b480      	push	{r7}
 800669c:	b083      	sub	sp, #12
 800669e:	af00      	add	r7, sp, #0
 80066a0:	6078      	str	r0, [r7, #4]
  UNUSED(htim);

  /* NOTE : This function should not be modified, when the callback is needed,
            the HAL_TIM_IC_CaptureHalfCpltCallback could be implemented in the user file
   */
}
 80066a2:	bf00      	nop
 80066a4:	370c      	adds	r7, #12
 80066a6:	46bd      	mov	sp, r7
 80066a8:	f85d 7b04 	ldr.w	r7, [sp], #4
 80066ac:	4770      	bx	lr

080066ae <HAL_TIM_ErrorCallback>:
  * @brief  Timer error callback in non-blocking mode
  * @param  htim TIM handle
  * @retval None
  */
__weak void HAL_TIM_ErrorCallback(TIM_HandleTypeDef *htim)
{
 80066ae:	b480      	push	{r7}
 80066b0:	b083      	sub	sp, #12
 80066b2:	af00      	add	r7, sp, #0
 80066b4:	6078      	str	r0, [r7, #4]
  UNUSED(htim);

  /* NOTE : This function should not be modified, when the callback is needed,
            the HAL_TIM_ErrorCallback could be implemented in the user file
   */
}
 80066b6:	bf00      	nop
 80066b8:	370c      	adds	r7, #12
 80066ba:	46bd      	mov	sp, r7
 80066bc:	f85d 7b04 	ldr.w	r7, [sp], #4
 80066c0:	4770      	bx	lr

080066c2 <TIM_DMAError>:
  * @brief  TIM DMA error callback
  * @param  hdma pointer to DMA handle.
  * @retval None
  */
void TIM_DMAError(DMA_HandleTypeDef *hdma)
{
 80066c2:	b580      	push	{r7, lr}
 80066c4:	b084      	sub	sp, #16
 80066c6:	af00      	add	r7, sp, #0
 80066c8:	6078      	str	r0, [r7, #4]
  TIM_HandleTypeDef *htim = (TIM_HandleTypeDef *)((DMA_HandleTypeDef *)hdma)->Parent;
 80066ca:	687b      	ldr	r3, [r7, #4]
 80066cc:	6b9b      	ldr	r3, [r3, #56]	; 0x38
 80066ce:	60fb      	str	r3, [r7, #12]

  if (hdma == htim->hdma[TIM_DMA_ID_CC1])
 80066d0:	68fb      	ldr	r3, [r7, #12]
 80066d2:	6a5b      	ldr	r3, [r3, #36]	; 0x24
 80066d4:	687a      	ldr	r2, [r7, #4]
 80066d6:	429a      	cmp	r2, r3
 80066d8:	d107      	bne.n	80066ea <TIM_DMAError+0x28>
  {
    htim->Channel = HAL_TIM_ACTIVE_CHANNEL_1;
 80066da:	68fb      	ldr	r3, [r7, #12]
 80066dc:	2201      	movs	r2, #1
 80066de:	771a      	strb	r2, [r3, #28]
    TIM_CHANNEL_STATE_SET(htim, TIM_CHANNEL_1, HAL_TIM_CHANNEL_STATE_READY);
 80066e0:	68fb      	ldr	r3, [r7, #12]
 80066e2:	2201      	movs	r2, #1
 80066e4:	f883 203e 	strb.w	r2, [r3, #62]	; 0x3e
 80066e8:	e02a      	b.n	8006740 <TIM_DMAError+0x7e>
  }
  else if (hdma == htim->hdma[TIM_DMA_ID_CC2])
 80066ea:	68fb      	ldr	r3, [r7, #12]
 80066ec:	6a9b      	ldr	r3, [r3, #40]	; 0x28
 80066ee:	687a      	ldr	r2, [r7, #4]
 80066f0:	429a      	cmp	r2, r3
 80066f2:	d107      	bne.n	8006704 <TIM_DMAError+0x42>
  {
    htim->Channel = HAL_TIM_ACTIVE_CHANNEL_2;
 80066f4:	68fb      	ldr	r3, [r7, #12]
 80066f6:	2202      	movs	r2, #2
 80066f8:	771a      	strb	r2, [r3, #28]
    TIM_CHANNEL_STATE_SET(htim, TIM_CHANNEL_2, HAL_TIM_CHANNEL_STATE_READY);
 80066fa:	68fb      	ldr	r3, [r7, #12]
 80066fc:	2201      	movs	r2, #1
 80066fe:	f883 203f 	strb.w	r2, [r3, #63]	; 0x3f
 8006702:	e01d      	b.n	8006740 <TIM_DMAError+0x7e>
  }
  else if (hdma == htim->hdma[TIM_DMA_ID_CC3])
 8006704:	68fb      	ldr	r3, [r7, #12]
 8006706:	6adb      	ldr	r3, [r3, #44]	; 0x2c
 8006708:	687a      	ldr	r2, [r7, #4]
 800670a:	429a      	cmp	r2, r3
 800670c:	d107      	bne.n	800671e <TIM_DMAError+0x5c>
  {
    htim->Channel = HAL_TIM_ACTIVE_CHANNEL_3;
 800670e:	68fb      	ldr	r3, [r7, #12]
 8006710:	2204      	movs	r2, #4
 8006712:	771a      	strb	r2, [r3, #28]
    TIM_CHANNEL_STATE_SET(htim, TIM_CHANNEL_3, HAL_TIM_CHANNEL_STATE_READY);
 8006714:	68fb      	ldr	r3, [r7, #12]
 8006716:	2201      	movs	r2, #1
 8006718:	f883 2040 	strb.w	r2, [r3, #64]	; 0x40
 800671c:	e010      	b.n	8006740 <TIM_DMAError+0x7e>
  }
  else if (hdma == htim->hdma[TIM_DMA_ID_CC4])
 800671e:	68fb      	ldr	r3, [r7, #12]
 8006720:	6b1b      	ldr	r3, [r3, #48]	; 0x30
 8006722:	687a      	ldr	r2, [r7, #4]
 8006724:	429a      	cmp	r2, r3
 8006726:	d107      	bne.n	8006738 <TIM_DMAError+0x76>
  {
    htim->Channel = HAL_TIM_ACTIVE_CHANNEL_4;
 8006728:	68fb      	ldr	r3, [r7, #12]
 800672a:	2208      	movs	r2, #8
 800672c:	771a      	strb	r2, [r3, #28]
    TIM_CHANNEL_STATE_SET(htim, TIM_CHANNEL_4, HAL_TIM_CHANNEL_STATE_READY);
 800672e:	68fb      	ldr	r3, [r7, #12]
 8006730:	2201      	movs	r2, #1
 8006732:	f883 2041 	strb.w	r2, [r3, #65]	; 0x41
 8006736:	e003      	b.n	8006740 <TIM_DMAError+0x7e>
  }
  else
  {
    htim->State = HAL_TIM_STATE_READY;
 8006738:	68fb      	ldr	r3, [r7, #12]
 800673a:	2201      	movs	r2, #1
 800673c:	f883 203d 	strb.w	r2, [r3, #61]	; 0x3d
  }

#if (USE_HAL_TIM_REGISTER_CALLBACKS == 1)
  htim->ErrorCallback(htim);
#else
  HAL_TIM_ErrorCallback(htim);
 8006740:	68f8      	ldr	r0, [r7, #12]
 8006742:	f7ff ffb4 	bl	80066ae <HAL_TIM_ErrorCallback>
#endif /* USE_HAL_TIM_REGISTER_CALLBACKS */

  htim->Channel = HAL_TIM_ACTIVE_CHANNEL_CLEARED;
 8006746:	68fb      	ldr	r3, [r7, #12]
 8006748:	2200      	movs	r2, #0
 800674a:	771a      	strb	r2, [r3, #28]
}
 800674c:	bf00      	nop
 800674e:	3710      	adds	r7, #16
 8006750:	46bd      	mov	sp, r7
 8006752:	bd80      	pop	{r7, pc}

08006754 <TIM_DMACaptureCplt>:
  * @brief  TIM DMA Capture complete callback.
  * @param  hdma pointer to DMA handle.
  * @retval None
  */
void TIM_DMACaptureCplt(DMA_HandleTypeDef *hdma)
{
 8006754:	b580      	push	{r7, lr}
 8006756:	b084      	sub	sp, #16
 8006758:	af00      	add	r7, sp, #0
 800675a:	6078      	str	r0, [r7, #4]
  TIM_HandleTypeDef *htim = (TIM_HandleTypeDef *)((DMA_HandleTypeDef *)hdma)->Parent;
 800675c:	687b      	ldr	r3, [r7, #4]
 800675e:	6b9b      	ldr	r3, [r3, #56]	; 0x38
 8006760:	60fb      	str	r3, [r7, #12]

  if (hdma == htim->hdma[TIM_DMA_ID_CC1])
 8006762:	68fb      	ldr	r3, [r7, #12]
 8006764:	6a5b      	ldr	r3, [r3, #36]	; 0x24
 8006766:	687a      	ldr	r2, [r7, #4]
 8006768:	429a      	cmp	r2, r3
 800676a:	d10f      	bne.n	800678c <TIM_DMACaptureCplt+0x38>
  {
    htim->Channel = HAL_TIM_ACTIVE_CHANNEL_1;
 800676c:	68fb      	ldr	r3, [r7, #12]
 800676e:	2201      	movs	r2, #1
 8006770:	771a      	strb	r2, [r3, #28]

    if (hdma->Init.Mode == DMA_NORMAL)
 8006772:	687b      	ldr	r3, [r7, #4]
 8006774:	69db      	ldr	r3, [r3, #28]
 8006776:	2b00      	cmp	r3, #0
 8006778:	d146      	bne.n	8006808 <TIM_DMACaptureCplt+0xb4>
    {
      TIM_CHANNEL_STATE_SET(htim, TIM_CHANNEL_1, HAL_TIM_CHANNEL_STATE_READY);
 800677a:	68fb      	ldr	r3, [r7, #12]
 800677c:	2201      	movs	r2, #1
 800677e:	f883 203e 	strb.w	r2, [r3, #62]	; 0x3e
      TIM_CHANNEL_N_STATE_SET(htim, TIM_CHANNEL_1, HAL_TIM_CHANNEL_STATE_READY);
 8006782:	68fb      	ldr	r3, [r7, #12]
 8006784:	2201      	movs	r2, #1
 8006786:	f883 2042 	strb.w	r2, [r3, #66]	; 0x42
 800678a:	e03d      	b.n	8006808 <TIM_DMACaptureCplt+0xb4>
    }
  }
  else if (hdma == htim->hdma[TIM_DMA_ID_CC2])
 800678c:	68fb      	ldr	r3, [r7, #12]
 800678e:	6a9b      	ldr	r3, [r3, #40]	; 0x28
 8006790:	687a      	ldr	r2, [r7, #4]
 8006792:	429a      	cmp	r2, r3
 8006794:	d10f      	bne.n	80067b6 <TIM_DMACaptureCplt+0x62>
  {
    htim->Channel = HAL_TIM_ACTIVE_CHANNEL_2;
 8006796:	68fb      	ldr	r3, [r7, #12]
 8006798:	2202      	movs	r2, #2
 800679a:	771a      	strb	r2, [r3, #28]

    if (hdma->Init.Mode == DMA_NORMAL)
 800679c:	687b      	ldr	r3, [r7, #4]
 800679e:	69db      	ldr	r3, [r3, #28]
 80067a0:	2b00      	cmp	r3, #0
 80067a2:	d131      	bne.n	8006808 <TIM_DMACaptureCplt+0xb4>
    {
      TIM_CHANNEL_STATE_SET(htim, TIM_CHANNEL_2, HAL_TIM_CHANNEL_STATE_READY);
 80067a4:	68fb      	ldr	r3, [r7, #12]
 80067a6:	2201      	movs	r2, #1
 80067a8:	f883 203f 	strb.w	r2, [r3, #63]	; 0x3f
      TIM_CHANNEL_N_STATE_SET(htim, TIM_CHANNEL_2, HAL_TIM_CHANNEL_STATE_READY);
 80067ac:	68fb      	ldr	r3, [r7, #12]
 80067ae:	2201      	movs	r2, #1
 80067b0:	f883 2043 	strb.w	r2, [r3, #67]	; 0x43
 80067b4:	e028      	b.n	8006808 <TIM_DMACaptureCplt+0xb4>
    }
  }
  else if (hdma == htim->hdma[TIM_DMA_ID_CC3])
 80067b6:	68fb      	ldr	r3, [r7, #12]
 80067b8:	6adb      	ldr	r3, [r3, #44]	; 0x2c
 80067ba:	687a      	ldr	r2, [r7, #4]
 80067bc:	429a      	cmp	r2, r3
 80067be:	d10f      	bne.n	80067e0 <TIM_DMACaptureCplt+0x8c>
  {
    htim->Channel = HAL_TIM_ACTIVE_CHANNEL_3;
 80067c0:	68fb      	ldr	r3, [r7, #12]
 80067c2:	2204      	movs	r2, #4
 80067c4:	771a      	strb	r2, [r3, #28]

    if (hdma->Init.Mode == DMA_NORMAL)
 80067c6:	687b      	ldr	r3, [r7, #4]
 80067c8:	69db      	ldr	r3, [r3, #28]
 80067ca:	2b00      	cmp	r3, #0
 80067cc:	d11c      	bne.n	8006808 <TIM_DMACaptureCplt+0xb4>
    {
      TIM_CHANNEL_STATE_SET(htim, TIM_CHANNEL_3, HAL_TIM_CHANNEL_STATE_READY);
 80067ce:	68fb      	ldr	r3, [r7, #12]
 80067d0:	2201      	movs	r2, #1
 80067d2:	f883 2040 	strb.w	r2, [r3, #64]	; 0x40
      TIM_CHANNEL_N_STATE_SET(htim, TIM_CHANNEL_3, HAL_TIM_CHANNEL_STATE_READY);
 80067d6:	68fb      	ldr	r3, [r7, #12]
 80067d8:	2201      	movs	r2, #1
 80067da:	f883 2044 	strb.w	r2, [r3, #68]	; 0x44
 80067de:	e013      	b.n	8006808 <TIM_DMACaptureCplt+0xb4>
    }
  }
  else if (hdma == htim->hdma[TIM_DMA_ID_CC4])
 80067e0:	68fb      	ldr	r3, [r7, #12]
 80067e2:	6b1b      	ldr	r3, [r3, #48]	; 0x30
 80067e4:	687a      	ldr	r2, [r7, #4]
 80067e6:	429a      	cmp	r2, r3
 80067e8:	d10e      	bne.n	8006808 <TIM_DMACaptureCplt+0xb4>
  {
    htim->Channel = HAL_TIM_ACTIVE_CHANNEL_4;
 80067ea:	68fb      	ldr	r3, [r7, #12]
 80067ec:	2208      	movs	r2, #8
 80067ee:	771a      	strb	r2, [r3, #28]

    if (hdma->Init.Mode == DMA_NORMAL)
 80067f0:	687b      	ldr	r3, [r7, #4]
 80067f2:	69db      	ldr	r3, [r3, #28]
 80067f4:	2b00      	cmp	r3, #0
 80067f6:	d107      	bne.n	8006808 <TIM_DMACaptureCplt+0xb4>
    {
      TIM_CHANNEL_STATE_SET(htim, TIM_CHANNEL_4, HAL_TIM_CHANNEL_STATE_READY);
 80067f8:	68fb      	ldr	r3, [r7, #12]
 80067fa:	2201      	movs	r2, #1
 80067fc:	f883 2041 	strb.w	r2, [r3, #65]	; 0x41
      TIM_CHANNEL_N_STATE_SET(htim, TIM_CHANNEL_4, HAL_TIM_CHANNEL_STATE_READY);
 8006800:	68fb      	ldr	r3, [r7, #12]
 8006802:	2201      	movs	r2, #1
 8006804:	f883 2045 	strb.w	r2, [r3, #69]	; 0x45
  }

#if (USE_HAL_TIM_REGISTER_CALLBACKS == 1)
  htim->IC_CaptureCallback(htim);
#else
  HAL_TIM_IC_CaptureCallback(htim);
 8006808:	68f8      	ldr	r0, [r7, #12]
 800680a:	f7ff ff3c 	bl	8006686 <HAL_TIM_IC_CaptureCallback>
#endif /* USE_HAL_TIM_REGISTER_CALLBACKS */

  htim->Channel = HAL_TIM_ACTIVE_CHANNEL_CLEARED;
 800680e:	68fb      	ldr	r3, [r7, #12]
 8006810:	2200      	movs	r2, #0
 8006812:	771a      	strb	r2, [r3, #28]
}
 8006814:	bf00      	nop
 8006816:	3710      	adds	r7, #16
 8006818:	46bd      	mov	sp, r7
 800681a:	bd80      	pop	{r7, pc}

0800681c <TIM_DMACaptureHalfCplt>:
  * @brief  TIM DMA Capture half complete callback.
  * @param  hdma pointer to DMA handle.
  * @retval None
  */
void TIM_DMACaptureHalfCplt(DMA_HandleTypeDef *hdma)
{
 800681c:	b580      	push	{r7, lr}
 800681e:	b084      	sub	sp, #16
 8006820:	af00      	add	r7, sp, #0
 8006822:	6078      	str	r0, [r7, #4]
  TIM_HandleTypeDef *htim = (TIM_HandleTypeDef *)((DMA_HandleTypeDef *)hdma)->Parent;
 8006824:	687b      	ldr	r3, [r7, #4]
 8006826:	6b9b      	ldr	r3, [r3, #56]	; 0x38
 8006828:	60fb      	str	r3, [r7, #12]

  if (hdma == htim->hdma[TIM_DMA_ID_CC1])
 800682a:	68fb      	ldr	r3, [r7, #12]
 800682c:	6a5b      	ldr	r3, [r3, #36]	; 0x24
 800682e:	687a      	ldr	r2, [r7, #4]
 8006830:	429a      	cmp	r2, r3
 8006832:	d103      	bne.n	800683c <TIM_DMACaptureHalfCplt+0x20>
  {
    htim->Channel = HAL_TIM_ACTIVE_CHANNEL_1;
 8006834:	68fb      	ldr	r3, [r7, #12]
 8006836:	2201      	movs	r2, #1
 8006838:	771a      	strb	r2, [r3, #28]
 800683a:	e019      	b.n	8006870 <TIM_DMACaptureHalfCplt+0x54>
  }
  else if (hdma == htim->hdma[TIM_DMA_ID_CC2])
 800683c:	68fb      	ldr	r3, [r7, #12]
 800683e:	6a9b      	ldr	r3, [r3, #40]	; 0x28
 8006840:	687a      	ldr	r2, [r7, #4]
 8006842:	429a      	cmp	r2, r3
 8006844:	d103      	bne.n	800684e <TIM_DMACaptureHalfCplt+0x32>
  {
    htim->Channel = HAL_TIM_ACTIVE_CHANNEL_2;
 8006846:	68fb      	ldr	r3, [r7, #12]
 8006848:	2202      	movs	r2, #2
 800684a:	771a      	strb	r2, [r3, #28]
 800684c:	e010      	b.n	8006870 <TIM_DMACaptureHalfCplt+0x54>
  }
  else if (hdma == htim->hdma[TIM_DMA_ID_CC3])
 800684e:	68fb      	ldr	r3, [r7, #12]
 8006850:	6adb      	ldr	r3, [r3, #44]	; 0x2c
 8006852:	687a      	ldr	r2, [r7, #4]
 8006854:	429a      	cmp	r2, r3
 8006856:	d103      	bne.n	8006860 <TIM_DMACaptureHalfCplt+0x44>
  {
    htim->Channel = HAL_TIM_ACTIVE_CHANNEL_3;
 8006858:	68fb      	ldr	r3, [r7, #12]
 800685a:	2204      	movs	r2, #4
 800685c:	771a      	strb	r2, [r3, #28]
 800685e:	e007      	b.n	8006870 <TIM_DMACaptureHalfCplt+0x54>
  }
  else if (hdma == htim->hdma[TIM_DMA_ID_CC4])
 8006860:	68fb      	ldr	r3, [r7, #12]
 8006862:	6b1b      	ldr	r3, [r3, #48]	; 0x30
 8006864:	687a      	ldr	r2, [r7, #4]
 8006866:	429a      	cmp	r2, r3
 8006868:	d102      	bne.n	8006870 <TIM_DMACaptureHalfCplt+0x54>
  {
    htim->Channel = HAL_TIM_ACTIVE_CHANNEL_4;
 800686a:	68fb      	ldr	r3, [r7, #12]
 800686c:	2208      	movs	r2, #8
 800686e:	771a      	strb	r2, [r3, #28]
  }

#if (USE_HAL_TIM_REGISTER_CALLBACKS == 1)
  htim->IC_CaptureHalfCpltCallback(htim);
#else
  HAL_TIM_IC_CaptureHalfCpltCallback(htim);
 8006870:	68f8      	ldr	r0, [r7, #12]
 8006872:	f7ff ff12 	bl	800669a <HAL_TIM_IC_CaptureHalfCpltCallback>
#endif /* USE_HAL_TIM_REGISTER_CALLBACKS */

  htim->Channel = HAL_TIM_ACTIVE_CHANNEL_CLEARED;
 8006876:	68fb      	ldr	r3, [r7, #12]
 8006878:	2200      	movs	r2, #0
 800687a:	771a      	strb	r2, [r3, #28]
}
 800687c:	bf00      	nop
 800687e:	3710      	adds	r7, #16
 8006880:	46bd      	mov	sp, r7
 8006882:	bd80      	pop	{r7, pc}

08006884 <TIM_Base_SetConfig>:
  * @param  TIMx TIM peripheral
  * @param  Structure TIM Base configuration structure
  * @retval None
  */
void TIM_Base_SetConfig(TIM_TypeDef *TIMx, TIM_Base_InitTypeDef *Structure)
{
 8006884:	b480      	push	{r7}
 8006886:	b085      	sub	sp, #20
 8006888:	af00      	add	r7, sp, #0
 800688a:	6078      	str	r0, [r7, #4]
 800688c:	6039      	str	r1, [r7, #0]
  uint32_t tmpcr1;
  tmpcr1 = TIMx->CR1;
 800688e:	687b      	ldr	r3, [r7, #4]
 8006890:	681b      	ldr	r3, [r3, #0]
 8006892:	60fb      	str	r3, [r7, #12]

  /* Set TIM Time Base Unit parameters ---------------------------------------*/
  if (IS_TIM_COUNTER_MODE_SELECT_INSTANCE(TIMx))
 8006894:	687b      	ldr	r3, [r7, #4]
 8006896:	4a34      	ldr	r2, [pc, #208]	; (8006968 <TIM_Base_SetConfig+0xe4>)
 8006898:	4293      	cmp	r3, r2
 800689a:	d00f      	beq.n	80068bc <TIM_Base_SetConfig+0x38>
 800689c:	687b      	ldr	r3, [r7, #4]
 800689e:	f1b3 4f80 	cmp.w	r3, #1073741824	; 0x40000000
 80068a2:	d00b      	beq.n	80068bc <TIM_Base_SetConfig+0x38>
 80068a4:	687b      	ldr	r3, [r7, #4]
 80068a6:	4a31      	ldr	r2, [pc, #196]	; (800696c <TIM_Base_SetConfig+0xe8>)
 80068a8:	4293      	cmp	r3, r2
 80068aa:	d007      	beq.n	80068bc <TIM_Base_SetConfig+0x38>
 80068ac:	687b      	ldr	r3, [r7, #4]
 80068ae:	4a30      	ldr	r2, [pc, #192]	; (8006970 <TIM_Base_SetConfig+0xec>)
 80068b0:	4293      	cmp	r3, r2
 80068b2:	d003      	beq.n	80068bc <TIM_Base_SetConfig+0x38>
 80068b4:	687b      	ldr	r3, [r7, #4]
 80068b6:	4a2f      	ldr	r2, [pc, #188]	; (8006974 <TIM_Base_SetConfig+0xf0>)
 80068b8:	4293      	cmp	r3, r2
 80068ba:	d108      	bne.n	80068ce <TIM_Base_SetConfig+0x4a>
  {
    /* Select the Counter Mode */
    tmpcr1 &= ~(TIM_CR1_DIR | TIM_CR1_CMS);
 80068bc:	68fb      	ldr	r3, [r7, #12]
 80068be:	f023 0370 	bic.w	r3, r3, #112	; 0x70
 80068c2:	60fb      	str	r3, [r7, #12]
    tmpcr1 |= Structure->CounterMode;
 80068c4:	683b      	ldr	r3, [r7, #0]
 80068c6:	685b      	ldr	r3, [r3, #4]
 80068c8:	68fa      	ldr	r2, [r7, #12]
 80068ca:	4313      	orrs	r3, r2
 80068cc:	60fb      	str	r3, [r7, #12]
  }

  if (IS_TIM_CLOCK_DIVISION_INSTANCE(TIMx))
 80068ce:	687b      	ldr	r3, [r7, #4]
 80068d0:	4a25      	ldr	r2, [pc, #148]	; (8006968 <TIM_Base_SetConfig+0xe4>)
 80068d2:	4293      	cmp	r3, r2
 80068d4:	d01b      	beq.n	800690e <TIM_Base_SetConfig+0x8a>
 80068d6:	687b      	ldr	r3, [r7, #4]
 80068d8:	f1b3 4f80 	cmp.w	r3, #1073741824	; 0x40000000
 80068dc:	d017      	beq.n	800690e <TIM_Base_SetConfig+0x8a>
 80068de:	687b      	ldr	r3, [r7, #4]
 80068e0:	4a22      	ldr	r2, [pc, #136]	; (800696c <TIM_Base_SetConfig+0xe8>)
 80068e2:	4293      	cmp	r3, r2
 80068e4:	d013      	beq.n	800690e <TIM_Base_SetConfig+0x8a>
 80068e6:	687b      	ldr	r3, [r7, #4]
 80068e8:	4a21      	ldr	r2, [pc, #132]	; (8006970 <TIM_Base_SetConfig+0xec>)
 80068ea:	4293      	cmp	r3, r2
 80068ec:	d00f      	beq.n	800690e <TIM_Base_SetConfig+0x8a>
 80068ee:	687b      	ldr	r3, [r7, #4]
 80068f0:	4a20      	ldr	r2, [pc, #128]	; (8006974 <TIM_Base_SetConfig+0xf0>)
 80068f2:	4293      	cmp	r3, r2
 80068f4:	d00b      	beq.n	800690e <TIM_Base_SetConfig+0x8a>
 80068f6:	687b      	ldr	r3, [r7, #4]
 80068f8:	4a1f      	ldr	r2, [pc, #124]	; (8006978 <TIM_Base_SetConfig+0xf4>)
 80068fa:	4293      	cmp	r3, r2
 80068fc:	d007      	beq.n	800690e <TIM_Base_SetConfig+0x8a>
 80068fe:	687b      	ldr	r3, [r7, #4]
 8006900:	4a1e      	ldr	r2, [pc, #120]	; (800697c <TIM_Base_SetConfig+0xf8>)
 8006902:	4293      	cmp	r3, r2
 8006904:	d003      	beq.n	800690e <TIM_Base_SetConfig+0x8a>
 8006906:	687b      	ldr	r3, [r7, #4]
 8006908:	4a1d      	ldr	r2, [pc, #116]	; (8006980 <TIM_Base_SetConfig+0xfc>)
 800690a:	4293      	cmp	r3, r2
 800690c:	d108      	bne.n	8006920 <TIM_Base_SetConfig+0x9c>
  {
    /* Set the clock division */
    tmpcr1 &= ~TIM_CR1_CKD;
 800690e:	68fb      	ldr	r3, [r7, #12]
 8006910:	f423 7340 	bic.w	r3, r3, #768	; 0x300
 8006914:	60fb      	str	r3, [r7, #12]
    tmpcr1 |= (uint32_t)Structure->ClockDivision;
 8006916:	683b      	ldr	r3, [r7, #0]
 8006918:	68db      	ldr	r3, [r3, #12]
 800691a:	68fa      	ldr	r2, [r7, #12]
 800691c:	4313      	orrs	r3, r2
 800691e:	60fb      	str	r3, [r7, #12]
  }

  /* Set the auto-reload preload */
  MODIFY_REG(tmpcr1, TIM_CR1_ARPE, Structure->AutoReloadPreload);
 8006920:	68fb      	ldr	r3, [r7, #12]
 8006922:	f023 0280 	bic.w	r2, r3, #128	; 0x80
 8006926:	683b      	ldr	r3, [r7, #0]
 8006928:	695b      	ldr	r3, [r3, #20]
 800692a:	4313      	orrs	r3, r2
 800692c:	60fb      	str	r3, [r7, #12]

  TIMx->CR1 = tmpcr1;
 800692e:	687b      	ldr	r3, [r7, #4]
 8006930:	68fa      	ldr	r2, [r7, #12]
 8006932:	601a      	str	r2, [r3, #0]

  /* Set the Autoreload value */
  TIMx->ARR = (uint32_t)Structure->Period ;
 8006934:	683b      	ldr	r3, [r7, #0]
 8006936:	689a      	ldr	r2, [r3, #8]
 8006938:	687b      	ldr	r3, [r7, #4]
 800693a:	62da      	str	r2, [r3, #44]	; 0x2c

  /* Set the Prescaler value */
  TIMx->PSC = Structure->Prescaler;
 800693c:	683b      	ldr	r3, [r7, #0]
 800693e:	681a      	ldr	r2, [r3, #0]
 8006940:	687b      	ldr	r3, [r7, #4]
 8006942:	629a      	str	r2, [r3, #40]	; 0x28

  if (IS_TIM_REPETITION_COUNTER_INSTANCE(TIMx))
 8006944:	687b      	ldr	r3, [r7, #4]
 8006946:	4a08      	ldr	r2, [pc, #32]	; (8006968 <TIM_Base_SetConfig+0xe4>)
 8006948:	4293      	cmp	r3, r2
 800694a:	d103      	bne.n	8006954 <TIM_Base_SetConfig+0xd0>
  {
    /* Set the Repetition Counter value */
    TIMx->RCR = Structure->RepetitionCounter;
 800694c:	683b      	ldr	r3, [r7, #0]
 800694e:	691a      	ldr	r2, [r3, #16]
 8006950:	687b      	ldr	r3, [r7, #4]
 8006952:	631a      	str	r2, [r3, #48]	; 0x30
  }

  /* Generate an update event to reload the Prescaler
     and the repetition counter (only for advanced timer) value immediately */
  TIMx->EGR = TIM_EGR_UG;
 8006954:	687b      	ldr	r3, [r7, #4]
 8006956:	2201      	movs	r2, #1
 8006958:	615a      	str	r2, [r3, #20]
}
 800695a:	bf00      	nop
 800695c:	3714      	adds	r7, #20
 800695e:	46bd      	mov	sp, r7
 8006960:	f85d 7b04 	ldr.w	r7, [sp], #4
 8006964:	4770      	bx	lr
 8006966:	bf00      	nop
 8006968:	40010000 	.word	0x40010000
 800696c:	40000400 	.word	0x40000400
 8006970:	40000800 	.word	0x40000800
 8006974:	40000c00 	.word	0x40000c00
 8006978:	40014000 	.word	0x40014000
 800697c:	40014400 	.word	0x40014400
 8006980:	40014800 	.word	0x40014800

08006984 <TIM_OC1_SetConfig>:
  * @param  TIMx to select the TIM peripheral
  * @param  OC_Config The output configuration structure
  * @retval None
  */
static void TIM_OC1_SetConfig(TIM_TypeDef *TIMx, TIM_OC_InitTypeDef *OC_Config)
{
 8006984:	b480      	push	{r7}
 8006986:	b087      	sub	sp, #28
 8006988:	af00      	add	r7, sp, #0
 800698a:	6078      	str	r0, [r7, #4]
 800698c:	6039      	str	r1, [r7, #0]
  uint32_t tmpccmrx;
  uint32_t tmpccer;
  uint32_t tmpcr2;

  /* Disable the Channel 1: Reset the CC1E Bit */
  TIMx->CCER &= ~TIM_CCER_CC1E;
 800698e:	687b      	ldr	r3, [r7, #4]
 8006990:	6a1b      	ldr	r3, [r3, #32]
 8006992:	f023 0201 	bic.w	r2, r3, #1
 8006996:	687b      	ldr	r3, [r7, #4]
 8006998:	621a      	str	r2, [r3, #32]

  /* Get the TIMx CCER register value */
  tmpccer = TIMx->CCER;
 800699a:	687b      	ldr	r3, [r7, #4]
 800699c:	6a1b      	ldr	r3, [r3, #32]
 800699e:	617b      	str	r3, [r7, #20]
  /* Get the TIMx CR2 register value */
  tmpcr2 =  TIMx->CR2;
 80069a0:	687b      	ldr	r3, [r7, #4]
 80069a2:	685b      	ldr	r3, [r3, #4]
 80069a4:	613b      	str	r3, [r7, #16]

  /* Get the TIMx CCMR1 register value */
  tmpccmrx = TIMx->CCMR1;
 80069a6:	687b      	ldr	r3, [r7, #4]
 80069a8:	699b      	ldr	r3, [r3, #24]
 80069aa:	60fb      	str	r3, [r7, #12]

  /* Reset the Output Compare Mode Bits */
  tmpccmrx &= ~TIM_CCMR1_OC1M;
 80069ac:	68fb      	ldr	r3, [r7, #12]
 80069ae:	f023 0370 	bic.w	r3, r3, #112	; 0x70
 80069b2:	60fb      	str	r3, [r7, #12]
  tmpccmrx &= ~TIM_CCMR1_CC1S;
 80069b4:	68fb      	ldr	r3, [r7, #12]
 80069b6:	f023 0303 	bic.w	r3, r3, #3
 80069ba:	60fb      	str	r3, [r7, #12]
  /* Select the Output Compare Mode */
  tmpccmrx |= OC_Config->OCMode;
 80069bc:	683b      	ldr	r3, [r7, #0]
 80069be:	681b      	ldr	r3, [r3, #0]
 80069c0:	68fa      	ldr	r2, [r7, #12]
 80069c2:	4313      	orrs	r3, r2
 80069c4:	60fb      	str	r3, [r7, #12]

  /* Reset the Output Polarity level */
  tmpccer &= ~TIM_CCER_CC1P;
 80069c6:	697b      	ldr	r3, [r7, #20]
 80069c8:	f023 0302 	bic.w	r3, r3, #2
 80069cc:	617b      	str	r3, [r7, #20]
  /* Set the Output Compare Polarity */
  tmpccer |= OC_Config->OCPolarity;
 80069ce:	683b      	ldr	r3, [r7, #0]
 80069d0:	689b      	ldr	r3, [r3, #8]
 80069d2:	697a      	ldr	r2, [r7, #20]
 80069d4:	4313      	orrs	r3, r2
 80069d6:	617b      	str	r3, [r7, #20]

  if (IS_TIM_CCXN_INSTANCE(TIMx, TIM_CHANNEL_1))
 80069d8:	687b      	ldr	r3, [r7, #4]
 80069da:	4a1c      	ldr	r2, [pc, #112]	; (8006a4c <TIM_OC1_SetConfig+0xc8>)
 80069dc:	4293      	cmp	r3, r2
 80069de:	d10c      	bne.n	80069fa <TIM_OC1_SetConfig+0x76>
  {
    /* Check parameters */
    assert_param(IS_TIM_OCN_POLARITY(OC_Config->OCNPolarity));

    /* Reset the Output N Polarity level */
    tmpccer &= ~TIM_CCER_CC1NP;
 80069e0:	697b      	ldr	r3, [r7, #20]
 80069e2:	f023 0308 	bic.w	r3, r3, #8
 80069e6:	617b      	str	r3, [r7, #20]
    /* Set the Output N Polarity */
    tmpccer |= OC_Config->OCNPolarity;
 80069e8:	683b      	ldr	r3, [r7, #0]
 80069ea:	68db      	ldr	r3, [r3, #12]
 80069ec:	697a      	ldr	r2, [r7, #20]
 80069ee:	4313      	orrs	r3, r2
 80069f0:	617b      	str	r3, [r7, #20]
    /* Reset the Output N State */
    tmpccer &= ~TIM_CCER_CC1NE;
 80069f2:	697b      	ldr	r3, [r7, #20]
 80069f4:	f023 0304 	bic.w	r3, r3, #4
 80069f8:	617b      	str	r3, [r7, #20]
  }

  if (IS_TIM_BREAK_INSTANCE(TIMx))
 80069fa:	687b      	ldr	r3, [r7, #4]
 80069fc:	4a13      	ldr	r2, [pc, #76]	; (8006a4c <TIM_OC1_SetConfig+0xc8>)
 80069fe:	4293      	cmp	r3, r2
 8006a00:	d111      	bne.n	8006a26 <TIM_OC1_SetConfig+0xa2>
    /* Check parameters */
    assert_param(IS_TIM_OCNIDLE_STATE(OC_Config->OCNIdleState));
    assert_param(IS_TIM_OCIDLE_STATE(OC_Config->OCIdleState));

    /* Reset the Output Compare and Output Compare N IDLE State */
    tmpcr2 &= ~TIM_CR2_OIS1;
 8006a02:	693b      	ldr	r3, [r7, #16]
 8006a04:	f423 7380 	bic.w	r3, r3, #256	; 0x100
 8006a08:	613b      	str	r3, [r7, #16]
    tmpcr2 &= ~TIM_CR2_OIS1N;
 8006a0a:	693b      	ldr	r3, [r7, #16]
 8006a0c:	f423 7300 	bic.w	r3, r3, #512	; 0x200
 8006a10:	613b      	str	r3, [r7, #16]
    /* Set the Output Idle state */
    tmpcr2 |= OC_Config->OCIdleState;
 8006a12:	683b      	ldr	r3, [r7, #0]
 8006a14:	695b      	ldr	r3, [r3, #20]
 8006a16:	693a      	ldr	r2, [r7, #16]
 8006a18:	4313      	orrs	r3, r2
 8006a1a:	613b      	str	r3, [r7, #16]
    /* Set the Output N Idle state */
    tmpcr2 |= OC_Config->OCNIdleState;
 8006a1c:	683b      	ldr	r3, [r7, #0]
 8006a1e:	699b      	ldr	r3, [r3, #24]
 8006a20:	693a      	ldr	r2, [r7, #16]
 8006a22:	4313      	orrs	r3, r2
 8006a24:	613b      	str	r3, [r7, #16]
  }

  /* Write to TIMx CR2 */
  TIMx->CR2 = tmpcr2;
 8006a26:	687b      	ldr	r3, [r7, #4]
 8006a28:	693a      	ldr	r2, [r7, #16]
 8006a2a:	605a      	str	r2, [r3, #4]

  /* Write to TIMx CCMR1 */
  TIMx->CCMR1 = tmpccmrx;
 8006a2c:	687b      	ldr	r3, [r7, #4]
 8006a2e:	68fa      	ldr	r2, [r7, #12]
 8006a30:	619a      	str	r2, [r3, #24]

  /* Set the Capture Compare Register value */
  TIMx->CCR1 = OC_Config->Pulse;
 8006a32:	683b      	ldr	r3, [r7, #0]
 8006a34:	685a      	ldr	r2, [r3, #4]
 8006a36:	687b      	ldr	r3, [r7, #4]
 8006a38:	635a      	str	r2, [r3, #52]	; 0x34

  /* Write to TIMx CCER */
  TIMx->CCER = tmpccer;
 8006a3a:	687b      	ldr	r3, [r7, #4]
 8006a3c:	697a      	ldr	r2, [r7, #20]
 8006a3e:	621a      	str	r2, [r3, #32]
}
 8006a40:	bf00      	nop
 8006a42:	371c      	adds	r7, #28
 8006a44:	46bd      	mov	sp, r7
 8006a46:	f85d 7b04 	ldr.w	r7, [sp], #4
 8006a4a:	4770      	bx	lr
 8006a4c:	40010000 	.word	0x40010000

08006a50 <TIM_OC2_SetConfig>:
  * @param  TIMx to select the TIM peripheral
  * @param  OC_Config The output configuration structure
  * @retval None
  */
void TIM_OC2_SetConfig(TIM_TypeDef *TIMx, TIM_OC_InitTypeDef *OC_Config)
{
 8006a50:	b480      	push	{r7}
 8006a52:	b087      	sub	sp, #28
 8006a54:	af00      	add	r7, sp, #0
 8006a56:	6078      	str	r0, [r7, #4]
 8006a58:	6039      	str	r1, [r7, #0]
  uint32_t tmpccmrx;
  uint32_t tmpccer;
  uint32_t tmpcr2;

  /* Disable the Channel 2: Reset the CC2E Bit */
  TIMx->CCER &= ~TIM_CCER_CC2E;
 8006a5a:	687b      	ldr	r3, [r7, #4]
 8006a5c:	6a1b      	ldr	r3, [r3, #32]
 8006a5e:	f023 0210 	bic.w	r2, r3, #16
 8006a62:	687b      	ldr	r3, [r7, #4]
 8006a64:	621a      	str	r2, [r3, #32]

  /* Get the TIMx CCER register value */
  tmpccer = TIMx->CCER;
 8006a66:	687b      	ldr	r3, [r7, #4]
 8006a68:	6a1b      	ldr	r3, [r3, #32]
 8006a6a:	617b      	str	r3, [r7, #20]
  /* Get the TIMx CR2 register value */
  tmpcr2 =  TIMx->CR2;
 8006a6c:	687b      	ldr	r3, [r7, #4]
 8006a6e:	685b      	ldr	r3, [r3, #4]
 8006a70:	613b      	str	r3, [r7, #16]

  /* Get the TIMx CCMR1 register value */
  tmpccmrx = TIMx->CCMR1;
 8006a72:	687b      	ldr	r3, [r7, #4]
 8006a74:	699b      	ldr	r3, [r3, #24]
 8006a76:	60fb      	str	r3, [r7, #12]

  /* Reset the Output Compare mode and Capture/Compare selection Bits */
  tmpccmrx &= ~TIM_CCMR1_OC2M;
 8006a78:	68fb      	ldr	r3, [r7, #12]
 8006a7a:	f423 43e0 	bic.w	r3, r3, #28672	; 0x7000
 8006a7e:	60fb      	str	r3, [r7, #12]
  tmpccmrx &= ~TIM_CCMR1_CC2S;
 8006a80:	68fb      	ldr	r3, [r7, #12]
 8006a82:	f423 7340 	bic.w	r3, r3, #768	; 0x300
 8006a86:	60fb      	str	r3, [r7, #12]

  /* Select the Output Compare Mode */
  tmpccmrx |= (OC_Config->OCMode << 8U);
 8006a88:	683b      	ldr	r3, [r7, #0]
 8006a8a:	681b      	ldr	r3, [r3, #0]
 8006a8c:	021b      	lsls	r3, r3, #8
 8006a8e:	68fa      	ldr	r2, [r7, #12]
 8006a90:	4313      	orrs	r3, r2
 8006a92:	60fb      	str	r3, [r7, #12]

  /* Reset the Output Polarity level */
  tmpccer &= ~TIM_CCER_CC2P;
 8006a94:	697b      	ldr	r3, [r7, #20]
 8006a96:	f023 0320 	bic.w	r3, r3, #32
 8006a9a:	617b      	str	r3, [r7, #20]
  /* Set the Output Compare Polarity */
  tmpccer |= (OC_Config->OCPolarity << 4U);
 8006a9c:	683b      	ldr	r3, [r7, #0]
 8006a9e:	689b      	ldr	r3, [r3, #8]
 8006aa0:	011b      	lsls	r3, r3, #4
 8006aa2:	697a      	ldr	r2, [r7, #20]
 8006aa4:	4313      	orrs	r3, r2
 8006aa6:	617b      	str	r3, [r7, #20]

  if (IS_TIM_CCXN_INSTANCE(TIMx, TIM_CHANNEL_2))
 8006aa8:	687b      	ldr	r3, [r7, #4]
 8006aaa:	4a1e      	ldr	r2, [pc, #120]	; (8006b24 <TIM_OC2_SetConfig+0xd4>)
 8006aac:	4293      	cmp	r3, r2
 8006aae:	d10d      	bne.n	8006acc <TIM_OC2_SetConfig+0x7c>
  {
    assert_param(IS_TIM_OCN_POLARITY(OC_Config->OCNPolarity));

    /* Reset the Output N Polarity level */
    tmpccer &= ~TIM_CCER_CC2NP;
 8006ab0:	697b      	ldr	r3, [r7, #20]
 8006ab2:	f023 0380 	bic.w	r3, r3, #128	; 0x80
 8006ab6:	617b      	str	r3, [r7, #20]
    /* Set the Output N Polarity */
    tmpccer |= (OC_Config->OCNPolarity << 4U);
 8006ab8:	683b      	ldr	r3, [r7, #0]
 8006aba:	68db      	ldr	r3, [r3, #12]
 8006abc:	011b      	lsls	r3, r3, #4
 8006abe:	697a      	ldr	r2, [r7, #20]
 8006ac0:	4313      	orrs	r3, r2
 8006ac2:	617b      	str	r3, [r7, #20]
    /* Reset the Output N State */
    tmpccer &= ~TIM_CCER_CC2NE;
 8006ac4:	697b      	ldr	r3, [r7, #20]
 8006ac6:	f023 0340 	bic.w	r3, r3, #64	; 0x40
 8006aca:	617b      	str	r3, [r7, #20]

  }

  if (IS_TIM_BREAK_INSTANCE(TIMx))
 8006acc:	687b      	ldr	r3, [r7, #4]
 8006ace:	4a15      	ldr	r2, [pc, #84]	; (8006b24 <TIM_OC2_SetConfig+0xd4>)
 8006ad0:	4293      	cmp	r3, r2
 8006ad2:	d113      	bne.n	8006afc <TIM_OC2_SetConfig+0xac>
    /* Check parameters */
    assert_param(IS_TIM_OCNIDLE_STATE(OC_Config->OCNIdleState));
    assert_param(IS_TIM_OCIDLE_STATE(OC_Config->OCIdleState));

    /* Reset the Output Compare and Output Compare N IDLE State */
    tmpcr2 &= ~TIM_CR2_OIS2;
 8006ad4:	693b      	ldr	r3, [r7, #16]
 8006ad6:	f423 6380 	bic.w	r3, r3, #1024	; 0x400
 8006ada:	613b      	str	r3, [r7, #16]
    tmpcr2 &= ~TIM_CR2_OIS2N;
 8006adc:	693b      	ldr	r3, [r7, #16]
 8006ade:	f423 6300 	bic.w	r3, r3, #2048	; 0x800
 8006ae2:	613b      	str	r3, [r7, #16]
    /* Set the Output Idle state */
    tmpcr2 |= (OC_Config->OCIdleState << 2U);
 8006ae4:	683b      	ldr	r3, [r7, #0]
 8006ae6:	695b      	ldr	r3, [r3, #20]
 8006ae8:	009b      	lsls	r3, r3, #2
 8006aea:	693a      	ldr	r2, [r7, #16]
 8006aec:	4313      	orrs	r3, r2
 8006aee:	613b      	str	r3, [r7, #16]
    /* Set the Output N Idle state */
    tmpcr2 |= (OC_Config->OCNIdleState << 2U);
 8006af0:	683b      	ldr	r3, [r7, #0]
 8006af2:	699b      	ldr	r3, [r3, #24]
 8006af4:	009b      	lsls	r3, r3, #2
 8006af6:	693a      	ldr	r2, [r7, #16]
 8006af8:	4313      	orrs	r3, r2
 8006afa:	613b      	str	r3, [r7, #16]
  }

  /* Write to TIMx CR2 */
  TIMx->CR2 = tmpcr2;
 8006afc:	687b      	ldr	r3, [r7, #4]
 8006afe:	693a      	ldr	r2, [r7, #16]
 8006b00:	605a      	str	r2, [r3, #4]

  /* Write to TIMx CCMR1 */
  TIMx->CCMR1 = tmpccmrx;
 8006b02:	687b      	ldr	r3, [r7, #4]
 8006b04:	68fa      	ldr	r2, [r7, #12]
 8006b06:	619a      	str	r2, [r3, #24]

  /* Set the Capture Compare Register value */
  TIMx->CCR2 = OC_Config->Pulse;
 8006b08:	683b      	ldr	r3, [r7, #0]
 8006b0a:	685a      	ldr	r2, [r3, #4]
 8006b0c:	687b      	ldr	r3, [r7, #4]
 8006b0e:	639a      	str	r2, [r3, #56]	; 0x38

  /* Write to TIMx CCER */
  TIMx->CCER = tmpccer;
 8006b10:	687b      	ldr	r3, [r7, #4]
 8006b12:	697a      	ldr	r2, [r7, #20]
 8006b14:	621a      	str	r2, [r3, #32]
}
 8006b16:	bf00      	nop
 8006b18:	371c      	adds	r7, #28
 8006b1a:	46bd      	mov	sp, r7
 8006b1c:	f85d 7b04 	ldr.w	r7, [sp], #4
 8006b20:	4770      	bx	lr
 8006b22:	bf00      	nop
 8006b24:	40010000 	.word	0x40010000

08006b28 <TIM_OC3_SetConfig>:
  * @param  TIMx to select the TIM peripheral
  * @param  OC_Config The output configuration structure
  * @retval None
  */
static void TIM_OC3_SetConfig(TIM_TypeDef *TIMx, TIM_OC_InitTypeDef *OC_Config)
{
 8006b28:	b480      	push	{r7}
 8006b2a:	b087      	sub	sp, #28
 8006b2c:	af00      	add	r7, sp, #0
 8006b2e:	6078      	str	r0, [r7, #4]
 8006b30:	6039      	str	r1, [r7, #0]
  uint32_t tmpccmrx;
  uint32_t tmpccer;
  uint32_t tmpcr2;

  /* Disable the Channel 3: Reset the CC2E Bit */
  TIMx->CCER &= ~TIM_CCER_CC3E;
 8006b32:	687b      	ldr	r3, [r7, #4]
 8006b34:	6a1b      	ldr	r3, [r3, #32]
 8006b36:	f423 7280 	bic.w	r2, r3, #256	; 0x100
 8006b3a:	687b      	ldr	r3, [r7, #4]
 8006b3c:	621a      	str	r2, [r3, #32]

  /* Get the TIMx CCER register value */
  tmpccer = TIMx->CCER;
 8006b3e:	687b      	ldr	r3, [r7, #4]
 8006b40:	6a1b      	ldr	r3, [r3, #32]
 8006b42:	617b      	str	r3, [r7, #20]
  /* Get the TIMx CR2 register value */
  tmpcr2 =  TIMx->CR2;
 8006b44:	687b      	ldr	r3, [r7, #4]
 8006b46:	685b      	ldr	r3, [r3, #4]
 8006b48:	613b      	str	r3, [r7, #16]

  /* Get the TIMx CCMR2 register value */
  tmpccmrx = TIMx->CCMR2;
 8006b4a:	687b      	ldr	r3, [r7, #4]
 8006b4c:	69db      	ldr	r3, [r3, #28]
 8006b4e:	60fb      	str	r3, [r7, #12]

  /* Reset the Output Compare mode and Capture/Compare selection Bits */
  tmpccmrx &= ~TIM_CCMR2_OC3M;
 8006b50:	68fb      	ldr	r3, [r7, #12]
 8006b52:	f023 0370 	bic.w	r3, r3, #112	; 0x70
 8006b56:	60fb      	str	r3, [r7, #12]
  tmpccmrx &= ~TIM_CCMR2_CC3S;
 8006b58:	68fb      	ldr	r3, [r7, #12]
 8006b5a:	f023 0303 	bic.w	r3, r3, #3
 8006b5e:	60fb      	str	r3, [r7, #12]
  /* Select the Output Compare Mode */
  tmpccmrx |= OC_Config->OCMode;
 8006b60:	683b      	ldr	r3, [r7, #0]
 8006b62:	681b      	ldr	r3, [r3, #0]
 8006b64:	68fa      	ldr	r2, [r7, #12]
 8006b66:	4313      	orrs	r3, r2
 8006b68:	60fb      	str	r3, [r7, #12]

  /* Reset the Output Polarity level */
  tmpccer &= ~TIM_CCER_CC3P;
 8006b6a:	697b      	ldr	r3, [r7, #20]
 8006b6c:	f423 7300 	bic.w	r3, r3, #512	; 0x200
 8006b70:	617b      	str	r3, [r7, #20]
  /* Set the Output Compare Polarity */
  tmpccer |= (OC_Config->OCPolarity << 8U);
 8006b72:	683b      	ldr	r3, [r7, #0]
 8006b74:	689b      	ldr	r3, [r3, #8]
 8006b76:	021b      	lsls	r3, r3, #8
 8006b78:	697a      	ldr	r2, [r7, #20]
 8006b7a:	4313      	orrs	r3, r2
 8006b7c:	617b      	str	r3, [r7, #20]

  if (IS_TIM_CCXN_INSTANCE(TIMx, TIM_CHANNEL_3))
 8006b7e:	687b      	ldr	r3, [r7, #4]
 8006b80:	4a1d      	ldr	r2, [pc, #116]	; (8006bf8 <TIM_OC3_SetConfig+0xd0>)
 8006b82:	4293      	cmp	r3, r2
 8006b84:	d10d      	bne.n	8006ba2 <TIM_OC3_SetConfig+0x7a>
  {
    assert_param(IS_TIM_OCN_POLARITY(OC_Config->OCNPolarity));

    /* Reset the Output N Polarity level */
    tmpccer &= ~TIM_CCER_CC3NP;
 8006b86:	697b      	ldr	r3, [r7, #20]
 8006b88:	f423 6300 	bic.w	r3, r3, #2048	; 0x800
 8006b8c:	617b      	str	r3, [r7, #20]
    /* Set the Output N Polarity */
    tmpccer |= (OC_Config->OCNPolarity << 8U);
 8006b8e:	683b      	ldr	r3, [r7, #0]
 8006b90:	68db      	ldr	r3, [r3, #12]
 8006b92:	021b      	lsls	r3, r3, #8
 8006b94:	697a      	ldr	r2, [r7, #20]
 8006b96:	4313      	orrs	r3, r2
 8006b98:	617b      	str	r3, [r7, #20]
    /* Reset the Output N State */
    tmpccer &= ~TIM_CCER_CC3NE;
 8006b9a:	697b      	ldr	r3, [r7, #20]
 8006b9c:	f423 6380 	bic.w	r3, r3, #1024	; 0x400
 8006ba0:	617b      	str	r3, [r7, #20]
  }

  if (IS_TIM_BREAK_INSTANCE(TIMx))
 8006ba2:	687b      	ldr	r3, [r7, #4]
 8006ba4:	4a14      	ldr	r2, [pc, #80]	; (8006bf8 <TIM_OC3_SetConfig+0xd0>)
 8006ba6:	4293      	cmp	r3, r2
 8006ba8:	d113      	bne.n	8006bd2 <TIM_OC3_SetConfig+0xaa>
    /* Check parameters */
    assert_param(IS_TIM_OCNIDLE_STATE(OC_Config->OCNIdleState));
    assert_param(IS_TIM_OCIDLE_STATE(OC_Config->OCIdleState));

    /* Reset the Output Compare and Output Compare N IDLE State */
    tmpcr2 &= ~TIM_CR2_OIS3;
 8006baa:	693b      	ldr	r3, [r7, #16]
 8006bac:	f423 5380 	bic.w	r3, r3, #4096	; 0x1000
 8006bb0:	613b      	str	r3, [r7, #16]
    tmpcr2 &= ~TIM_CR2_OIS3N;
 8006bb2:	693b      	ldr	r3, [r7, #16]
 8006bb4:	f423 5300 	bic.w	r3, r3, #8192	; 0x2000
 8006bb8:	613b      	str	r3, [r7, #16]
    /* Set the Output Idle state */
    tmpcr2 |= (OC_Config->OCIdleState << 4U);
 8006bba:	683b      	ldr	r3, [r7, #0]
 8006bbc:	695b      	ldr	r3, [r3, #20]
 8006bbe:	011b      	lsls	r3, r3, #4
 8006bc0:	693a      	ldr	r2, [r7, #16]
 8006bc2:	4313      	orrs	r3, r2
 8006bc4:	613b      	str	r3, [r7, #16]
    /* Set the Output N Idle state */
    tmpcr2 |= (OC_Config->OCNIdleState << 4U);
 8006bc6:	683b      	ldr	r3, [r7, #0]
 8006bc8:	699b      	ldr	r3, [r3, #24]
 8006bca:	011b      	lsls	r3, r3, #4
 8006bcc:	693a      	ldr	r2, [r7, #16]
 8006bce:	4313      	orrs	r3, r2
 8006bd0:	613b      	str	r3, [r7, #16]
  }

  /* Write to TIMx CR2 */
  TIMx->CR2 = tmpcr2;
 8006bd2:	687b      	ldr	r3, [r7, #4]
 8006bd4:	693a      	ldr	r2, [r7, #16]
 8006bd6:	605a      	str	r2, [r3, #4]

  /* Write to TIMx CCMR2 */
  TIMx->CCMR2 = tmpccmrx;
 8006bd8:	687b      	ldr	r3, [r7, #4]
 8006bda:	68fa      	ldr	r2, [r7, #12]
 8006bdc:	61da      	str	r2, [r3, #28]

  /* Set the Capture Compare Register value */
  TIMx->CCR3 = OC_Config->Pulse;
 8006bde:	683b      	ldr	r3, [r7, #0]
 8006be0:	685a      	ldr	r2, [r3, #4]
 8006be2:	687b      	ldr	r3, [r7, #4]
 8006be4:	63da      	str	r2, [r3, #60]	; 0x3c

  /* Write to TIMx CCER */
  TIMx->CCER = tmpccer;
 8006be6:	687b      	ldr	r3, [r7, #4]
 8006be8:	697a      	ldr	r2, [r7, #20]
 8006bea:	621a      	str	r2, [r3, #32]
}
 8006bec:	bf00      	nop
 8006bee:	371c      	adds	r7, #28
 8006bf0:	46bd      	mov	sp, r7
 8006bf2:	f85d 7b04 	ldr.w	r7, [sp], #4
 8006bf6:	4770      	bx	lr
 8006bf8:	40010000 	.word	0x40010000

08006bfc <TIM_OC4_SetConfig>:
  * @param  TIMx to select the TIM peripheral
  * @param  OC_Config The output configuration structure
  * @retval None
  */
static void TIM_OC4_SetConfig(TIM_TypeDef *TIMx, TIM_OC_InitTypeDef *OC_Config)
{
 8006bfc:	b480      	push	{r7}
 8006bfe:	b087      	sub	sp, #28
 8006c00:	af00      	add	r7, sp, #0
 8006c02:	6078      	str	r0, [r7, #4]
 8006c04:	6039      	str	r1, [r7, #0]
  uint32_t tmpccmrx;
  uint32_t tmpccer;
  uint32_t tmpcr2;

  /* Disable the Channel 4: Reset the CC4E Bit */
  TIMx->CCER &= ~TIM_CCER_CC4E;
 8006c06:	687b      	ldr	r3, [r7, #4]
 8006c08:	6a1b      	ldr	r3, [r3, #32]
 8006c0a:	f423 5280 	bic.w	r2, r3, #4096	; 0x1000
 8006c0e:	687b      	ldr	r3, [r7, #4]
 8006c10:	621a      	str	r2, [r3, #32]

  /* Get the TIMx CCER register value */
  tmpccer = TIMx->CCER;
 8006c12:	687b      	ldr	r3, [r7, #4]
 8006c14:	6a1b      	ldr	r3, [r3, #32]
 8006c16:	613b      	str	r3, [r7, #16]
  /* Get the TIMx CR2 register value */
  tmpcr2 =  TIMx->CR2;
 8006c18:	687b      	ldr	r3, [r7, #4]
 8006c1a:	685b      	ldr	r3, [r3, #4]
 8006c1c:	617b      	str	r3, [r7, #20]

  /* Get the TIMx CCMR2 register value */
  tmpccmrx = TIMx->CCMR2;
 8006c1e:	687b      	ldr	r3, [r7, #4]
 8006c20:	69db      	ldr	r3, [r3, #28]
 8006c22:	60fb      	str	r3, [r7, #12]

  /* Reset the Output Compare mode and Capture/Compare selection Bits */
  tmpccmrx &= ~TIM_CCMR2_OC4M;
 8006c24:	68fb      	ldr	r3, [r7, #12]
 8006c26:	f423 43e0 	bic.w	r3, r3, #28672	; 0x7000
 8006c2a:	60fb      	str	r3, [r7, #12]
  tmpccmrx &= ~TIM_CCMR2_CC4S;
 8006c2c:	68fb      	ldr	r3, [r7, #12]
 8006c2e:	f423 7340 	bic.w	r3, r3, #768	; 0x300
 8006c32:	60fb      	str	r3, [r7, #12]

  /* Select the Output Compare Mode */
  tmpccmrx |= (OC_Config->OCMode << 8U);
 8006c34:	683b      	ldr	r3, [r7, #0]
 8006c36:	681b      	ldr	r3, [r3, #0]
 8006c38:	021b      	lsls	r3, r3, #8
 8006c3a:	68fa      	ldr	r2, [r7, #12]
 8006c3c:	4313      	orrs	r3, r2
 8006c3e:	60fb      	str	r3, [r7, #12]

  /* Reset the Output Polarity level */
  tmpccer &= ~TIM_CCER_CC4P;
 8006c40:	693b      	ldr	r3, [r7, #16]
 8006c42:	f423 5300 	bic.w	r3, r3, #8192	; 0x2000
 8006c46:	613b      	str	r3, [r7, #16]
  /* Set the Output Compare Polarity */
  tmpccer |= (OC_Config->OCPolarity << 12U);
 8006c48:	683b      	ldr	r3, [r7, #0]
 8006c4a:	689b      	ldr	r3, [r3, #8]
 8006c4c:	031b      	lsls	r3, r3, #12
 8006c4e:	693a      	ldr	r2, [r7, #16]
 8006c50:	4313      	orrs	r3, r2
 8006c52:	613b      	str	r3, [r7, #16]

  if (IS_TIM_BREAK_INSTANCE(TIMx))
 8006c54:	687b      	ldr	r3, [r7, #4]
 8006c56:	4a10      	ldr	r2, [pc, #64]	; (8006c98 <TIM_OC4_SetConfig+0x9c>)
 8006c58:	4293      	cmp	r3, r2
 8006c5a:	d109      	bne.n	8006c70 <TIM_OC4_SetConfig+0x74>
  {
    /* Check parameters */
    assert_param(IS_TIM_OCIDLE_STATE(OC_Config->OCIdleState));

    /* Reset the Output Compare IDLE State */
    tmpcr2 &= ~TIM_CR2_OIS4;
 8006c5c:	697b      	ldr	r3, [r7, #20]
 8006c5e:	f423 4380 	bic.w	r3, r3, #16384	; 0x4000
 8006c62:	617b      	str	r3, [r7, #20]

    /* Set the Output Idle state */
    tmpcr2 |= (OC_Config->OCIdleState << 6U);
 8006c64:	683b      	ldr	r3, [r7, #0]
 8006c66:	695b      	ldr	r3, [r3, #20]
 8006c68:	019b      	lsls	r3, r3, #6
 8006c6a:	697a      	ldr	r2, [r7, #20]
 8006c6c:	4313      	orrs	r3, r2
 8006c6e:	617b      	str	r3, [r7, #20]
  }

  /* Write to TIMx CR2 */
  TIMx->CR2 = tmpcr2;
 8006c70:	687b      	ldr	r3, [r7, #4]
 8006c72:	697a      	ldr	r2, [r7, #20]
 8006c74:	605a      	str	r2, [r3, #4]

  /* Write to TIMx CCMR2 */
  TIMx->CCMR2 = tmpccmrx;
 8006c76:	687b      	ldr	r3, [r7, #4]
 8006c78:	68fa      	ldr	r2, [r7, #12]
 8006c7a:	61da      	str	r2, [r3, #28]

  /* Set the Capture Compare Register value */
  TIMx->CCR4 = OC_Config->Pulse;
 8006c7c:	683b      	ldr	r3, [r7, #0]
 8006c7e:	685a      	ldr	r2, [r3, #4]
 8006c80:	687b      	ldr	r3, [r7, #4]
 8006c82:	641a      	str	r2, [r3, #64]	; 0x40

  /* Write to TIMx CCER */
  TIMx->CCER = tmpccer;
 8006c84:	687b      	ldr	r3, [r7, #4]
 8006c86:	693a      	ldr	r2, [r7, #16]
 8006c88:	621a      	str	r2, [r3, #32]
}
 8006c8a:	bf00      	nop
 8006c8c:	371c      	adds	r7, #28
 8006c8e:	46bd      	mov	sp, r7
 8006c90:	f85d 7b04 	ldr.w	r7, [sp], #4
 8006c94:	4770      	bx	lr
 8006c96:	bf00      	nop
 8006c98:	40010000 	.word	0x40010000

08006c9c <TIM_TI1_SetConfig>:
  *       (on channel2 path) is used as the input signal. Therefore CCMR1 must be
  *        protected against un-initialized filter and polarity values.
  */
void TIM_TI1_SetConfig(TIM_TypeDef *TIMx, uint32_t TIM_ICPolarity, uint32_t TIM_ICSelection,
                       uint32_t TIM_ICFilter)
{
 8006c9c:	b480      	push	{r7}
 8006c9e:	b087      	sub	sp, #28
 8006ca0:	af00      	add	r7, sp, #0
 8006ca2:	60f8      	str	r0, [r7, #12]
 8006ca4:	60b9      	str	r1, [r7, #8]
 8006ca6:	607a      	str	r2, [r7, #4]
 8006ca8:	603b      	str	r3, [r7, #0]
  uint32_t tmpccmr1;
  uint32_t tmpccer;

  /* Disable the Channel 1: Reset the CC1E Bit */
  TIMx->CCER &= ~TIM_CCER_CC1E;
 8006caa:	68fb      	ldr	r3, [r7, #12]
 8006cac:	6a1b      	ldr	r3, [r3, #32]
 8006cae:	f023 0201 	bic.w	r2, r3, #1
 8006cb2:	68fb      	ldr	r3, [r7, #12]
 8006cb4:	621a      	str	r2, [r3, #32]
  tmpccmr1 = TIMx->CCMR1;
 8006cb6:	68fb      	ldr	r3, [r7, #12]
 8006cb8:	699b      	ldr	r3, [r3, #24]
 8006cba:	617b      	str	r3, [r7, #20]
  tmpccer = TIMx->CCER;
 8006cbc:	68fb      	ldr	r3, [r7, #12]
 8006cbe:	6a1b      	ldr	r3, [r3, #32]
 8006cc0:	613b      	str	r3, [r7, #16]

  /* Select the Input */
  if (IS_TIM_CC2_INSTANCE(TIMx) != RESET)
 8006cc2:	68fb      	ldr	r3, [r7, #12]
 8006cc4:	4a24      	ldr	r2, [pc, #144]	; (8006d58 <TIM_TI1_SetConfig+0xbc>)
 8006cc6:	4293      	cmp	r3, r2
 8006cc8:	d013      	beq.n	8006cf2 <TIM_TI1_SetConfig+0x56>
 8006cca:	68fb      	ldr	r3, [r7, #12]
 8006ccc:	f1b3 4f80 	cmp.w	r3, #1073741824	; 0x40000000
 8006cd0:	d00f      	beq.n	8006cf2 <TIM_TI1_SetConfig+0x56>
 8006cd2:	68fb      	ldr	r3, [r7, #12]
 8006cd4:	4a21      	ldr	r2, [pc, #132]	; (8006d5c <TIM_TI1_SetConfig+0xc0>)
 8006cd6:	4293      	cmp	r3, r2
 8006cd8:	d00b      	beq.n	8006cf2 <TIM_TI1_SetConfig+0x56>
 8006cda:	68fb      	ldr	r3, [r7, #12]
 8006cdc:	4a20      	ldr	r2, [pc, #128]	; (8006d60 <TIM_TI1_SetConfig+0xc4>)
 8006cde:	4293      	cmp	r3, r2
 8006ce0:	d007      	beq.n	8006cf2 <TIM_TI1_SetConfig+0x56>
 8006ce2:	68fb      	ldr	r3, [r7, #12]
 8006ce4:	4a1f      	ldr	r2, [pc, #124]	; (8006d64 <TIM_TI1_SetConfig+0xc8>)
 8006ce6:	4293      	cmp	r3, r2
 8006ce8:	d003      	beq.n	8006cf2 <TIM_TI1_SetConfig+0x56>
 8006cea:	68fb      	ldr	r3, [r7, #12]
 8006cec:	4a1e      	ldr	r2, [pc, #120]	; (8006d68 <TIM_TI1_SetConfig+0xcc>)
 8006cee:	4293      	cmp	r3, r2
 8006cf0:	d101      	bne.n	8006cf6 <TIM_TI1_SetConfig+0x5a>
 8006cf2:	2301      	movs	r3, #1
 8006cf4:	e000      	b.n	8006cf8 <TIM_TI1_SetConfig+0x5c>
 8006cf6:	2300      	movs	r3, #0
 8006cf8:	2b00      	cmp	r3, #0
 8006cfa:	d008      	beq.n	8006d0e <TIM_TI1_SetConfig+0x72>
  {
    tmpccmr1 &= ~TIM_CCMR1_CC1S;
 8006cfc:	697b      	ldr	r3, [r7, #20]
 8006cfe:	f023 0303 	bic.w	r3, r3, #3
 8006d02:	617b      	str	r3, [r7, #20]
    tmpccmr1 |= TIM_ICSelection;
 8006d04:	697a      	ldr	r2, [r7, #20]
 8006d06:	687b      	ldr	r3, [r7, #4]
 8006d08:	4313      	orrs	r3, r2
 8006d0a:	617b      	str	r3, [r7, #20]
 8006d0c:	e003      	b.n	8006d16 <TIM_TI1_SetConfig+0x7a>
  }
  else
  {
    tmpccmr1 |= TIM_CCMR1_CC1S_0;
 8006d0e:	697b      	ldr	r3, [r7, #20]
 8006d10:	f043 0301 	orr.w	r3, r3, #1
 8006d14:	617b      	str	r3, [r7, #20]
  }

  /* Set the filter */
  tmpccmr1 &= ~TIM_CCMR1_IC1F;
 8006d16:	697b      	ldr	r3, [r7, #20]
 8006d18:	f023 03f0 	bic.w	r3, r3, #240	; 0xf0
 8006d1c:	617b      	str	r3, [r7, #20]
  tmpccmr1 |= ((TIM_ICFilter << 4U) & TIM_CCMR1_IC1F);
 8006d1e:	683b      	ldr	r3, [r7, #0]
 8006d20:	011b      	lsls	r3, r3, #4
 8006d22:	b2db      	uxtb	r3, r3
 8006d24:	697a      	ldr	r2, [r7, #20]
 8006d26:	4313      	orrs	r3, r2
 8006d28:	617b      	str	r3, [r7, #20]

  /* Select the Polarity and set the CC1E Bit */
  tmpccer &= ~(TIM_CCER_CC1P | TIM_CCER_CC1NP);
 8006d2a:	693b      	ldr	r3, [r7, #16]
 8006d2c:	f023 030a 	bic.w	r3, r3, #10
 8006d30:	613b      	str	r3, [r7, #16]
  tmpccer |= (TIM_ICPolarity & (TIM_CCER_CC1P | TIM_CCER_CC1NP));
 8006d32:	68bb      	ldr	r3, [r7, #8]
 8006d34:	f003 030a 	and.w	r3, r3, #10
 8006d38:	693a      	ldr	r2, [r7, #16]
 8006d3a:	4313      	orrs	r3, r2
 8006d3c:	613b      	str	r3, [r7, #16]

  /* Write to TIMx CCMR1 and CCER registers */
  TIMx->CCMR1 = tmpccmr1;
 8006d3e:	68fb      	ldr	r3, [r7, #12]
 8006d40:	697a      	ldr	r2, [r7, #20]
 8006d42:	619a      	str	r2, [r3, #24]
  TIMx->CCER = tmpccer;
 8006d44:	68fb      	ldr	r3, [r7, #12]
 8006d46:	693a      	ldr	r2, [r7, #16]
 8006d48:	621a      	str	r2, [r3, #32]
}
 8006d4a:	bf00      	nop
 8006d4c:	371c      	adds	r7, #28
 8006d4e:	46bd      	mov	sp, r7
 8006d50:	f85d 7b04 	ldr.w	r7, [sp], #4
 8006d54:	4770      	bx	lr
 8006d56:	bf00      	nop
 8006d58:	40010000 	.word	0x40010000
 8006d5c:	40000400 	.word	0x40000400
 8006d60:	40000800 	.word	0x40000800
 8006d64:	40000c00 	.word	0x40000c00
 8006d68:	40014000 	.word	0x40014000

08006d6c <TIM_TI1_ConfigInputStage>:
  * @param  TIM_ICFilter Specifies the Input Capture Filter.
  *          This parameter must be a value between 0x00 and 0x0F.
  * @retval None
  */
static void TIM_TI1_ConfigInputStage(TIM_TypeDef *TIMx, uint32_t TIM_ICPolarity, uint32_t TIM_ICFilter)
{
 8006d6c:	b480      	push	{r7}
 8006d6e:	b087      	sub	sp, #28
 8006d70:	af00      	add	r7, sp, #0
 8006d72:	60f8      	str	r0, [r7, #12]
 8006d74:	60b9      	str	r1, [r7, #8]
 8006d76:	607a      	str	r2, [r7, #4]
  uint32_t tmpccmr1;
  uint32_t tmpccer;

  /* Disable the Channel 1: Reset the CC1E Bit */
  tmpccer = TIMx->CCER;
 8006d78:	68fb      	ldr	r3, [r7, #12]
 8006d7a:	6a1b      	ldr	r3, [r3, #32]
 8006d7c:	617b      	str	r3, [r7, #20]
  TIMx->CCER &= ~TIM_CCER_CC1E;
 8006d7e:	68fb      	ldr	r3, [r7, #12]
 8006d80:	6a1b      	ldr	r3, [r3, #32]
 8006d82:	f023 0201 	bic.w	r2, r3, #1
 8006d86:	68fb      	ldr	r3, [r7, #12]
 8006d88:	621a      	str	r2, [r3, #32]
  tmpccmr1 = TIMx->CCMR1;
 8006d8a:	68fb      	ldr	r3, [r7, #12]
 8006d8c:	699b      	ldr	r3, [r3, #24]
 8006d8e:	613b      	str	r3, [r7, #16]

  /* Set the filter */
  tmpccmr1 &= ~TIM_CCMR1_IC1F;
 8006d90:	693b      	ldr	r3, [r7, #16]
 8006d92:	f023 03f0 	bic.w	r3, r3, #240	; 0xf0
 8006d96:	613b      	str	r3, [r7, #16]
  tmpccmr1 |= (TIM_ICFilter << 4U);
 8006d98:	687b      	ldr	r3, [r7, #4]
 8006d9a:	011b      	lsls	r3, r3, #4
 8006d9c:	693a      	ldr	r2, [r7, #16]
 8006d9e:	4313      	orrs	r3, r2
 8006da0:	613b      	str	r3, [r7, #16]

  /* Select the Polarity and set the CC1E Bit */
  tmpccer &= ~(TIM_CCER_CC1P | TIM_CCER_CC1NP);
 8006da2:	697b      	ldr	r3, [r7, #20]
 8006da4:	f023 030a 	bic.w	r3, r3, #10
 8006da8:	617b      	str	r3, [r7, #20]
  tmpccer |= TIM_ICPolarity;
 8006daa:	697a      	ldr	r2, [r7, #20]
 8006dac:	68bb      	ldr	r3, [r7, #8]
 8006dae:	4313      	orrs	r3, r2
 8006db0:	617b      	str	r3, [r7, #20]

  /* Write to TIMx CCMR1 and CCER registers */
  TIMx->CCMR1 = tmpccmr1;
 8006db2:	68fb      	ldr	r3, [r7, #12]
 8006db4:	693a      	ldr	r2, [r7, #16]
 8006db6:	619a      	str	r2, [r3, #24]
  TIMx->CCER = tmpccer;
 8006db8:	68fb      	ldr	r3, [r7, #12]
 8006dba:	697a      	ldr	r2, [r7, #20]
 8006dbc:	621a      	str	r2, [r3, #32]
}
 8006dbe:	bf00      	nop
 8006dc0:	371c      	adds	r7, #28
 8006dc2:	46bd      	mov	sp, r7
 8006dc4:	f85d 7b04 	ldr.w	r7, [sp], #4
 8006dc8:	4770      	bx	lr

08006dca <TIM_TI2_SetConfig>:
  *       (on channel1 path) is used as the input signal. Therefore CCMR1 must be
  *        protected against un-initialized filter and polarity values.
  */
static void TIM_TI2_SetConfig(TIM_TypeDef *TIMx, uint32_t TIM_ICPolarity, uint32_t TIM_ICSelection,
                              uint32_t TIM_ICFilter)
{
 8006dca:	b480      	push	{r7}
 8006dcc:	b087      	sub	sp, #28
 8006dce:	af00      	add	r7, sp, #0
 8006dd0:	60f8      	str	r0, [r7, #12]
 8006dd2:	60b9      	str	r1, [r7, #8]
 8006dd4:	607a      	str	r2, [r7, #4]
 8006dd6:	603b      	str	r3, [r7, #0]
  uint32_t tmpccmr1;
  uint32_t tmpccer;

  /* Disable the Channel 2: Reset the CC2E Bit */
  TIMx->CCER &= ~TIM_CCER_CC2E;
 8006dd8:	68fb      	ldr	r3, [r7, #12]
 8006dda:	6a1b      	ldr	r3, [r3, #32]
 8006ddc:	f023 0210 	bic.w	r2, r3, #16
 8006de0:	68fb      	ldr	r3, [r7, #12]
 8006de2:	621a      	str	r2, [r3, #32]
  tmpccmr1 = TIMx->CCMR1;
 8006de4:	68fb      	ldr	r3, [r7, #12]
 8006de6:	699b      	ldr	r3, [r3, #24]
 8006de8:	617b      	str	r3, [r7, #20]
  tmpccer = TIMx->CCER;
 8006dea:	68fb      	ldr	r3, [r7, #12]
 8006dec:	6a1b      	ldr	r3, [r3, #32]
 8006dee:	613b      	str	r3, [r7, #16]

  /* Select the Input */
  tmpccmr1 &= ~TIM_CCMR1_CC2S;
 8006df0:	697b      	ldr	r3, [r7, #20]
 8006df2:	f423 7340 	bic.w	r3, r3, #768	; 0x300
 8006df6:	617b      	str	r3, [r7, #20]
  tmpccmr1 |= (TIM_ICSelection << 8U);
 8006df8:	687b      	ldr	r3, [r7, #4]
 8006dfa:	021b      	lsls	r3, r3, #8
 8006dfc:	697a      	ldr	r2, [r7, #20]
 8006dfe:	4313      	orrs	r3, r2
 8006e00:	617b      	str	r3, [r7, #20]

  /* Set the filter */
  tmpccmr1 &= ~TIM_CCMR1_IC2F;
 8006e02:	697b      	ldr	r3, [r7, #20]
 8006e04:	f423 4370 	bic.w	r3, r3, #61440	; 0xf000
 8006e08:	617b      	str	r3, [r7, #20]
  tmpccmr1 |= ((TIM_ICFilter << 12U) & TIM_CCMR1_IC2F);
 8006e0a:	683b      	ldr	r3, [r7, #0]
 8006e0c:	031b      	lsls	r3, r3, #12
 8006e0e:	b29b      	uxth	r3, r3
 8006e10:	697a      	ldr	r2, [r7, #20]
 8006e12:	4313      	orrs	r3, r2
 8006e14:	617b      	str	r3, [r7, #20]

  /* Select the Polarity and set the CC2E Bit */
  tmpccer &= ~(TIM_CCER_CC2P | TIM_CCER_CC2NP);
 8006e16:	693b      	ldr	r3, [r7, #16]
 8006e18:	f023 03a0 	bic.w	r3, r3, #160	; 0xa0
 8006e1c:	613b      	str	r3, [r7, #16]
  tmpccer |= ((TIM_ICPolarity << 4U) & (TIM_CCER_CC2P | TIM_CCER_CC2NP));
 8006e1e:	68bb      	ldr	r3, [r7, #8]
 8006e20:	011b      	lsls	r3, r3, #4
 8006e22:	f003 03a0 	and.w	r3, r3, #160	; 0xa0
 8006e26:	693a      	ldr	r2, [r7, #16]
 8006e28:	4313      	orrs	r3, r2
 8006e2a:	613b      	str	r3, [r7, #16]

  /* Write to TIMx CCMR1 and CCER registers */
  TIMx->CCMR1 = tmpccmr1 ;
 8006e2c:	68fb      	ldr	r3, [r7, #12]
 8006e2e:	697a      	ldr	r2, [r7, #20]
 8006e30:	619a      	str	r2, [r3, #24]
  TIMx->CCER = tmpccer;
 8006e32:	68fb      	ldr	r3, [r7, #12]
 8006e34:	693a      	ldr	r2, [r7, #16]
 8006e36:	621a      	str	r2, [r3, #32]
}
 8006e38:	bf00      	nop
 8006e3a:	371c      	adds	r7, #28
 8006e3c:	46bd      	mov	sp, r7
 8006e3e:	f85d 7b04 	ldr.w	r7, [sp], #4
 8006e42:	4770      	bx	lr

08006e44 <TIM_TI2_ConfigInputStage>:
  * @param  TIM_ICFilter Specifies the Input Capture Filter.
  *          This parameter must be a value between 0x00 and 0x0F.
  * @retval None
  */
static void TIM_TI2_ConfigInputStage(TIM_TypeDef *TIMx, uint32_t TIM_ICPolarity, uint32_t TIM_ICFilter)
{
 8006e44:	b480      	push	{r7}
 8006e46:	b087      	sub	sp, #28
 8006e48:	af00      	add	r7, sp, #0
 8006e4a:	60f8      	str	r0, [r7, #12]
 8006e4c:	60b9      	str	r1, [r7, #8]
 8006e4e:	607a      	str	r2, [r7, #4]
  uint32_t tmpccmr1;
  uint32_t tmpccer;

  /* Disable the Channel 2: Reset the CC2E Bit */
  TIMx->CCER &= ~TIM_CCER_CC2E;
 8006e50:	68fb      	ldr	r3, [r7, #12]
 8006e52:	6a1b      	ldr	r3, [r3, #32]
 8006e54:	f023 0210 	bic.w	r2, r3, #16
 8006e58:	68fb      	ldr	r3, [r7, #12]
 8006e5a:	621a      	str	r2, [r3, #32]
  tmpccmr1 = TIMx->CCMR1;
 8006e5c:	68fb      	ldr	r3, [r7, #12]
 8006e5e:	699b      	ldr	r3, [r3, #24]
 8006e60:	617b      	str	r3, [r7, #20]
  tmpccer = TIMx->CCER;
 8006e62:	68fb      	ldr	r3, [r7, #12]
 8006e64:	6a1b      	ldr	r3, [r3, #32]
 8006e66:	613b      	str	r3, [r7, #16]

  /* Set the filter */
  tmpccmr1 &= ~TIM_CCMR1_IC2F;
 8006e68:	697b      	ldr	r3, [r7, #20]
 8006e6a:	f423 4370 	bic.w	r3, r3, #61440	; 0xf000
 8006e6e:	617b      	str	r3, [r7, #20]
  tmpccmr1 |= (TIM_ICFilter << 12U);
 8006e70:	687b      	ldr	r3, [r7, #4]
 8006e72:	031b      	lsls	r3, r3, #12
 8006e74:	697a      	ldr	r2, [r7, #20]
 8006e76:	4313      	orrs	r3, r2
 8006e78:	617b      	str	r3, [r7, #20]

  /* Select the Polarity and set the CC2E Bit */
  tmpccer &= ~(TIM_CCER_CC2P | TIM_CCER_CC2NP);
 8006e7a:	693b      	ldr	r3, [r7, #16]
 8006e7c:	f023 03a0 	bic.w	r3, r3, #160	; 0xa0
 8006e80:	613b      	str	r3, [r7, #16]
  tmpccer |= (TIM_ICPolarity << 4U);
 8006e82:	68bb      	ldr	r3, [r7, #8]
 8006e84:	011b      	lsls	r3, r3, #4
 8006e86:	693a      	ldr	r2, [r7, #16]
 8006e88:	4313      	orrs	r3, r2
 8006e8a:	613b      	str	r3, [r7, #16]

  /* Write to TIMx CCMR1 and CCER registers */
  TIMx->CCMR1 = tmpccmr1 ;
 8006e8c:	68fb      	ldr	r3, [r7, #12]
 8006e8e:	697a      	ldr	r2, [r7, #20]
 8006e90:	619a      	str	r2, [r3, #24]
  TIMx->CCER = tmpccer;
 8006e92:	68fb      	ldr	r3, [r7, #12]
 8006e94:	693a      	ldr	r2, [r7, #16]
 8006e96:	621a      	str	r2, [r3, #32]
}
 8006e98:	bf00      	nop
 8006e9a:	371c      	adds	r7, #28
 8006e9c:	46bd      	mov	sp, r7
 8006e9e:	f85d 7b04 	ldr.w	r7, [sp], #4
 8006ea2:	4770      	bx	lr

08006ea4 <TIM_TI3_SetConfig>:
  *       (on channel1 path) is used as the input signal. Therefore CCMR2 must be
  *        protected against un-initialized filter and polarity values.
  */
static void TIM_TI3_SetConfig(TIM_TypeDef *TIMx, uint32_t TIM_ICPolarity, uint32_t TIM_ICSelection,
                              uint32_t TIM_ICFilter)
{
 8006ea4:	b480      	push	{r7}
 8006ea6:	b087      	sub	sp, #28
 8006ea8:	af00      	add	r7, sp, #0
 8006eaa:	60f8      	str	r0, [r7, #12]
 8006eac:	60b9      	str	r1, [r7, #8]
 8006eae:	607a      	str	r2, [r7, #4]
 8006eb0:	603b      	str	r3, [r7, #0]
  uint32_t tmpccmr2;
  uint32_t tmpccer;

  /* Disable the Channel 3: Reset the CC3E Bit */
  TIMx->CCER &= ~TIM_CCER_CC3E;
 8006eb2:	68fb      	ldr	r3, [r7, #12]
 8006eb4:	6a1b      	ldr	r3, [r3, #32]
 8006eb6:	f423 7280 	bic.w	r2, r3, #256	; 0x100
 8006eba:	68fb      	ldr	r3, [r7, #12]
 8006ebc:	621a      	str	r2, [r3, #32]
  tmpccmr2 = TIMx->CCMR2;
 8006ebe:	68fb      	ldr	r3, [r7, #12]
 8006ec0:	69db      	ldr	r3, [r3, #28]
 8006ec2:	617b      	str	r3, [r7, #20]
  tmpccer = TIMx->CCER;
 8006ec4:	68fb      	ldr	r3, [r7, #12]
 8006ec6:	6a1b      	ldr	r3, [r3, #32]
 8006ec8:	613b      	str	r3, [r7, #16]

  /* Select the Input */
  tmpccmr2 &= ~TIM_CCMR2_CC3S;
 8006eca:	697b      	ldr	r3, [r7, #20]
 8006ecc:	f023 0303 	bic.w	r3, r3, #3
 8006ed0:	617b      	str	r3, [r7, #20]
  tmpccmr2 |= TIM_ICSelection;
 8006ed2:	697a      	ldr	r2, [r7, #20]
 8006ed4:	687b      	ldr	r3, [r7, #4]
 8006ed6:	4313      	orrs	r3, r2
 8006ed8:	617b      	str	r3, [r7, #20]

  /* Set the filter */
  tmpccmr2 &= ~TIM_CCMR2_IC3F;
 8006eda:	697b      	ldr	r3, [r7, #20]
 8006edc:	f023 03f0 	bic.w	r3, r3, #240	; 0xf0
 8006ee0:	617b      	str	r3, [r7, #20]
  tmpccmr2 |= ((TIM_ICFilter << 4U) & TIM_CCMR2_IC3F);
 8006ee2:	683b      	ldr	r3, [r7, #0]
 8006ee4:	011b      	lsls	r3, r3, #4
 8006ee6:	b2db      	uxtb	r3, r3
 8006ee8:	697a      	ldr	r2, [r7, #20]
 8006eea:	4313      	orrs	r3, r2
 8006eec:	617b      	str	r3, [r7, #20]

  /* Select the Polarity and set the CC3E Bit */
  tmpccer &= ~(TIM_CCER_CC3P | TIM_CCER_CC3NP);
 8006eee:	693b      	ldr	r3, [r7, #16]
 8006ef0:	f423 6320 	bic.w	r3, r3, #2560	; 0xa00
 8006ef4:	613b      	str	r3, [r7, #16]
  tmpccer |= ((TIM_ICPolarity << 8U) & (TIM_CCER_CC3P | TIM_CCER_CC3NP));
 8006ef6:	68bb      	ldr	r3, [r7, #8]
 8006ef8:	021b      	lsls	r3, r3, #8
 8006efa:	f403 6320 	and.w	r3, r3, #2560	; 0xa00
 8006efe:	693a      	ldr	r2, [r7, #16]
 8006f00:	4313      	orrs	r3, r2
 8006f02:	613b      	str	r3, [r7, #16]

  /* Write to TIMx CCMR2 and CCER registers */
  TIMx->CCMR2 = tmpccmr2;
 8006f04:	68fb      	ldr	r3, [r7, #12]
 8006f06:	697a      	ldr	r2, [r7, #20]
 8006f08:	61da      	str	r2, [r3, #28]
  TIMx->CCER = tmpccer;
 8006f0a:	68fb      	ldr	r3, [r7, #12]
 8006f0c:	693a      	ldr	r2, [r7, #16]
 8006f0e:	621a      	str	r2, [r3, #32]
}
 8006f10:	bf00      	nop
 8006f12:	371c      	adds	r7, #28
 8006f14:	46bd      	mov	sp, r7
 8006f16:	f85d 7b04 	ldr.w	r7, [sp], #4
 8006f1a:	4770      	bx	lr

08006f1c <TIM_TI4_SetConfig>:
  *        protected against un-initialized filter and polarity values.
  * @retval None
  */
static void TIM_TI4_SetConfig(TIM_TypeDef *TIMx, uint32_t TIM_ICPolarity, uint32_t TIM_ICSelection,
                              uint32_t TIM_ICFilter)
{
 8006f1c:	b480      	push	{r7}
 8006f1e:	b087      	sub	sp, #28
 8006f20:	af00      	add	r7, sp, #0
 8006f22:	60f8      	str	r0, [r7, #12]
 8006f24:	60b9      	str	r1, [r7, #8]
 8006f26:	607a      	str	r2, [r7, #4]
 8006f28:	603b      	str	r3, [r7, #0]
  uint32_t tmpccmr2;
  uint32_t tmpccer;

  /* Disable the Channel 4: Reset the CC4E Bit */
  TIMx->CCER &= ~TIM_CCER_CC4E;
 8006f2a:	68fb      	ldr	r3, [r7, #12]
 8006f2c:	6a1b      	ldr	r3, [r3, #32]
 8006f2e:	f423 5280 	bic.w	r2, r3, #4096	; 0x1000
 8006f32:	68fb      	ldr	r3, [r7, #12]
 8006f34:	621a      	str	r2, [r3, #32]
  tmpccmr2 = TIMx->CCMR2;
 8006f36:	68fb      	ldr	r3, [r7, #12]
 8006f38:	69db      	ldr	r3, [r3, #28]
 8006f3a:	617b      	str	r3, [r7, #20]
  tmpccer = TIMx->CCER;
 8006f3c:	68fb      	ldr	r3, [r7, #12]
 8006f3e:	6a1b      	ldr	r3, [r3, #32]
 8006f40:	613b      	str	r3, [r7, #16]

  /* Select the Input */
  tmpccmr2 &= ~TIM_CCMR2_CC4S;
 8006f42:	697b      	ldr	r3, [r7, #20]
 8006f44:	f423 7340 	bic.w	r3, r3, #768	; 0x300
 8006f48:	617b      	str	r3, [r7, #20]
  tmpccmr2 |= (TIM_ICSelection << 8U);
 8006f4a:	687b      	ldr	r3, [r7, #4]
 8006f4c:	021b      	lsls	r3, r3, #8
 8006f4e:	697a      	ldr	r2, [r7, #20]
 8006f50:	4313      	orrs	r3, r2
 8006f52:	617b      	str	r3, [r7, #20]

  /* Set the filter */
  tmpccmr2 &= ~TIM_CCMR2_IC4F;
 8006f54:	697b      	ldr	r3, [r7, #20]
 8006f56:	f423 4370 	bic.w	r3, r3, #61440	; 0xf000
 8006f5a:	617b      	str	r3, [r7, #20]
  tmpccmr2 |= ((TIM_ICFilter << 12U) & TIM_CCMR2_IC4F);
 8006f5c:	683b      	ldr	r3, [r7, #0]
 8006f5e:	031b      	lsls	r3, r3, #12
 8006f60:	b29b      	uxth	r3, r3
 8006f62:	697a      	ldr	r2, [r7, #20]
 8006f64:	4313      	orrs	r3, r2
 8006f66:	617b      	str	r3, [r7, #20]

  /* Select the Polarity and set the CC4E Bit */
  tmpccer &= ~(TIM_CCER_CC4P | TIM_CCER_CC4NP);
 8006f68:	693b      	ldr	r3, [r7, #16]
 8006f6a:	f423 4320 	bic.w	r3, r3, #40960	; 0xa000
 8006f6e:	613b      	str	r3, [r7, #16]
  tmpccer |= ((TIM_ICPolarity << 12U) & (TIM_CCER_CC4P | TIM_CCER_CC4NP));
 8006f70:	68bb      	ldr	r3, [r7, #8]
 8006f72:	031b      	lsls	r3, r3, #12
 8006f74:	f403 4320 	and.w	r3, r3, #40960	; 0xa000
 8006f78:	693a      	ldr	r2, [r7, #16]
 8006f7a:	4313      	orrs	r3, r2
 8006f7c:	613b      	str	r3, [r7, #16]

  /* Write to TIMx CCMR2 and CCER registers */
  TIMx->CCMR2 = tmpccmr2;
 8006f7e:	68fb      	ldr	r3, [r7, #12]
 8006f80:	697a      	ldr	r2, [r7, #20]
 8006f82:	61da      	str	r2, [r3, #28]
  TIMx->CCER = tmpccer ;
 8006f84:	68fb      	ldr	r3, [r7, #12]
 8006f86:	693a      	ldr	r2, [r7, #16]
 8006f88:	621a      	str	r2, [r3, #32]
}
 8006f8a:	bf00      	nop
 8006f8c:	371c      	adds	r7, #28
 8006f8e:	46bd      	mov	sp, r7
 8006f90:	f85d 7b04 	ldr.w	r7, [sp], #4
 8006f94:	4770      	bx	lr

08006f96 <TIM_ITRx_SetConfig>:
  *            @arg TIM_TS_TI2FP2: Filtered Timer Input 2
  *            @arg TIM_TS_ETRF: External Trigger input
  * @retval None
  */
static void TIM_ITRx_SetConfig(TIM_TypeDef *TIMx, uint32_t InputTriggerSource)
{
 8006f96:	b480      	push	{r7}
 8006f98:	b085      	sub	sp, #20
 8006f9a:	af00      	add	r7, sp, #0
 8006f9c:	6078      	str	r0, [r7, #4]
 8006f9e:	6039      	str	r1, [r7, #0]
  uint32_t tmpsmcr;

  /* Get the TIMx SMCR register value */
  tmpsmcr = TIMx->SMCR;
 8006fa0:	687b      	ldr	r3, [r7, #4]
 8006fa2:	689b      	ldr	r3, [r3, #8]
 8006fa4:	60fb      	str	r3, [r7, #12]
  /* Reset the TS Bits */
  tmpsmcr &= ~TIM_SMCR_TS;
 8006fa6:	68fb      	ldr	r3, [r7, #12]
 8006fa8:	f023 0370 	bic.w	r3, r3, #112	; 0x70
 8006fac:	60fb      	str	r3, [r7, #12]
  /* Set the Input Trigger source and the slave mode*/
  tmpsmcr |= (InputTriggerSource | TIM_SLAVEMODE_EXTERNAL1);
 8006fae:	683a      	ldr	r2, [r7, #0]
 8006fb0:	68fb      	ldr	r3, [r7, #12]
 8006fb2:	4313      	orrs	r3, r2
 8006fb4:	f043 0307 	orr.w	r3, r3, #7
 8006fb8:	60fb      	str	r3, [r7, #12]
  /* Write to TIMx SMCR */
  TIMx->SMCR = tmpsmcr;
 8006fba:	687b      	ldr	r3, [r7, #4]
 8006fbc:	68fa      	ldr	r2, [r7, #12]
 8006fbe:	609a      	str	r2, [r3, #8]
}
 8006fc0:	bf00      	nop
 8006fc2:	3714      	adds	r7, #20
 8006fc4:	46bd      	mov	sp, r7
 8006fc6:	f85d 7b04 	ldr.w	r7, [sp], #4
 8006fca:	4770      	bx	lr

08006fcc <TIM_ETR_SetConfig>:
  *          This parameter must be a value between 0x00 and 0x0F
  * @retval None
  */
void TIM_ETR_SetConfig(TIM_TypeDef *TIMx, uint32_t TIM_ExtTRGPrescaler,
                       uint32_t TIM_ExtTRGPolarity, uint32_t ExtTRGFilter)
{
 8006fcc:	b480      	push	{r7}
 8006fce:	b087      	sub	sp, #28
 8006fd0:	af00      	add	r7, sp, #0
 8006fd2:	60f8      	str	r0, [r7, #12]
 8006fd4:	60b9      	str	r1, [r7, #8]
 8006fd6:	607a      	str	r2, [r7, #4]
 8006fd8:	603b      	str	r3, [r7, #0]
  uint32_t tmpsmcr;

  tmpsmcr = TIMx->SMCR;
 8006fda:	68fb      	ldr	r3, [r7, #12]
 8006fdc:	689b      	ldr	r3, [r3, #8]
 8006fde:	617b      	str	r3, [r7, #20]

  /* Reset the ETR Bits */
  tmpsmcr &= ~(TIM_SMCR_ETF | TIM_SMCR_ETPS | TIM_SMCR_ECE | TIM_SMCR_ETP);
 8006fe0:	697b      	ldr	r3, [r7, #20]
 8006fe2:	f423 437f 	bic.w	r3, r3, #65280	; 0xff00
 8006fe6:	617b      	str	r3, [r7, #20]

  /* Set the Prescaler, the Filter value and the Polarity */
  tmpsmcr |= (uint32_t)(TIM_ExtTRGPrescaler | (TIM_ExtTRGPolarity | (ExtTRGFilter << 8U)));
 8006fe8:	683b      	ldr	r3, [r7, #0]
 8006fea:	021a      	lsls	r2, r3, #8
 8006fec:	687b      	ldr	r3, [r7, #4]
 8006fee:	431a      	orrs	r2, r3
 8006ff0:	68bb      	ldr	r3, [r7, #8]
 8006ff2:	4313      	orrs	r3, r2
 8006ff4:	697a      	ldr	r2, [r7, #20]
 8006ff6:	4313      	orrs	r3, r2
 8006ff8:	617b      	str	r3, [r7, #20]

  /* Write to TIMx SMCR */
  TIMx->SMCR = tmpsmcr;
 8006ffa:	68fb      	ldr	r3, [r7, #12]
 8006ffc:	697a      	ldr	r2, [r7, #20]
 8006ffe:	609a      	str	r2, [r3, #8]
}
 8007000:	bf00      	nop
 8007002:	371c      	adds	r7, #28
 8007004:	46bd      	mov	sp, r7
 8007006:	f85d 7b04 	ldr.w	r7, [sp], #4
 800700a:	4770      	bx	lr

0800700c <TIM_CCxChannelCmd>:
  * @param  ChannelState specifies the TIM Channel CCxE bit new state.
  *          This parameter can be: TIM_CCx_ENABLE or TIM_CCx_DISABLE.
  * @retval None
  */
void TIM_CCxChannelCmd(TIM_TypeDef *TIMx, uint32_t Channel, uint32_t ChannelState)
{
 800700c:	b480      	push	{r7}
 800700e:	b087      	sub	sp, #28
 8007010:	af00      	add	r7, sp, #0
 8007012:	60f8      	str	r0, [r7, #12]
 8007014:	60b9      	str	r1, [r7, #8]
 8007016:	607a      	str	r2, [r7, #4]

  /* Check the parameters */
  assert_param(IS_TIM_CC1_INSTANCE(TIMx));
  assert_param(IS_TIM_CHANNELS(Channel));

  tmp = TIM_CCER_CC1E << (Channel & 0x1FU); /* 0x1FU = 31 bits max shift */
 8007018:	68bb      	ldr	r3, [r7, #8]
 800701a:	f003 031f 	and.w	r3, r3, #31
 800701e:	2201      	movs	r2, #1
 8007020:	fa02 f303 	lsl.w	r3, r2, r3
 8007024:	617b      	str	r3, [r7, #20]

  /* Reset the CCxE Bit */
  TIMx->CCER &= ~tmp;
 8007026:	68fb      	ldr	r3, [r7, #12]
 8007028:	6a1a      	ldr	r2, [r3, #32]
 800702a:	697b      	ldr	r3, [r7, #20]
 800702c:	43db      	mvns	r3, r3
 800702e:	401a      	ands	r2, r3
 8007030:	68fb      	ldr	r3, [r7, #12]
 8007032:	621a      	str	r2, [r3, #32]

  /* Set or reset the CCxE Bit */
  TIMx->CCER |= (uint32_t)(ChannelState << (Channel & 0x1FU)); /* 0x1FU = 31 bits max shift */
 8007034:	68fb      	ldr	r3, [r7, #12]
 8007036:	6a1a      	ldr	r2, [r3, #32]
 8007038:	68bb      	ldr	r3, [r7, #8]
 800703a:	f003 031f 	and.w	r3, r3, #31
 800703e:	6879      	ldr	r1, [r7, #4]
 8007040:	fa01 f303 	lsl.w	r3, r1, r3
 8007044:	431a      	orrs	r2, r3
 8007046:	68fb      	ldr	r3, [r7, #12]
 8007048:	621a      	str	r2, [r3, #32]
}
 800704a:	bf00      	nop
 800704c:	371c      	adds	r7, #28
 800704e:	46bd      	mov	sp, r7
 8007050:	f85d 7b04 	ldr.w	r7, [sp], #4
 8007054:	4770      	bx	lr
	...

08007058 <HAL_TIMEx_MasterConfigSynchronization>:
  *         mode.
  * @retval HAL status
  */
HAL_StatusTypeDef HAL_TIMEx_MasterConfigSynchronization(TIM_HandleTypeDef *htim,
                                                        TIM_MasterConfigTypeDef *sMasterConfig)
{
 8007058:	b480      	push	{r7}
 800705a:	b085      	sub	sp, #20
 800705c:	af00      	add	r7, sp, #0
 800705e:	6078      	str	r0, [r7, #4]
 8007060:	6039      	str	r1, [r7, #0]
  assert_param(IS_TIM_MASTER_INSTANCE(htim->Instance));
  assert_param(IS_TIM_TRGO_SOURCE(sMasterConfig->MasterOutputTrigger));
  assert_param(IS_TIM_MSM_STATE(sMasterConfig->MasterSlaveMode));

  /* Check input state */
  __HAL_LOCK(htim);
 8007062:	687b      	ldr	r3, [r7, #4]
 8007064:	f893 303c 	ldrb.w	r3, [r3, #60]	; 0x3c
 8007068:	2b01      	cmp	r3, #1
 800706a:	d101      	bne.n	8007070 <HAL_TIMEx_MasterConfigSynchronization+0x18>
 800706c:	2302      	movs	r3, #2
 800706e:	e050      	b.n	8007112 <HAL_TIMEx_MasterConfigSynchronization+0xba>
 8007070:	687b      	ldr	r3, [r7, #4]
 8007072:	2201      	movs	r2, #1
 8007074:	f883 203c 	strb.w	r2, [r3, #60]	; 0x3c

  /* Change the handler state */
  htim->State = HAL_TIM_STATE_BUSY;
 8007078:	687b      	ldr	r3, [r7, #4]
 800707a:	2202      	movs	r2, #2
 800707c:	f883 203d 	strb.w	r2, [r3, #61]	; 0x3d

  /* Get the TIMx CR2 register value */
  tmpcr2 = htim->Instance->CR2;
 8007080:	687b      	ldr	r3, [r7, #4]
 8007082:	681b      	ldr	r3, [r3, #0]
 8007084:	685b      	ldr	r3, [r3, #4]
 8007086:	60fb      	str	r3, [r7, #12]

  /* Get the TIMx SMCR register value */
  tmpsmcr = htim->Instance->SMCR;
 8007088:	687b      	ldr	r3, [r7, #4]
 800708a:	681b      	ldr	r3, [r3, #0]
 800708c:	689b      	ldr	r3, [r3, #8]
 800708e:	60bb      	str	r3, [r7, #8]

  /* Reset the MMS Bits */
  tmpcr2 &= ~TIM_CR2_MMS;
 8007090:	68fb      	ldr	r3, [r7, #12]
 8007092:	f023 0370 	bic.w	r3, r3, #112	; 0x70
 8007096:	60fb      	str	r3, [r7, #12]
  /* Select the TRGO source */
  tmpcr2 |=  sMasterConfig->MasterOutputTrigger;
 8007098:	683b      	ldr	r3, [r7, #0]
 800709a:	681b      	ldr	r3, [r3, #0]
 800709c:	68fa      	ldr	r2, [r7, #12]
 800709e:	4313      	orrs	r3, r2
 80070a0:	60fb      	str	r3, [r7, #12]

  /* Update TIMx CR2 */
  htim->Instance->CR2 = tmpcr2;
 80070a2:	687b      	ldr	r3, [r7, #4]
 80070a4:	681b      	ldr	r3, [r3, #0]
 80070a6:	68fa      	ldr	r2, [r7, #12]
 80070a8:	605a      	str	r2, [r3, #4]

  if (IS_TIM_SLAVE_INSTANCE(htim->Instance))
 80070aa:	687b      	ldr	r3, [r7, #4]
 80070ac:	681b      	ldr	r3, [r3, #0]
 80070ae:	4a1c      	ldr	r2, [pc, #112]	; (8007120 <HAL_TIMEx_MasterConfigSynchronization+0xc8>)
 80070b0:	4293      	cmp	r3, r2
 80070b2:	d018      	beq.n	80070e6 <HAL_TIMEx_MasterConfigSynchronization+0x8e>
 80070b4:	687b      	ldr	r3, [r7, #4]
 80070b6:	681b      	ldr	r3, [r3, #0]
 80070b8:	f1b3 4f80 	cmp.w	r3, #1073741824	; 0x40000000
 80070bc:	d013      	beq.n	80070e6 <HAL_TIMEx_MasterConfigSynchronization+0x8e>
 80070be:	687b      	ldr	r3, [r7, #4]
 80070c0:	681b      	ldr	r3, [r3, #0]
 80070c2:	4a18      	ldr	r2, [pc, #96]	; (8007124 <HAL_TIMEx_MasterConfigSynchronization+0xcc>)
 80070c4:	4293      	cmp	r3, r2
 80070c6:	d00e      	beq.n	80070e6 <HAL_TIMEx_MasterConfigSynchronization+0x8e>
 80070c8:	687b      	ldr	r3, [r7, #4]
 80070ca:	681b      	ldr	r3, [r3, #0]
 80070cc:	4a16      	ldr	r2, [pc, #88]	; (8007128 <HAL_TIMEx_MasterConfigSynchronization+0xd0>)
 80070ce:	4293      	cmp	r3, r2
 80070d0:	d009      	beq.n	80070e6 <HAL_TIMEx_MasterConfigSynchronization+0x8e>
 80070d2:	687b      	ldr	r3, [r7, #4]
 80070d4:	681b      	ldr	r3, [r3, #0]
 80070d6:	4a15      	ldr	r2, [pc, #84]	; (800712c <HAL_TIMEx_MasterConfigSynchronization+0xd4>)
 80070d8:	4293      	cmp	r3, r2
 80070da:	d004      	beq.n	80070e6 <HAL_TIMEx_MasterConfigSynchronization+0x8e>
 80070dc:	687b      	ldr	r3, [r7, #4]
 80070de:	681b      	ldr	r3, [r3, #0]
 80070e0:	4a13      	ldr	r2, [pc, #76]	; (8007130 <HAL_TIMEx_MasterConfigSynchronization+0xd8>)
 80070e2:	4293      	cmp	r3, r2
 80070e4:	d10c      	bne.n	8007100 <HAL_TIMEx_MasterConfigSynchronization+0xa8>
  {
    /* Reset the MSM Bit */
    tmpsmcr &= ~TIM_SMCR_MSM;
 80070e6:	68bb      	ldr	r3, [r7, #8]
 80070e8:	f023 0380 	bic.w	r3, r3, #128	; 0x80
 80070ec:	60bb      	str	r3, [r7, #8]
    /* Set master mode */
    tmpsmcr |= sMasterConfig->MasterSlaveMode;
 80070ee:	683b      	ldr	r3, [r7, #0]
 80070f0:	685b      	ldr	r3, [r3, #4]
 80070f2:	68ba      	ldr	r2, [r7, #8]
 80070f4:	4313      	orrs	r3, r2
 80070f6:	60bb      	str	r3, [r7, #8]

    /* Update TIMx SMCR */
    htim->Instance->SMCR = tmpsmcr;
 80070f8:	687b      	ldr	r3, [r7, #4]
 80070fa:	681b      	ldr	r3, [r3, #0]
 80070fc:	68ba      	ldr	r2, [r7, #8]
 80070fe:	609a      	str	r2, [r3, #8]
  }

  /* Change the htim state */
  htim->State = HAL_TIM_STATE_READY;
 8007100:	687b      	ldr	r3, [r7, #4]
 8007102:	2201      	movs	r2, #1
 8007104:	f883 203d 	strb.w	r2, [r3, #61]	; 0x3d

  __HAL_UNLOCK(htim);
 8007108:	687b      	ldr	r3, [r7, #4]
 800710a:	2200      	movs	r2, #0
 800710c:	f883 203c 	strb.w	r2, [r3, #60]	; 0x3c

  return HAL_OK;
 8007110:	2300      	movs	r3, #0
}
 8007112:	4618      	mov	r0, r3
 8007114:	3714      	adds	r7, #20
 8007116:	46bd      	mov	sp, r7
 8007118:	f85d 7b04 	ldr.w	r7, [sp], #4
 800711c:	4770      	bx	lr
 800711e:	bf00      	nop
 8007120:	40010000 	.word	0x40010000
 8007124:	40000400 	.word	0x40000400
 8007128:	40000800 	.word	0x40000800
 800712c:	40000c00 	.word	0x40000c00
 8007130:	40014000 	.word	0x40014000

08007134 <HAL_UART_Init>:
  * @param  huart  Pointer to a UART_HandleTypeDef structure that contains
  *                the configuration information for the specified UART module.
  * @retval HAL status
  */
HAL_StatusTypeDef HAL_UART_Init(UART_HandleTypeDef *huart)
{
 8007134:	b580      	push	{r7, lr}
 8007136:	b082      	sub	sp, #8
 8007138:	af00      	add	r7, sp, #0
 800713a:	6078      	str	r0, [r7, #4]
  /* Check the UART handle allocation */
  if (huart == NULL)
 800713c:	687b      	ldr	r3, [r7, #4]
 800713e:	2b00      	cmp	r3, #0
 8007140:	d101      	bne.n	8007146 <HAL_UART_Init+0x12>
  {
    return HAL_ERROR;
 8007142:	2301      	movs	r3, #1
 8007144:	e03f      	b.n	80071c6 <HAL_UART_Init+0x92>
    assert_param(IS_UART_INSTANCE(huart->Instance));
  }
  assert_param(IS_UART_WORD_LENGTH(huart->Init.WordLength));
  assert_param(IS_UART_OVERSAMPLING(huart->Init.OverSampling));

  if (huart->gState == HAL_UART_STATE_RESET)
 8007146:	687b      	ldr	r3, [r7, #4]
 8007148:	f893 303d 	ldrb.w	r3, [r3, #61]	; 0x3d
 800714c:	b2db      	uxtb	r3, r3
 800714e:	2b00      	cmp	r3, #0
 8007150:	d106      	bne.n	8007160 <HAL_UART_Init+0x2c>
  {
    /* Allocate lock resource and initialize it */
    huart->Lock = HAL_UNLOCKED;
 8007152:	687b      	ldr	r3, [r7, #4]
 8007154:	2200      	movs	r2, #0
 8007156:	f883 203c 	strb.w	r2, [r3, #60]	; 0x3c

    /* Init the low level hardware */
    huart->MspInitCallback(huart);
#else
    /* Init the low level hardware : GPIO, CLOCK */
    HAL_UART_MspInit(huart);
 800715a:	6878      	ldr	r0, [r7, #4]
 800715c:	f7fa fbac 	bl	80018b8 <HAL_UART_MspInit>
#endif /* (USE_HAL_UART_REGISTER_CALLBACKS) */
  }

  huart->gState = HAL_UART_STATE_BUSY;
 8007160:	687b      	ldr	r3, [r7, #4]
 8007162:	2224      	movs	r2, #36	; 0x24
 8007164:	f883 203d 	strb.w	r2, [r3, #61]	; 0x3d

  /* Disable the peripheral */
  __HAL_UART_DISABLE(huart);
 8007168:	687b      	ldr	r3, [r7, #4]
 800716a:	681b      	ldr	r3, [r3, #0]
 800716c:	68da      	ldr	r2, [r3, #12]
 800716e:	687b      	ldr	r3, [r7, #4]
 8007170:	681b      	ldr	r3, [r3, #0]
 8007172:	f422 5200 	bic.w	r2, r2, #8192	; 0x2000
 8007176:	60da      	str	r2, [r3, #12]

  /* Set the UART Communication parameters */
  UART_SetConfig(huart);
 8007178:	6878      	ldr	r0, [r7, #4]
 800717a:	f000 f829 	bl	80071d0 <UART_SetConfig>

  /* In asynchronous mode, the following bits must be kept cleared:
     - LINEN and CLKEN bits in the USART_CR2 register,
     - SCEN, HDSEL and IREN  bits in the USART_CR3 register.*/
  CLEAR_BIT(huart->Instance->CR2, (USART_CR2_LINEN | USART_CR2_CLKEN));
 800717e:	687b      	ldr	r3, [r7, #4]
 8007180:	681b      	ldr	r3, [r3, #0]
 8007182:	691a      	ldr	r2, [r3, #16]
 8007184:	687b      	ldr	r3, [r7, #4]
 8007186:	681b      	ldr	r3, [r3, #0]
 8007188:	f422 4290 	bic.w	r2, r2, #18432	; 0x4800
 800718c:	611a      	str	r2, [r3, #16]
  CLEAR_BIT(huart->Instance->CR3, (USART_CR3_SCEN | USART_CR3_HDSEL | USART_CR3_IREN));
 800718e:	687b      	ldr	r3, [r7, #4]
 8007190:	681b      	ldr	r3, [r3, #0]
 8007192:	695a      	ldr	r2, [r3, #20]
 8007194:	687b      	ldr	r3, [r7, #4]
 8007196:	681b      	ldr	r3, [r3, #0]
 8007198:	f022 022a 	bic.w	r2, r2, #42	; 0x2a
 800719c:	615a      	str	r2, [r3, #20]

  /* Enable the peripheral */
  __HAL_UART_ENABLE(huart);
 800719e:	687b      	ldr	r3, [r7, #4]
 80071a0:	681b      	ldr	r3, [r3, #0]
 80071a2:	68da      	ldr	r2, [r3, #12]
 80071a4:	687b      	ldr	r3, [r7, #4]
 80071a6:	681b      	ldr	r3, [r3, #0]
 80071a8:	f442 5200 	orr.w	r2, r2, #8192	; 0x2000
 80071ac:	60da      	str	r2, [r3, #12]

  /* Initialize the UART state */
  huart->ErrorCode = HAL_UART_ERROR_NONE;
 80071ae:	687b      	ldr	r3, [r7, #4]
 80071b0:	2200      	movs	r2, #0
 80071b2:	641a      	str	r2, [r3, #64]	; 0x40
  huart->gState = HAL_UART_STATE_READY;
 80071b4:	687b      	ldr	r3, [r7, #4]
 80071b6:	2220      	movs	r2, #32
 80071b8:	f883 203d 	strb.w	r2, [r3, #61]	; 0x3d
  huart->RxState = HAL_UART_STATE_READY;
 80071bc:	687b      	ldr	r3, [r7, #4]
 80071be:	2220      	movs	r2, #32
 80071c0:	f883 203e 	strb.w	r2, [r3, #62]	; 0x3e

  return HAL_OK;
 80071c4:	2300      	movs	r3, #0
}
 80071c6:	4618      	mov	r0, r3
 80071c8:	3708      	adds	r7, #8
 80071ca:	46bd      	mov	sp, r7
 80071cc:	bd80      	pop	{r7, pc}
	...

080071d0 <UART_SetConfig>:
  * @param  huart  Pointer to a UART_HandleTypeDef structure that contains
  *                the configuration information for the specified UART module.
  * @retval None
  */
static void UART_SetConfig(UART_HandleTypeDef *huart)
{
 80071d0:	e92d 4ff0 	stmdb	sp!, {r4, r5, r6, r7, r8, r9, sl, fp, lr}
 80071d4:	b09f      	sub	sp, #124	; 0x7c
 80071d6:	af00      	add	r7, sp, #0
 80071d8:	66f8      	str	r0, [r7, #108]	; 0x6c
  assert_param(IS_UART_MODE(huart->Init.Mode));

  /*-------------------------- USART CR2 Configuration -----------------------*/
  /* Configure the UART Stop Bits: Set STOP[13:12] bits
     according to huart->Init.StopBits value */
  MODIFY_REG(huart->Instance->CR2, USART_CR2_STOP, huart->Init.StopBits);
 80071da:	6efb      	ldr	r3, [r7, #108]	; 0x6c
 80071dc:	681b      	ldr	r3, [r3, #0]
 80071de:	691b      	ldr	r3, [r3, #16]
 80071e0:	f423 5040 	bic.w	r0, r3, #12288	; 0x3000
 80071e4:	6efb      	ldr	r3, [r7, #108]	; 0x6c
 80071e6:	68d9      	ldr	r1, [r3, #12]
 80071e8:	6efb      	ldr	r3, [r7, #108]	; 0x6c
 80071ea:	681a      	ldr	r2, [r3, #0]
 80071ec:	ea40 0301 	orr.w	r3, r0, r1
 80071f0:	6113      	str	r3, [r2, #16]
     Set the M bits according to huart->Init.WordLength value
     Set PCE and PS bits according to huart->Init.Parity value
     Set TE and RE bits according to huart->Init.Mode value
     Set OVER8 bit according to huart->Init.OverSampling value */

  tmpreg = (uint32_t)huart->Init.WordLength | huart->Init.Parity | huart->Init.Mode | huart->Init.OverSampling;
 80071f2:	6efb      	ldr	r3, [r7, #108]	; 0x6c
 80071f4:	689a      	ldr	r2, [r3, #8]
 80071f6:	6efb      	ldr	r3, [r7, #108]	; 0x6c
 80071f8:	691b      	ldr	r3, [r3, #16]
 80071fa:	431a      	orrs	r2, r3
 80071fc:	6efb      	ldr	r3, [r7, #108]	; 0x6c
 80071fe:	695b      	ldr	r3, [r3, #20]
 8007200:	431a      	orrs	r2, r3
 8007202:	6efb      	ldr	r3, [r7, #108]	; 0x6c
 8007204:	69db      	ldr	r3, [r3, #28]
 8007206:	4313      	orrs	r3, r2
 8007208:	673b      	str	r3, [r7, #112]	; 0x70
  MODIFY_REG(huart->Instance->CR1,
 800720a:	6efb      	ldr	r3, [r7, #108]	; 0x6c
 800720c:	681b      	ldr	r3, [r3, #0]
 800720e:	68db      	ldr	r3, [r3, #12]
 8007210:	f423 4116 	bic.w	r1, r3, #38400	; 0x9600
 8007214:	f021 010c 	bic.w	r1, r1, #12
 8007218:	6efb      	ldr	r3, [r7, #108]	; 0x6c
 800721a:	681a      	ldr	r2, [r3, #0]
 800721c:	6f3b      	ldr	r3, [r7, #112]	; 0x70
 800721e:	430b      	orrs	r3, r1
 8007220:	60d3      	str	r3, [r2, #12]
             (uint32_t)(USART_CR1_M | USART_CR1_PCE | USART_CR1_PS | USART_CR1_TE | USART_CR1_RE | USART_CR1_OVER8),
             tmpreg);

  /*-------------------------- USART CR3 Configuration -----------------------*/
  /* Configure the UART HFC: Set CTSE and RTSE bits according to huart->Init.HwFlowCtl value */
  MODIFY_REG(huart->Instance->CR3, (USART_CR3_RTSE | USART_CR3_CTSE), huart->Init.HwFlowCtl);
 8007222:	6efb      	ldr	r3, [r7, #108]	; 0x6c
 8007224:	681b      	ldr	r3, [r3, #0]
 8007226:	695b      	ldr	r3, [r3, #20]
 8007228:	f423 7040 	bic.w	r0, r3, #768	; 0x300
 800722c:	6efb      	ldr	r3, [r7, #108]	; 0x6c
 800722e:	6999      	ldr	r1, [r3, #24]
 8007230:	6efb      	ldr	r3, [r7, #108]	; 0x6c
 8007232:	681a      	ldr	r2, [r3, #0]
 8007234:	ea40 0301 	orr.w	r3, r0, r1
 8007238:	6153      	str	r3, [r2, #20]
    if ((huart->Instance == USART1) || (huart->Instance == USART6) || (huart->Instance == UART9) || (huart->Instance == UART10))
    {
      pclk = HAL_RCC_GetPCLK2Freq();
    }
#elif defined(USART6)
    if ((huart->Instance == USART1) || (huart->Instance == USART6))
 800723a:	6efb      	ldr	r3, [r7, #108]	; 0x6c
 800723c:	681a      	ldr	r2, [r3, #0]
 800723e:	4bc5      	ldr	r3, [pc, #788]	; (8007554 <UART_SetConfig+0x384>)
 8007240:	429a      	cmp	r2, r3
 8007242:	d004      	beq.n	800724e <UART_SetConfig+0x7e>
 8007244:	6efb      	ldr	r3, [r7, #108]	; 0x6c
 8007246:	681a      	ldr	r2, [r3, #0]
 8007248:	4bc3      	ldr	r3, [pc, #780]	; (8007558 <UART_SetConfig+0x388>)
 800724a:	429a      	cmp	r2, r3
 800724c:	d103      	bne.n	8007256 <UART_SetConfig+0x86>
    {
      pclk = HAL_RCC_GetPCLK2Freq();
 800724e:	f7fe fbd5 	bl	80059fc <HAL_RCC_GetPCLK2Freq>
 8007252:	6778      	str	r0, [r7, #116]	; 0x74
 8007254:	e002      	b.n	800725c <UART_SetConfig+0x8c>
      pclk = HAL_RCC_GetPCLK2Freq();
    }
#endif /* USART6 */
    else
    {
      pclk = HAL_RCC_GetPCLK1Freq();
 8007256:	f7fe fbbd 	bl	80059d4 <HAL_RCC_GetPCLK1Freq>
 800725a:	6778      	str	r0, [r7, #116]	; 0x74
    }
  /*-------------------------- USART BRR Configuration ---------------------*/
  if (huart->Init.OverSampling == UART_OVERSAMPLING_8)
 800725c:	6efb      	ldr	r3, [r7, #108]	; 0x6c
 800725e:	69db      	ldr	r3, [r3, #28]
 8007260:	f5b3 4f00 	cmp.w	r3, #32768	; 0x8000
 8007264:	f040 80b6 	bne.w	80073d4 <UART_SetConfig+0x204>
  {
    huart->Instance->BRR = UART_BRR_SAMPLING8(pclk, huart->Init.BaudRate);
 8007268:	6f7b      	ldr	r3, [r7, #116]	; 0x74
 800726a:	461c      	mov	r4, r3
 800726c:	f04f 0500 	mov.w	r5, #0
 8007270:	4622      	mov	r2, r4
 8007272:	462b      	mov	r3, r5
 8007274:	1891      	adds	r1, r2, r2
 8007276:	6439      	str	r1, [r7, #64]	; 0x40
 8007278:	415b      	adcs	r3, r3
 800727a:	647b      	str	r3, [r7, #68]	; 0x44
 800727c:	e9d7 2310 	ldrd	r2, r3, [r7, #64]	; 0x40
 8007280:	1912      	adds	r2, r2, r4
 8007282:	eb45 0303 	adc.w	r3, r5, r3
 8007286:	f04f 0000 	mov.w	r0, #0
 800728a:	f04f 0100 	mov.w	r1, #0
 800728e:	00d9      	lsls	r1, r3, #3
 8007290:	ea41 7152 	orr.w	r1, r1, r2, lsr #29
 8007294:	00d0      	lsls	r0, r2, #3
 8007296:	4602      	mov	r2, r0
 8007298:	460b      	mov	r3, r1
 800729a:	1911      	adds	r1, r2, r4
 800729c:	6639      	str	r1, [r7, #96]	; 0x60
 800729e:	416b      	adcs	r3, r5
 80072a0:	667b      	str	r3, [r7, #100]	; 0x64
 80072a2:	6efb      	ldr	r3, [r7, #108]	; 0x6c
 80072a4:	685b      	ldr	r3, [r3, #4]
 80072a6:	461a      	mov	r2, r3
 80072a8:	f04f 0300 	mov.w	r3, #0
 80072ac:	1891      	adds	r1, r2, r2
 80072ae:	63b9      	str	r1, [r7, #56]	; 0x38
 80072b0:	415b      	adcs	r3, r3
 80072b2:	63fb      	str	r3, [r7, #60]	; 0x3c
 80072b4:	e9d7 230e 	ldrd	r2, r3, [r7, #56]	; 0x38
 80072b8:	e9d7 0118 	ldrd	r0, r1, [r7, #96]	; 0x60
 80072bc:	f7f9 fbaa 	bl	8000a14 <__aeabi_uldivmod>
 80072c0:	4602      	mov	r2, r0
 80072c2:	460b      	mov	r3, r1
 80072c4:	4ba5      	ldr	r3, [pc, #660]	; (800755c <UART_SetConfig+0x38c>)
 80072c6:	fba3 2302 	umull	r2, r3, r3, r2
 80072ca:	095b      	lsrs	r3, r3, #5
 80072cc:	011e      	lsls	r6, r3, #4
 80072ce:	6f7b      	ldr	r3, [r7, #116]	; 0x74
 80072d0:	461c      	mov	r4, r3
 80072d2:	f04f 0500 	mov.w	r5, #0
 80072d6:	4622      	mov	r2, r4
 80072d8:	462b      	mov	r3, r5
 80072da:	1891      	adds	r1, r2, r2
 80072dc:	6339      	str	r1, [r7, #48]	; 0x30
 80072de:	415b      	adcs	r3, r3
 80072e0:	637b      	str	r3, [r7, #52]	; 0x34
 80072e2:	e9d7 230c 	ldrd	r2, r3, [r7, #48]	; 0x30
 80072e6:	1912      	adds	r2, r2, r4
 80072e8:	eb45 0303 	adc.w	r3, r5, r3
 80072ec:	f04f 0000 	mov.w	r0, #0
 80072f0:	f04f 0100 	mov.w	r1, #0
 80072f4:	00d9      	lsls	r1, r3, #3
 80072f6:	ea41 7152 	orr.w	r1, r1, r2, lsr #29
 80072fa:	00d0      	lsls	r0, r2, #3
 80072fc:	4602      	mov	r2, r0
 80072fe:	460b      	mov	r3, r1
 8007300:	1911      	adds	r1, r2, r4
 8007302:	65b9      	str	r1, [r7, #88]	; 0x58
 8007304:	416b      	adcs	r3, r5
 8007306:	65fb      	str	r3, [r7, #92]	; 0x5c
 8007308:	6efb      	ldr	r3, [r7, #108]	; 0x6c
 800730a:	685b      	ldr	r3, [r3, #4]
 800730c:	461a      	mov	r2, r3
 800730e:	f04f 0300 	mov.w	r3, #0
 8007312:	1891      	adds	r1, r2, r2
 8007314:	62b9      	str	r1, [r7, #40]	; 0x28
 8007316:	415b      	adcs	r3, r3
 8007318:	62fb      	str	r3, [r7, #44]	; 0x2c
 800731a:	e9d7 230a 	ldrd	r2, r3, [r7, #40]	; 0x28
 800731e:	e9d7 0116 	ldrd	r0, r1, [r7, #88]	; 0x58
 8007322:	f7f9 fb77 	bl	8000a14 <__aeabi_uldivmod>
 8007326:	4602      	mov	r2, r0
 8007328:	460b      	mov	r3, r1
 800732a:	4b8c      	ldr	r3, [pc, #560]	; (800755c <UART_SetConfig+0x38c>)
 800732c:	fba3 1302 	umull	r1, r3, r3, r2
 8007330:	095b      	lsrs	r3, r3, #5
 8007332:	2164      	movs	r1, #100	; 0x64
 8007334:	fb01 f303 	mul.w	r3, r1, r3
 8007338:	1ad3      	subs	r3, r2, r3
 800733a:	00db      	lsls	r3, r3, #3
 800733c:	3332      	adds	r3, #50	; 0x32
 800733e:	4a87      	ldr	r2, [pc, #540]	; (800755c <UART_SetConfig+0x38c>)
 8007340:	fba2 2303 	umull	r2, r3, r2, r3
 8007344:	095b      	lsrs	r3, r3, #5
 8007346:	005b      	lsls	r3, r3, #1
 8007348:	f403 73f8 	and.w	r3, r3, #496	; 0x1f0
 800734c:	441e      	add	r6, r3
 800734e:	6f7b      	ldr	r3, [r7, #116]	; 0x74
 8007350:	4618      	mov	r0, r3
 8007352:	f04f 0100 	mov.w	r1, #0
 8007356:	4602      	mov	r2, r0
 8007358:	460b      	mov	r3, r1
 800735a:	1894      	adds	r4, r2, r2
 800735c:	623c      	str	r4, [r7, #32]
 800735e:	415b      	adcs	r3, r3
 8007360:	627b      	str	r3, [r7, #36]	; 0x24
 8007362:	e9d7 2308 	ldrd	r2, r3, [r7, #32]
 8007366:	1812      	adds	r2, r2, r0
 8007368:	eb41 0303 	adc.w	r3, r1, r3
 800736c:	f04f 0400 	mov.w	r4, #0
 8007370:	f04f 0500 	mov.w	r5, #0
 8007374:	00dd      	lsls	r5, r3, #3
 8007376:	ea45 7552 	orr.w	r5, r5, r2, lsr #29
 800737a:	00d4      	lsls	r4, r2, #3
 800737c:	4622      	mov	r2, r4
 800737e:	462b      	mov	r3, r5
 8007380:	1814      	adds	r4, r2, r0
 8007382:	653c      	str	r4, [r7, #80]	; 0x50
 8007384:	414b      	adcs	r3, r1
 8007386:	657b      	str	r3, [r7, #84]	; 0x54
 8007388:	6efb      	ldr	r3, [r7, #108]	; 0x6c
 800738a:	685b      	ldr	r3, [r3, #4]
 800738c:	461a      	mov	r2, r3
 800738e:	f04f 0300 	mov.w	r3, #0
 8007392:	1891      	adds	r1, r2, r2
 8007394:	61b9      	str	r1, [r7, #24]
 8007396:	415b      	adcs	r3, r3
 8007398:	61fb      	str	r3, [r7, #28]
 800739a:	e9d7 2306 	ldrd	r2, r3, [r7, #24]
 800739e:	e9d7 0114 	ldrd	r0, r1, [r7, #80]	; 0x50
 80073a2:	f7f9 fb37 	bl	8000a14 <__aeabi_uldivmod>
 80073a6:	4602      	mov	r2, r0
 80073a8:	460b      	mov	r3, r1
 80073aa:	4b6c      	ldr	r3, [pc, #432]	; (800755c <UART_SetConfig+0x38c>)
 80073ac:	fba3 1302 	umull	r1, r3, r3, r2
 80073b0:	095b      	lsrs	r3, r3, #5
 80073b2:	2164      	movs	r1, #100	; 0x64
 80073b4:	fb01 f303 	mul.w	r3, r1, r3
 80073b8:	1ad3      	subs	r3, r2, r3
 80073ba:	00db      	lsls	r3, r3, #3
 80073bc:	3332      	adds	r3, #50	; 0x32
 80073be:	4a67      	ldr	r2, [pc, #412]	; (800755c <UART_SetConfig+0x38c>)
 80073c0:	fba2 2303 	umull	r2, r3, r2, r3
 80073c4:	095b      	lsrs	r3, r3, #5
 80073c6:	f003 0207 	and.w	r2, r3, #7
 80073ca:	6efb      	ldr	r3, [r7, #108]	; 0x6c
 80073cc:	681b      	ldr	r3, [r3, #0]
 80073ce:	4432      	add	r2, r6
 80073d0:	609a      	str	r2, [r3, #8]
  }
  else
  {
    huart->Instance->BRR = UART_BRR_SAMPLING16(pclk, huart->Init.BaudRate);
  }
}
 80073d2:	e0b9      	b.n	8007548 <UART_SetConfig+0x378>
    huart->Instance->BRR = UART_BRR_SAMPLING16(pclk, huart->Init.BaudRate);
 80073d4:	6f7b      	ldr	r3, [r7, #116]	; 0x74
 80073d6:	461c      	mov	r4, r3
 80073d8:	f04f 0500 	mov.w	r5, #0
 80073dc:	4622      	mov	r2, r4
 80073de:	462b      	mov	r3, r5
 80073e0:	1891      	adds	r1, r2, r2
 80073e2:	6139      	str	r1, [r7, #16]
 80073e4:	415b      	adcs	r3, r3
 80073e6:	617b      	str	r3, [r7, #20]
 80073e8:	e9d7 2304 	ldrd	r2, r3, [r7, #16]
 80073ec:	1912      	adds	r2, r2, r4
 80073ee:	eb45 0303 	adc.w	r3, r5, r3
 80073f2:	f04f 0000 	mov.w	r0, #0
 80073f6:	f04f 0100 	mov.w	r1, #0
 80073fa:	00d9      	lsls	r1, r3, #3
 80073fc:	ea41 7152 	orr.w	r1, r1, r2, lsr #29
 8007400:	00d0      	lsls	r0, r2, #3
 8007402:	4602      	mov	r2, r0
 8007404:	460b      	mov	r3, r1
 8007406:	eb12 0804 	adds.w	r8, r2, r4
 800740a:	eb43 0905 	adc.w	r9, r3, r5
 800740e:	6efb      	ldr	r3, [r7, #108]	; 0x6c
 8007410:	685b      	ldr	r3, [r3, #4]
 8007412:	4618      	mov	r0, r3
 8007414:	f04f 0100 	mov.w	r1, #0
 8007418:	f04f 0200 	mov.w	r2, #0
 800741c:	f04f 0300 	mov.w	r3, #0
 8007420:	008b      	lsls	r3, r1, #2
 8007422:	ea43 7390 	orr.w	r3, r3, r0, lsr #30
 8007426:	0082      	lsls	r2, r0, #2
 8007428:	4640      	mov	r0, r8
 800742a:	4649      	mov	r1, r9
 800742c:	f7f9 faf2 	bl	8000a14 <__aeabi_uldivmod>
 8007430:	4602      	mov	r2, r0
 8007432:	460b      	mov	r3, r1
 8007434:	4b49      	ldr	r3, [pc, #292]	; (800755c <UART_SetConfig+0x38c>)
 8007436:	fba3 2302 	umull	r2, r3, r3, r2
 800743a:	095b      	lsrs	r3, r3, #5
 800743c:	011e      	lsls	r6, r3, #4
 800743e:	6f7b      	ldr	r3, [r7, #116]	; 0x74
 8007440:	4618      	mov	r0, r3
 8007442:	f04f 0100 	mov.w	r1, #0
 8007446:	4602      	mov	r2, r0
 8007448:	460b      	mov	r3, r1
 800744a:	1894      	adds	r4, r2, r2
 800744c:	60bc      	str	r4, [r7, #8]
 800744e:	415b      	adcs	r3, r3
 8007450:	60fb      	str	r3, [r7, #12]
 8007452:	e9d7 2302 	ldrd	r2, r3, [r7, #8]
 8007456:	1812      	adds	r2, r2, r0
 8007458:	eb41 0303 	adc.w	r3, r1, r3
 800745c:	f04f 0400 	mov.w	r4, #0
 8007460:	f04f 0500 	mov.w	r5, #0
 8007464:	00dd      	lsls	r5, r3, #3
 8007466:	ea45 7552 	orr.w	r5, r5, r2, lsr #29
 800746a:	00d4      	lsls	r4, r2, #3
 800746c:	4622      	mov	r2, r4
 800746e:	462b      	mov	r3, r5
 8007470:	1814      	adds	r4, r2, r0
 8007472:	64bc      	str	r4, [r7, #72]	; 0x48
 8007474:	414b      	adcs	r3, r1
 8007476:	64fb      	str	r3, [r7, #76]	; 0x4c
 8007478:	6efb      	ldr	r3, [r7, #108]	; 0x6c
 800747a:	685b      	ldr	r3, [r3, #4]
 800747c:	4618      	mov	r0, r3
 800747e:	f04f 0100 	mov.w	r1, #0
 8007482:	f04f 0200 	mov.w	r2, #0
 8007486:	f04f 0300 	mov.w	r3, #0
 800748a:	008b      	lsls	r3, r1, #2
 800748c:	ea43 7390 	orr.w	r3, r3, r0, lsr #30
 8007490:	0082      	lsls	r2, r0, #2
 8007492:	e9d7 0112 	ldrd	r0, r1, [r7, #72]	; 0x48
 8007496:	f7f9 fabd 	bl	8000a14 <__aeabi_uldivmod>
 800749a:	4602      	mov	r2, r0
 800749c:	460b      	mov	r3, r1
 800749e:	4b2f      	ldr	r3, [pc, #188]	; (800755c <UART_SetConfig+0x38c>)
 80074a0:	fba3 1302 	umull	r1, r3, r3, r2
 80074a4:	095b      	lsrs	r3, r3, #5
 80074a6:	2164      	movs	r1, #100	; 0x64
 80074a8:	fb01 f303 	mul.w	r3, r1, r3
 80074ac:	1ad3      	subs	r3, r2, r3
 80074ae:	011b      	lsls	r3, r3, #4
 80074b0:	3332      	adds	r3, #50	; 0x32
 80074b2:	4a2a      	ldr	r2, [pc, #168]	; (800755c <UART_SetConfig+0x38c>)
 80074b4:	fba2 2303 	umull	r2, r3, r2, r3
 80074b8:	095b      	lsrs	r3, r3, #5
 80074ba:	f003 03f0 	and.w	r3, r3, #240	; 0xf0
 80074be:	441e      	add	r6, r3
 80074c0:	6f7b      	ldr	r3, [r7, #116]	; 0x74
 80074c2:	4618      	mov	r0, r3
 80074c4:	f04f 0100 	mov.w	r1, #0
 80074c8:	4602      	mov	r2, r0
 80074ca:	460b      	mov	r3, r1
 80074cc:	1894      	adds	r4, r2, r2
 80074ce:	603c      	str	r4, [r7, #0]
 80074d0:	415b      	adcs	r3, r3
 80074d2:	607b      	str	r3, [r7, #4]
 80074d4:	e9d7 2300 	ldrd	r2, r3, [r7]
 80074d8:	1812      	adds	r2, r2, r0
 80074da:	eb41 0303 	adc.w	r3, r1, r3
 80074de:	f04f 0400 	mov.w	r4, #0
 80074e2:	f04f 0500 	mov.w	r5, #0
 80074e6:	00dd      	lsls	r5, r3, #3
 80074e8:	ea45 7552 	orr.w	r5, r5, r2, lsr #29
 80074ec:	00d4      	lsls	r4, r2, #3
 80074ee:	4622      	mov	r2, r4
 80074f0:	462b      	mov	r3, r5
 80074f2:	eb12 0a00 	adds.w	sl, r2, r0
 80074f6:	eb43 0b01 	adc.w	fp, r3, r1
 80074fa:	6efb      	ldr	r3, [r7, #108]	; 0x6c
 80074fc:	685b      	ldr	r3, [r3, #4]
 80074fe:	4618      	mov	r0, r3
 8007500:	f04f 0100 	mov.w	r1, #0
 8007504:	f04f 0200 	mov.w	r2, #0
 8007508:	f04f 0300 	mov.w	r3, #0
 800750c:	008b      	lsls	r3, r1, #2
 800750e:	ea43 7390 	orr.w	r3, r3, r0, lsr #30
 8007512:	0082      	lsls	r2, r0, #2
 8007514:	4650      	mov	r0, sl
 8007516:	4659      	mov	r1, fp
 8007518:	f7f9 fa7c 	bl	8000a14 <__aeabi_uldivmod>
 800751c:	4602      	mov	r2, r0
 800751e:	460b      	mov	r3, r1
 8007520:	4b0e      	ldr	r3, [pc, #56]	; (800755c <UART_SetConfig+0x38c>)
 8007522:	fba3 1302 	umull	r1, r3, r3, r2
 8007526:	095b      	lsrs	r3, r3, #5
 8007528:	2164      	movs	r1, #100	; 0x64
 800752a:	fb01 f303 	mul.w	r3, r1, r3
 800752e:	1ad3      	subs	r3, r2, r3
 8007530:	011b      	lsls	r3, r3, #4
 8007532:	3332      	adds	r3, #50	; 0x32
 8007534:	4a09      	ldr	r2, [pc, #36]	; (800755c <UART_SetConfig+0x38c>)
 8007536:	fba2 2303 	umull	r2, r3, r2, r3
 800753a:	095b      	lsrs	r3, r3, #5
 800753c:	f003 020f 	and.w	r2, r3, #15
 8007540:	6efb      	ldr	r3, [r7, #108]	; 0x6c
 8007542:	681b      	ldr	r3, [r3, #0]
 8007544:	4432      	add	r2, r6
 8007546:	609a      	str	r2, [r3, #8]
}
 8007548:	bf00      	nop
 800754a:	377c      	adds	r7, #124	; 0x7c
 800754c:	46bd      	mov	sp, r7
 800754e:	e8bd 8ff0 	ldmia.w	sp!, {r4, r5, r6, r7, r8, r9, sl, fp, pc}
 8007552:	bf00      	nop
 8007554:	40011000 	.word	0x40011000
 8007558:	40011400 	.word	0x40011400
 800755c:	51eb851f 	.word	0x51eb851f

08007560 <__libc_init_array>:
 8007560:	b570      	push	{r4, r5, r6, lr}
 8007562:	4d0d      	ldr	r5, [pc, #52]	; (8007598 <__libc_init_array+0x38>)
 8007564:	4c0d      	ldr	r4, [pc, #52]	; (800759c <__libc_init_array+0x3c>)
 8007566:	1b64      	subs	r4, r4, r5
 8007568:	10a4      	asrs	r4, r4, #2
 800756a:	2600      	movs	r6, #0
 800756c:	42a6      	cmp	r6, r4
 800756e:	d109      	bne.n	8007584 <__libc_init_array+0x24>
 8007570:	4d0b      	ldr	r5, [pc, #44]	; (80075a0 <__libc_init_array+0x40>)
 8007572:	4c0c      	ldr	r4, [pc, #48]	; (80075a4 <__libc_init_array+0x44>)
 8007574:	f000 f820 	bl	80075b8 <_init>
 8007578:	1b64      	subs	r4, r4, r5
 800757a:	10a4      	asrs	r4, r4, #2
 800757c:	2600      	movs	r6, #0
 800757e:	42a6      	cmp	r6, r4
 8007580:	d105      	bne.n	800758e <__libc_init_array+0x2e>
 8007582:	bd70      	pop	{r4, r5, r6, pc}
 8007584:	f855 3b04 	ldr.w	r3, [r5], #4
 8007588:	4798      	blx	r3
 800758a:	3601      	adds	r6, #1
 800758c:	e7ee      	b.n	800756c <__libc_init_array+0xc>
 800758e:	f855 3b04 	ldr.w	r3, [r5], #4
 8007592:	4798      	blx	r3
 8007594:	3601      	adds	r6, #1
 8007596:	e7f2      	b.n	800757e <__libc_init_array+0x1e>
 8007598:	080075f8 	.word	0x080075f8
 800759c:	080075f8 	.word	0x080075f8
 80075a0:	080075f8 	.word	0x080075f8
 80075a4:	080075fc 	.word	0x080075fc

080075a8 <memset>:
 80075a8:	4402      	add	r2, r0
 80075aa:	4603      	mov	r3, r0
 80075ac:	4293      	cmp	r3, r2
 80075ae:	d100      	bne.n	80075b2 <memset+0xa>
 80075b0:	4770      	bx	lr
 80075b2:	f803 1b01 	strb.w	r1, [r3], #1
 80075b6:	e7f9      	b.n	80075ac <memset+0x4>

080075b8 <_init>:
 80075b8:	b5f8      	push	{r3, r4, r5, r6, r7, lr}
 80075ba:	bf00      	nop
 80075bc:	bcf8      	pop	{r3, r4, r5, r6, r7}
 80075be:	bc08      	pop	{r3}
 80075c0:	469e      	mov	lr, r3
 80075c2:	4770      	bx	lr

080075c4 <_fini>:
 80075c4:	b5f8      	push	{r3, r4, r5, r6, r7, lr}
 80075c6:	bf00      	nop
 80075c8:	bcf8      	pop	{r3, r4, r5, r6, r7}
 80075ca:	bc08      	pop	{r3}
 80075cc:	469e      	mov	lr, r3
 80075ce:	4770      	bx	lr
